(cnumpy.core.multiarray
_reconstruct
p0
(cnumpy
ndarray
p1
(I0
tp2
S'b'
p3
tp4
Rp5
(I1
(I4
tp6
cnumpy
dtype
p7
(S'f8'
p8
I0
I1
tp9
Rp10
(I3
S'<'
p11
NNNI-1
I-1
I0
tp12
bI00
S'h\xa1}A\xfe\x85q@#\x8eJ\xf9%/;?:\xe4*R\xb9\xf2\xe4?,Q\x9f\x1d\x1c\xd8\xe0?'
p13
tp14
b(lp15
(lp16
cnumpy.core.multiarray
scalar
p17
(g10
S'\xbaj\xb8\xbc77m@'
p18
tp19
Rp20
ag17
(g10
S's\r\x9f\xa4`pt@'
p21
tp22
Rp23
aa(lp24
g17
(g10
S'\tMd\tj\xf0:?'
p25
tp26
Rp27
ag17
(g10
S'=\xcf0\xe9\xe1m;?'
p28
tp29
Rp30
aa(lp31
g17
(g10
S'\xccw5+\x92\x1c\n\xc0'
p32
tp33
Rp34
ag17
(g10
S'\xf5t%j\xf7J\x12@'
p35
tp36
Rp37
aa(lp38
g17
(g10
S'r]\x13\xb9\x98\xd4\xe0?'
p39
tp40
Rp41
ag17
(g10
S'\xe6D+\x82\x9f\xdb\xe0?'
p42
tp43
Rp44
aatp45
.