(cnumpy.core.multiarray
_reconstruct
p0
(cnumpy
ndarray
p1
(I0
tp2
S'b'
p3
tp4
Rp5
(I1
(I4
tp6
cnumpy
dtype
p7
(S'f8'
p8
I0
I1
tp9
Rp10
(I3
S'<'
p11
NNNI-1
I-1
I0
tp12
bI00
S'\x8e\x1aL\x91[\xdcd@\xd3j\x90\xd6\xc7\xb8)?\x9e\x1dtnNy\xc1?\xc0\xd5c\xf6d+\xe1?'
p13
tp14
b(lp15
(lp16
cnumpy.core.multiarray
scalar
p17
(g10
S'\xd4\x02\xa7\x17\x83\xbaa@'
p18
tp19
Rp20
ag17
(g10
S'H2\xf1\n4\xfeg@'
p21
tp22
Rp23
aa(lp24
g17
(g10
S'i\x8adu^w)?'
p25
tp26
Rp27
ag17
(g10
S'=K\xbc71\xfa)?'
p28
tp29
Rp30
aa(lp31
g17
(g10
S'\xb0\x06\xc7\x83+"\x8a\xbf'
p32
tp33
Rp34
ag17
(g10
S'\xd4U\x92\xca_J\xd2?'
p35
tp36
Rp37
aa(lp38
g17
(g10
S"Dh\xfa\x8e'%\xe1?"
p39
tp40
Rp41
ag17
(g10
S'<C\xcd]\xa21\xe1?'
p42
tp43
Rp44
aatp45
.