(cnumpy.core.multiarray
_reconstruct
p0
(cnumpy
ndarray
p1
(I0
tp2
S'b'
p3
tp4
Rp5
(I1
(I4
tp6
cnumpy
dtype
p7
(S'f8'
p8
I0
I1
tp9
Rp10
(I3
S'<'
p11
NNNI-1
I-1
I0
tp12
bI00
S'9\xa5`\x99|\xfdh@\x11Y\x9cLBr*?^\xa10!3#\xe5?BX\x1ax\x18\xfa\xe0?'
p13
tp14
b(lp15
(lp16
cnumpy.core.multiarray
scalar
p17
(g10
S"\xc6'\x1bvA&e@"
p18
tp19
Rp20
ag17
(g10
S'\xac"\xa6\xbc\xb7\xd4l@'
p21
tp22
Rp23
aa(lp24
g17
(g10
S'X\x148\x90~**?'
p25
tp26
Rp27
ag17
(g10
S'\xca\x9d\x00\t\x06\xba*?'
p28
tp29
Rp30
aa(lp31
g17
(g10
S'\x86\xceE\xff\x19a\xf4\xbf'
p32
tp33
Rp34
ag17
(g10
S'\xf27;\x90&\xc2\x04@'
p35
tp36
Rp37
aa(lp38
g17
(g10
S'\xdb^Nr\x99\xf4\xe0?'
p39
tp40
Rp41
ag17
(g10
S'\xa9Q\xe6}\x97\xff\xe0?'
p42
tp43
Rp44
aatp45
.