(cnumpy.core.multiarray
_reconstruct
p0
(cnumpy
ndarray
p1
(I0
tp2
S'b'
p3
tp4
Rp5
(I1
(I4
tp6
cnumpy
dtype
p7
(S'f8'
p8
I0
I1
tp9
Rp10
(I3
S'<'
p11
NNNI-1
I-1
I0
tp12
bI00
S'\x8b}b\x10\xce\x9dm@[\xf7|\x08\xa8tZ?XBpM\xeen\xd2?p\x8b*J\xcc\xf0\xe0?'
p13
tp14
b(lp15
(lp16
cnumpy.core.multiarray
scalar
p17
(g10
S'\x97\xf87.\xfa;g@'
p18
tp19
Rp20
ag17
(g10
S'?\x81F\xf9\xd0\xffq@'
p21
tp22
Rp23
aa(lp24
g17
(g10
S'X\r\r\xeb\x8alZ?'
p25
tp26
Rp27
ag17
(g10
S'^\xe1\xec%\xc5|Z?'
p28
tp29
Rp30
aa(lp31
g17
(g10
S'B\x00\xa7\x13vP\xd1\xbf'
p32
tp33
Rp34
ag17
(g10
S'y\xc2CW)\x17\xeb?'
p35
tp36
Rp37
aa(lp38
g17
(g10
S'6\x1et\x92]\xed\xe0?'
p39
tp40
Rp41
ag17
(g10
S'\xaa\xf8\xe0\x01;\xf4\xe0?'
p42
tp43
Rp44
aatp45
.