(cnumpy.core.multiarray
_reconstruct
p0
(cnumpy
ndarray
p1
(I0
tp2
S'b'
p3
tp4
Rp5
(I1
(I4
tp6
cnumpy
dtype
p7
(S'f8'
p8
I0
I1
tp9
Rp10
(I3
S'<'
p11
NNNI-1
I-1
I0
tp12
bI00
S'r\xbc\xb6b\n\x1fe@\xc1\xcb\x04,\x06Vx?d\xfb\xa3\xcf\xc8m\xe4??\xb5\xff:,0\xe1?'
p13
tp14
b(lp15
(lp16
cnumpy.core.multiarray
scalar
p17
(g10
S'\xfe\xf0\t!]\x13S@'
p18
tp19
Rp20
ag17
(g10
S'2@t\x1a3Zp@'
p21
tp22
Rp23
aa(lp24
g17
(g10
S'\xa1u\xa3\xa17\x01w\xbf'
p25
tp26
Rp27
ag17
(g10
S'ICk\xfeP\xeb\x91?'
p28
tp29
Rp30
aa(lp31
g17
(g10
S'\x9eroHn\x81\xfa\xbf'
p32
tp33
Rp34
ag17
(g10
S'\x01\xb7\t\x8c\x9bw\x07@'
p35
tp36
Rp37
aa(lp38
g17
(g10
S'\n\xf7\x85P\xf1(\xe1?'
p39
tp40
Rp41
ag17
(g10
S'tsy%g7\xe1?'
p42
tp43
Rp44
aatp45
.