(cnumpy.core.multiarray
_reconstruct
p0
(cnumpy
ndarray
p1
(I0
tp2
S'b'
p3
tp4
Rp5
(I1
(I4
tp6
cnumpy
dtype
p7
(S'f8'
p8
I0
I1
tp9
Rp10
(I3
S'<'
p11
NNNI-1
I-1
I0
tp12
bI00
S'6z\x11_\xf79e@\xf0\xea\x93@\xb72j?bF\xf3\xeb\x8bX\xe3?\\\x92\xb7\xf1\xa2(\xe1?'
p13
tp14
b(lp15
(lp16
cnumpy.core.multiarray
scalar
p17
(g10
S'b5C\x9b\xed"a@'
p18
tp19
Rp20
ag17
(g10
S'\n\xbf\xdf"\x01Qi@'
p21
tp22
Rp23
aa(lp24
g17
(g10
S'd\xbbCFt\xeei?'
p25
tp26
Rp27
ag17
(g10
S'|\x1a\xe4:\xfavj?'
p28
tp29
Rp30
aa(lp31
g17
(g10
S'PV_[\xfb\x1a\x07\xc0'
p32
tp33
Rp34
ag17
(g10
S'\xc0|\xac\xa8\xa0c\x10@'
p35
tp36
Rp37
aa(lp38
g17
(g10
S'3\xf6\xe0\x9e]%\xe1?'
p39
tp40
Rp41
ag17
(g10
S'\x85.\x8eD\xe8+\xe1?'
p42
tp43
Rp44
aatp45
.