(cnumpy.core.multiarray
_reconstruct
p0
(cnumpy
ndarray
p1
(I0
tp2
S'b'
p3
tp4
Rp5
(I1
(I2
tp6
cnumpy
dtype
p7
(S'f8'
p8
I0
I1
tp9
Rp10
(I3
S'<'
p11
NNNI-1
I-1
I0
tp12
bI00
S'\x9b\xb4\xe2\x8daa\xf0?\xaaV\xf3\x05\xac\xad\xe0?'
p13
tp14
b(lp15
(lp16
cnumpy.core.multiarray
scalar
p17
(g10
S'Y\\\xda6,A\xfd\xbf'
p18
tp19
Rp20
ag17
(g10
S'\xc8\xe2O\xa9\xf7\x01\x0f@'
p21
tp22
Rp23
aa(lp24
g17
(g10
S'v\xd9]\xa5q\xac\xe0?'
p25
tp26
Rp27
ag17
(g10
S'\xde\xd3\x88f\xe6\xae\xe0?'
p28
tp29
Rp30
aatp31
.