(cnumpy.core.multiarray
_reconstruct
p0
(cnumpy
ndarray
p1
(I0
tp2
S'b'
p3
tp4
Rp5
(I1
(I2
tp6
cnumpy
dtype
p7
(S'f8'
p8
I0
I1
tp9
Rp10
(I3
S'<'
p11
NNNI-1
I-1
I0
tp12
bI00
S'l\x0czy\xfesv?\x83\xf4\xc0`\xb0\x8f\xe0?'
p13
tp14
b(lp15
(lp16
cnumpy.core.multiarray
scalar
p17
(g10
S',K\x0b^\x9e\x1di\xbf'
p18
tp19
Rp20
ag17
(g10
S'7\xdf\xfc\x10f\xbb\x8c?'
p21
tp22
Rp23
aa(lp24
g17
(g10
S'A;\x18h\x9c\x8e\xe0?'
p25
tp26
Rp27
ag17
(g10
S'\xc5\xadiY\xc4\x90\xe0?'
p28
tp29
Rp30
aatp31
.