(cnumpy.core.multiarray
_reconstruct
p0
(cnumpy
ndarray
p1
(I0
tp2
S'b'
p3
tp4
Rp5
(I1
(I2
tp6
cnumpy
dtype
p7
(S'f8'
p8
I0
I1
tp9
Rp10
(I3
S'<'
p11
NNNI-1
I-1
I0
tp12
bI00
S'2 \xd7a&\x8b\xe3??\x9a!3\x9c\xc1\xe0?'
p13
tp14
b(lp15
(lp16
cnumpy.core.multiarray
scalar
p17
(g10
S'\xc8<y\x93w9\xe0\xbf'
p18
tp19
Rp20
ag17
(g10
S'\x96\xbe\x93+\xe2\xa7\xfb?'
p21
tp22
Rp23
aa(lp24
g17
(g10
S'\xce\x0f\x8a\xd6k\xc0\xe0?'
p25
tp26
Rp27
ag17
(g10
S'\xb0$\xb9\x8f\xcc\xc2\xe0?'
p28
tp29
Rp30
aatp31
.