(cnumpy.core.multiarray
_reconstruct
p0
(cnumpy
ndarray
p1
(I0
tp2
S'b'
p3
tp4
Rp5
(I1
(I2
tp6
cnumpy
dtype
p7
(S'f8'
p8
I0
I1
tp9
Rp10
(I3
S'<'
p11
NNNI-1
I-1
I0
tp12
bI00
S'\xc6\xc2hCCQ\x04@\xeb\x00\x0c\xeb9\x98\xe0?'
p13
tp14
b(lp15
(lp16
cnumpy.core.multiarray
scalar
p17
(g10
S'\xa0\xc9\x0b\xf3\xb2h7\xc0'
p18
tp19
Rp20
ag17
(g10
S'R\xfa\xe5\xc3\x03}<@'
p21
tp22
Rp23
aa(lp24
g17
(g10
S'\xc4\xc46\x88+\x97\xe0?'
p25
tp26
Rp27
ag17
(g10
S'\x12=\xe1MH\x99\xe0?'
p28
tp29
Rp30
aatp31
.