(cnumpy.core.multiarray
_reconstruct
p0
(cnumpy
ndarray
p1
(I0
tp2
S'b'
p3
tp4
Rp5
(I1
(I2
tp6
cnumpy
dtype
p7
(S'f8'
p8
I0
I1
tp9
Rp10
(I3
S'<'
p11
NNNI-1
I-1
I0
tp12
bI00
S'\xe8\xf7\xd1uu\xb9\xa6?vx6\x13\xcb\xac\xe0?'
p13
tp14
b(lp15
(lp16
cnumpy.core.multiarray
scalar
p17
(g10
S'>*r\xb1\x96\xa2\x98?'
p18
tp19
Rp20
ag17
(g10
S'Xmu\xc9\xcf\x90\xb0?'
p21
tp22
Rp23
aa(lp24
g17
(g10
S'Q\xaeF\x91\xbb\xab\xe0?'
p25
tp26
Rp27
ag17
(g10
S'\x9bB&\x95\xda\xad\xe0?'
p28
tp29
Rp30
aatp31
.