(cnumpy.core.multiarray
_reconstruct
p0
(cnumpy
ndarray
p1
(I0
tp2
S'b'
p3
tp4
Rp5
(I1
(I2
tp6
cnumpy
dtype
p7
(S'f8'
p8
I0
I1
tp9
Rp10
(I3
S'<'
p11
NNNI-1
I-1
I0
tp12
bI00
S'\t\xb2)\xfe^\xd2\x1a@\xf4\xc7L\xda\xa5W\xe0?'
p13
tp14
b(lp15
(lp16
cnumpy.core.multiarray
scalar
p17
(g10
S'b\xd7F\xb6\xe0\x95w\xc0'
p18
tp19
Rp20
ag17
(g10
S'\xf2$8\xaeslx@'
p21
tp22
Rp23
aa(lp24
g17
(g10
S'\x15\x12\xfe\xdf\x9aV\xe0?'
p25
tp26
Rp27
ag17
(g10
S'\xd3}\x9b\xd4\xb0X\xe0?'
p28
tp29
Rp30
aatp31
.