(cnumpy.core.multiarray
_reconstruct
p0
(cnumpy
ndarray
p1
(I0
tp2
S'b'
p3
tp4
Rp5
(I1
(I2
tp6
cnumpy
dtype
p7
(S'f8'
p8
I0
I1
tp9
Rp10
(I3
S'<'
p11
NNNI-1
I-1
I0
tp12
bI00
S'\xa0HI\xd22G\xa4?V\x91W\x8c5h\xe0?'
p13
tp14
b(lp15
(lp16
cnumpy.core.multiarray
scalar
p17
(g10
S'\xd9N\xe3X\x07\x00\x96?'
p18
tp19
Rp20
ag17
(g10
S'\xd4\xe9 \xf8a\x8e\xad?'
p21
tp22
Rp23
aa(lp24
g17
(g10
S'M\xb9\x02J%g\xe0?'
p25
tp26
Rp27
ag17
(g10
S'_i\xac\xceEi\xe0?'
p28
tp29
Rp30
aatp31
.