(cnumpy.core.multiarray
_reconstruct
p0
(cnumpy
ndarray
p1
(I0
tp2
S'b'
p3
tp4
Rp5
(I1
(I2
tp6
cnumpy
dtype
p7
(S'f8'
p8
I0
I1
tp9
Rp10
(I3
S'<'
p11
NNNI-1
I-1
I0
tp12
bI00
S'\x8f\xff\xbf\x82fO\xf3?q$\xbc[|\x8f\xe0?'
p13
tp14
b(lp15
(lp16
cnumpy.core.multiarray
scalar
p17
(g10
S'T\x0e4Ye\xc0\x01\xc0'
p18
tp19
Rp20
ag17
(g10
S'\xf2\x06\xfa\xed\xe5\x87\x12@'
p21
tp22
Rp23
aa(lp24
g17
(g10
S'6\x1d\x96lf\x8e\xe0?'
p25
tp26
Rp27
ag17
(g10
S'\xac+\xe2J\x92\x90\xe0?'
p28
tp29
Rp30
aatp31
.