(cnumpy.core.multiarray
_reconstruct
p0
(cnumpy
ndarray
p1
(I0
tp2
S'b'
p3
tp4
Rp5
(I1
(I2
tp6
cnumpy
dtype
p7
(S'f8'
p8
I0
I1
tp9
Rp10
(I3
S'<'
p11
NNNI-1
I-1
I0
tp12
bI00
S'\xa6\x8b\x1e/I\xcc\x15@\xbbm\xcd\x7f\xc8\x88\xe0?'
p13
tp14
b(lp15
(lp16
cnumpy.core.multiarray
scalar
p17
(g10
S'+ug\x15\xce\xb2i\xc0'
p18
tp19
Rp20
ag17
(g10
S'\xe5]Y\xa8\x92\x0fk@'
p21
tp22
Rp23
aa(lp24
g17
(g10
S'aR\x93q\x98\x87\xe0?'
p25
tp26
Rp27
ag17
(g10
S'\x15\x89\x07\x8e\xf8\x89\xe0?'
p28
tp29
Rp30
aatp31
.