(cnumpy.core.multiarray
_reconstruct
p0
(cnumpy
ndarray
p1
(I0
tp2
S'b'
p3
tp4
Rp5
(I1
(I2
tp6
cnumpy
dtype
p7
(S'f8'
p8
I0
I1
tp9
Rp10
(I3
S'<'
p11
NNNI-1
I-1
I0
tp12
bI00
S'c(\x04\xea\xa0%n?w\xb3\xc8\x9c\xba\xbf\xe0?'
p13
tp14
b(lp15
(lp16
cnumpy.core.multiarray
scalar
p17
(g10
S'W\xee\xf9\xbf\xbd\xf0\x81\xbf'
p18
tp19
Rp20
ag17
(g10
S'D\x01~\x1a\xc7\x81\x90?'
p21
tp22
Rp23
aa(lp24
g17
(g10
S'\x05{d\x83o\xbe\xe0?'
p25
tp26
Rp27
ag17
(g10
S'\xe9\xeb,\xb6\x05\xc1\xe0?'
p28
tp29
Rp30
aatp31
.