(cnumpy.core.multiarray
_reconstruct
p0
(cnumpy
ndarray
p1
(I0
tp2
S'b'
p3
tp4
Rp5
(I1
(I2
tp6
cnumpy
dtype
p7
(S'f8'
p8
I0
I1
tp9
Rp10
(I3
S'<'
p11
NNNI-1
I-1
I0
tp12
bI00
S'3\x04\xa4\xc8h:\xfe?6N\xf5\xdcWf\xe0?'
p13
tp14
b(lp15
(lp16
cnumpy.core.multiarray
scalar
p17
(g10
S'\xcfp\xb2\x9aL\xf1\x1f\xc0'
p18
tp19
Rp20
ag17
(g10
S"t9\x82\x7f@\x87'@"
p21
tp22
Rp23
aa(lp24
g17
(g10
S'\xe3\xa6M\xa5;e\xe0?'
p25
tp26
Rp27
ag17
(g10
S'\x89\xf5\x9c\x14tg\xe0?'
p28
tp29
Rp30
aatp31
.