(cnumpy.core.multiarray
_reconstruct
p0
(cnumpy
ndarray
p1
(I0
tp2
S'b'
p3
tp4
Rp5
(I1
(I2
tp6
cnumpy
dtype
p7
(S'f8'
p8
I0
I1
tp9
Rp10
(I3
S'<'
p11
NNNI-1
I-1
I0
tp12
bI00
S'\xc6\xf6H~\xd3V\xf4?\xdf\xb3\x7f\xbe\xf6~\xe0?'
p13
tp14
b(lp15
(lp16
cnumpy.core.multiarray
scalar
p17
(g10
S"'\xc51\x02\x14w\x05\xc0"
p18
tp19
Rp20
ag17
(g10
S'\xf6]=\xc0\xf3\xe6\x14@'
p21
tp22
Rp23
aa(lp24
g17
(g10
S']\xed\xd6\xcd\xd8}\xe0?'
p25
tp26
Rp27
ag17
(g10
S'az(\xaf\x14\x80\xe0?'
p28
tp29
Rp30
aatp31
.