(cnumpy.core.multiarray
_reconstruct
p0
(cnumpy
ndarray
p1
(I0
tp2
S'b'
p3
tp4
Rp5
(I1
(I2
tp6
cnumpy
dtype
p7
(S'f8'
p8
I0
I1
tp9
Rp10
(I3
S'<'
p11
NNNI-1
I-1
I0
tp12
bI00
S'A\xeer3+\xf5\xda?\x0f\xe1\x9c\xef\xfe\x96\xe0?'
p13
tp14
b(lp15
(lp16
cnumpy.core.multiarray
scalar
p17
(g10
S'\xc4\xea\x88\xd8\xf8\x1a\xbc\xbf'
p18
tp19
Rp20
ag17
(g10
S'\x9a\x0b\x84N\x8ax\xee?'
p21
tp22
Rp23
aa(lp24
g17
(g10
S'+c\xafu\xcd\x95\xe0?'
p25
tp26
Rp27
ag17
(g10
S'\xf3^\x8ai0\x98\xe0?'
p28
tp29
Rp30
aatp31
.