(cnumpy.core.multiarray
_reconstruct
p0
(cnumpy
ndarray
p1
(I0
tp2
S'b'
p3
tp4
Rp5
(I1
(I2
tp6
cnumpy
dtype
p7
(S'f8'
p8
I0
I1
tp9
Rp10
(I3
S'<'
p11
NNNI-1
I-1
I0
tp12
bI00
S'H\x80L4\x08\xee\xeb?\x8f\xbf\xb3Si\x83\xe0?'
p13
tp14
b(lp15
(lp16
cnumpy.core.multiarray
scalar
p17
(g10
S'(\r0)\xe1d\xf2\xbf'
p18
tp19
Rp20
ag17
(g10
S'\xb8F\xbe\xaet)\x07@'
p21
tp22
Rp23
aa(lp24
g17
(g10
S'\xe0\x81\x8eDJ\x82\xe0?'
p25
tp26
Rp27
ag17
(g10
S'>\xfd\xd8b\x88\x84\xe0?'
p28
tp29
Rp30
aatp31
.