(cnumpy.core.multiarray
_reconstruct
p0
(cnumpy
ndarray
p1
(I0
tp2
S'b'
p3
tp4
Rp5
(I1
(I2
tp6
cnumpy
dtype
p7
(S'f8'
p8
I0
I1
tp9
Rp10
(I3
S'<'
p11
NNNI-1
I-1
I0
tp12
bI00
S'\x8e\n\xc6.\xdd\xac\xfa?h\x07\xcc\x0e\xb8x\xe0?'
p13
tp14
b(lp15
(lp16
cnumpy.core.multiarray
scalar
p17
(g10
S'\xecQ\xa6$\x86\x87\x14\xc0'
p18
tp19
Rp20
ag17
(g10
S'\x9a\xab\x04^\xfa\xee @'
p21
tp22
Rp23
aa(lp24
g17
(g10
S'-;\xb8\x18\xaew\xe0?'
p25
tp26
Rp27
ag17
(g10
S'\xa3\xd3\xdf\x04\xc2y\xe0?'
p28
tp29
Rp30
aatp31
.