(cnumpy.core.multiarray
_reconstruct
p0
(cnumpy
ndarray
p1
(I0
tp2
S'b'
p3
tp4
Rp5
(I1
(I2
tp6
cnumpy
dtype
p7
(S'f8'
p8
I0
I1
tp9
Rp10
(I3
S'<'
p11
NNNI-1
I-1
I0
tp12
bI00
S'\x12{\xad\xe9U\xb8\x15@\xf7K`\x17\xc6\xdb\xe0?'
p13
tp14
b(lp15
(lp16
cnumpy.core.multiarray
scalar
p17
(g10
S'\x87\x18\x14\xa2\x89\x1fh\xc0'
p18
tp19
Rp20
ag17
(g10
S'9\xf0\xae\x00\x0f{i@'
p21
tp22
Rp23
aa(lp24
g17
(g10
S'\xd8v\x7f\xd5\xaa\xda\xe0?'
p25
tp26
Rp27
ag17
(g10
S'\x16!AY\xe1\xdc\xe0?'
p28
tp29
Rp30
aatp31
.