(cnumpy.core.multiarray
_reconstruct
p0
(cnumpy
ndarray
p1
(I0
tp2
S'b'
p3
tp4
Rp5
(I1
(I2
tp6
cnumpy
dtype
p7
(S'f8'
p8
I0
I1
tp9
Rp10
(I3
S'<'
p11
NNNI-1
I-1
I0
tp12
bI00
S'\x1c\x1b\x16\x11H \xc8?2s\xe1\x83<\xbe\xe0?'
p13
tp14
b(lp15
(lp16
cnumpy.core.multiarray
scalar
p17
(g10
S'\xccMT\xbd\x06\xe1\xaf?'
p18
tp19
Rp20
ag17
(g10
S"b\x91k9'$\xd4?"
p21
tp22
Rp23
aa(lp24
g17
(g10
S'\xbe\x17\x9d\xe9!\xbd\xe0?'
p25
tp26
Rp27
ag17
(g10
S'\xa6\xce%\x1eW\xbf\xe0?'
p28
tp29
Rp30
aatp31
.