(cnumpy.core.multiarray
_reconstruct
p0
(cnumpy
ndarray
p1
(I0
tp2
S'b'
p3
tp4
Rp5
(I1
(I2
tp6
cnumpy
dtype
p7
(S'f8'
p8
I0
I1
tp9
Rp10
(I3
S'<'
p11
NNNI-1
I-1
I0
tp12
bI00
S"M]\xd6\x08'\xd9\xff?\x9b\xaf:2\x8fQ\xe0?"
p13
tp14
b(lp15
(lp16
cnumpy.core.multiarray
scalar
p17
(g10
S'x+4\xf0\x04\xbc\xfb?'
p18
tp19
Rp20
ag17
(g10
S'\x91G\xbc\x90$\xfb\x01@'
p21
tp22
Rp23
aa(lp24
g17
(g10
S'@\xa9\xc9;mP\xe0?'
p25
tp26
Rp27
ag17
(g10
S'\xf6\xb5\xab(\xb1R\xe0?'
p28
tp29
Rp30
aatp31
.