(cnumpy.core.multiarray
_reconstruct
p0
(cnumpy
ndarray
p1
(I0
tp2
S'b'
p3
tp4
Rp5
(I1
(I2
tp6
cnumpy
dtype
p7
(S'f8'
p8
I0
I1
tp9
Rp10
(I3
S'<'
p11
NNNI-1
I-1
I0
tp12
bI00
S'\xf8\xd1C\xe4O\x0e\x1b@\x9b\x12\xe4%\xd3{\xe0?'
p13
tp14
b(lp15
(lp16
cnumpy.core.multiarray
scalar
p17
(g10
S'\xa5\xc5C\xeb$&z\xc0'
p18
tp19
Rp20
ag17
(g10
S'5\xe4ej\x97\xfez@'
p21
tp22
Rp23
aa(lp24
g17
(g10
S'\xadV\xd0\xdf\xb7z\xe0?'
p25
tp26
Rp27
ag17
(g10
S'\x89\xce\xf7k\xee|\xe0?'
p28
tp29
Rp30
aatp31
.