(cnumpy.core.multiarray
_reconstruct
p0
(cnumpy
ndarray
p1
(I0
tp2
S'b'
p3
tp4
Rp5
(I1
(I2
tp6
cnumpy
dtype
p7
(S'f8'
p8
I0
I1
tp9
Rp10
(I3
S'<'
p11
NNNI-1
I-1
I0
tp12
bI00
S'\xa9\xad\xdc[\x18\xd2\xd7?;t\x03\xdd\x96y\xe0?'
p13
tp14
b(lp15
(lp16
cnumpy.core.multiarray
scalar
p17
(g10
S'\xee\x10\xb4SY\xad\xc4\xbf'
p18
tp19
Rp20
ag17
(g10
S'\xe4\xb1\xc9\xb0n\xfd\xec?'
p21
tp22
Rp23
aa(lp24
g17
(g10
S'a\x8a\xb4\x85\x81x\xe0?'
p25
tp26
Rp27
ag17
(g10
S'\x15^R4\xacz\xe0?'
p28
tp29
Rp30
aatp31
.