(cnumpy.core.multiarray
_reconstruct
p0
(cnumpy
ndarray
p1
(I0
tp2
S'b'
p3
tp4
Rp5
(I1
(I2
tp6
cnumpy
dtype
p7
(S'f8'
p8
I0
I1
tp9
Rp10
(I3
S'<'
p11
NNNI-1
I-1
I0
tp12
bI00
S'\xc9\xaf\xb0\x8e\xaf\xa7\xfc?\x00\xd5K\xb0F]\xe0?'
p13
tp14
b(lp15
(lp16
cnumpy.core.multiarray
scalar
p17
(g10
S'hm\x89\xfe\x89\xa7\x1a\xc0'
p18
tp19
Rp20
ag17
(g10
S'\xa6\xe2\xf0\xe2\xb0}$@'
p21
tp22
Rp23
aa(lp24
g17
(g10
S'\xf9V\xe7\xd4.\\\xe0?'
p25
tp26
Rp27
ag17
(g10
S'\x07S\xb0\x8b^^\xe0?'
p28
tp29
Rp30
aatp31
.