(cnumpy.core.multiarray
_reconstruct
p0
(cnumpy
ndarray
p1
(I0
tp2
S'b'
p3
tp4
Rp5
(I1
(I2
tp6
cnumpy
dtype
p7
(S'f8'
p8
I0
I1
tp9
Rp10
(I3
S'<'
p11
NNNI-1
I-1
I0
tp12
bI00
S'I\xf6\xad|RR\x0e@\xc3\x9d\xa9\x8e\x97\xaa\xe0?'
p13
tp14
b(lp15
(lp16
cnumpy.core.multiarray
scalar
p17
(g10
S's\xff\x0f\xb9\xf29N\xc0'
p18
tp19
Rp20
ag17
(g10
S'\x1e\xdfR\x84\x1e\x02Q@'
p21
tp22
Rp23
aa(lp24
g17
(g10
S'/M\x89\x99z\xa9\xe0?'
p25
tp26
Rp27
ag17
(g10
S'W\xee\xc9\x83\xb4\xab\xe0?'
p28
tp29
Rp30
aatp31
.