(cnumpy.core.multiarray
_reconstruct
p0
(cnumpy
ndarray
p1
(I0
tp2
S'b'
p3
tp4
Rp5
(I1
(I2
tp6
cnumpy
dtype
p7
(S'f8'
p8
I0
I1
tp9
Rp10
(I3
S'<'
p11
NNNI-1
I-1
I0
tp12
bI00
S'\xc8\xb0\xa2nBU\xc2?\x05\xd2\x91\x0e.\xb0\xe0?'
p13
tp14
b(lp15
(lp16
cnumpy.core.multiarray
scalar
p17
(g10
S'\xe0\x18\x85\x16$F\x8a?'
p18
tp19
Rp20
ag17
(g10
S'\x01\x88\xeeM\x11\x83\xd1?'
p21
tp22
Rp23
aa(lp24
g17
(g10
S'\xc3\x08\xee\xf5\x02\xaf\xe0?'
p25
tp26
Rp27
ag17
(g10
S"G\x9b5'Y\xb1\xe0?"
p28
tp29
Rp30
aatp31
.