(cnumpy.core.multiarray
_reconstruct
p0
(cnumpy
ndarray
p1
(I0
tp2
S'b'
p3
tp4
Rp5
(I1
(I2
tp6
cnumpy
dtype
p7
(S'f8'
p8
I0
I1
tp9
Rp10
(I3
S'<'
p11
NNNI-1
I-1
I0
tp12
bI00
S'\x8f\xce\xa8\x8f\x98k\xeb?\x82\xa3o!\xe6\xa3\xe0?'
p13
tp14
b(lp15
(lp16
cnumpy.core.multiarray
scalar
p17
(g10
S'\x14\x18^\xb6\x15[\xfd\xbf'
p18
tp19
Rp20
ag17
(g10
S'Rs\x03#Wc\x0c@'
p21
tp22
Rp23
aa(lp24
g17
(g10
S'\xa0\xb2\x8e\x87\xb3\xa2\xe0?'
p25
tp26
Rp27
ag17
(g10
S'd\x94P\xbb\x18\xa5\xe0?'
p28
tp29
Rp30
aatp31
.