(cnumpy.core.multiarray
_reconstruct
p0
(cnumpy
ndarray
p1
(I0
tp2
S'b'
p3
tp4
Rp5
(I1
(I2
tp6
cnumpy
dtype
p7
(S'f8'
p8
I0
I1
tp9
Rp10
(I3
S'<'
p11
NNNI-1
I-1
I0
tp12
bI00
S'\xbf\xda3O\xd8\xec\xc3?A\x01\x92\xb3R\x92\xe0?'
p13
tp14
b(lp15
(lp16
cnumpy.core.multiarray
scalar
p17
(g10
S'\x10[s\xd1\xc3\xe0\xa9?'
p18
tp19
Rp20
ag17
(g10
S']o\x05\xd5\xbf\xb0\xd0?'
p21
tp22
Rp23
aa(lp24
g17
(g10
S'\xd1,bO\x16\x91\xe0?'
p25
tp26
Rp27
ag17
(g10
S'\xb1\xd5\xc1\x17\x8f\x93\xe0?'
p28
tp29
Rp30
aatp31
.