(cnumpy.core.multiarray
_reconstruct
p0
(cnumpy
ndarray
p1
(I0
tp2
S'b'
p3
tp4
Rp5
(I1
(I2
tp6
cnumpy
dtype
p7
(S'f8'
p8
I0
I1
tp9
Rp10
(I3
S'<'
p11
NNNI-1
I-1
I0
tp12
bI00
S'*\x02\x03\xdd\xb3\xf2\x1d@\x00\x145(\xe7\xeb\xe0?'
p13
tp14
b(lp15
(lp16
cnumpy.core.multiarray
scalar
p17
(g10
S':;\xecY\x8f\x9b\x83\xc0'
p18
tp19
Rp20
ag17
(g10
S'BG`)Z\x13\x84@'
p21
tp22
Rp23
aa(lp24
g17
(g10
S'\xda\x83\x87s\xd5\xea\xe0?'
p25
tp26
Rp27
ag17
(g10
S'&\xa4\xe2\xdc\xf8\xec\xe0?'
p28
tp29
Rp30
aatp31
.