(cnumpy.core.multiarray
_reconstruct
p0
(cnumpy
ndarray
p1
(I0
tp2
S'b'
p3
tp4
Rp5
(I1
(I2
tp6
cnumpy
dtype
p7
(S'f8'
p8
I0
I1
tp9
Rp10
(I3
S'<'
p11
NNNI-1
I-1
I0
tp12
bI00
S'3\xdcy~P\xdd\xc0?\xb6\xf5\x88\x1f$\xbf\xe0?'
p13
tp14
b(lp15
(lp16
cnumpy.core.multiarray
scalar
p17
(g10
S'n\xf7\xd2\xf0\xf8~\xaa?'
p18
tp19
Rp20
ag17
(g10
S'\x8a\xfa\xbe\xc0\xe2\x1a\xcb?'
p21
tp22
Rp23
aa(lp24
g17
(g10
S'\xe0\x87\x97J\xf6\xbd\xe0?'
p25
tp26
Rp27
ag17
(g10
S'\x8ccz\xf4Q\xc0\xe0?'
p28
tp29
Rp30
aatp31
.