(cnumpy.core.multiarray
_reconstruct
p0
(cnumpy
ndarray
p1
(I0
tp2
S'b'
p3
tp4
Rp5
(I1
(I2
tp6
cnumpy
dtype
p7
(S'f8'
p8
I0
I1
tp9
Rp10
(I3
S'<'
p11
NNNI-1
I-1
I0
tp12
bI00
S'\xa9\x1d\xc8\x10\x8a\x89\x1c@\xfb\xdc\xd4\xbc\xa8\xdd\xe0?'
p13
tp14
b(lp15
(lp16
cnumpy.core.multiarray
scalar
p17
(g10
S'\xd5\x15\x00)\xd6E\x80\xc0'
p18
tp19
Rp20
ag17
(g10
S'K6CQ\xfc\xb7\x80@'
p21
tp22
Rp23
aa(lp24
g17
(g10
S'\rH\x87o\x92\xdc\xe0?'
p25
tp26
Rp27
ag17
(g10
S'\xe9q"\n\xbf\xde\xe0?'
p28
tp29
Rp30
aatp31
.