(cnumpy.core.multiarray
_reconstruct
p0
(cnumpy
ndarray
p1
(I0
tp2
S'b'
p3
tp4
Rp5
(I1
(I2
tp6
cnumpy
dtype
p7
(S'f8'
p8
I0
I1
tp9
Rp10
(I3
S'<'
p11
NNNI-1
I-1
I0
tp12
bI00
S'I\x92\x13 ?H\xc0?y\xc9\\\x06c\x82\xe0?'
p13
tp14
b(lp15
(lp16
cnumpy.core.multiarray
scalar
p17
(g10
S'\xb6a\x15\x86\x93\xd5\xa6?'
p18
tp19
Rp20
ag17
(g10
S'$\xcc\xa1^\x19\xdb\xca?'
p21
tp22
Rp23
aa(lp24
g17
(g10
S'\x9fe\x9b6)\x81\xe0?'
p25
tp26
Rp27
ag17
(g10
S'S-\x1e\xd6\x9c\x83\xe0?'
p28
tp29
Rp30
aatp31
.