(cnumpy.core.multiarray
_reconstruct
p0
(cnumpy
ndarray
p1
(I0
tp2
S'b'
p3
tp4
Rp5
(I1
(I2
tp6
cnumpy
dtype
p7
(S'f8'
p8
I0
I1
tp9
Rp10
(I3
S'<'
p11
NNNI-1
I-1
I0
tp12
bI00
S'WU\xa3\xd9\xc5&\xe2?M%%\x95H\xc2\xe0?'
p13
tp14
b(lp15
(lp16
cnumpy.core.multiarray
scalar
p17
(g10
S'X\xf03\xe4\xdc\x91\xce\xbf'
p18
tp19
Rp20
ag17
(g10
S'b\xd3)v\x01\xf9\xf5?'
p21
tp22
Rp23
aa(lp24
g17
(g10
S'\x8f/\xd3\\1\xc1\xe0?'
p25
tp26
Rp27
ag17
(g10
S'\x0b\x1bw\xcd_\xc3\xe0?'
p28
tp29
Rp30
aatp31
.