(cnumpy.core.multiarray
_reconstruct
p0
(cnumpy
ndarray
p1
(I0
tp2
S'b'
p3
tp4
Rp5
(I1
(I2
tp6
cnumpy
dtype
p7
(S'f8'
p8
I0
I1
tp9
Rp10
(I3
S'<'
p11
NNNI-1
I-1
I0
tp12
bI00
S'\x07\xf2\x0cf[B\xf6?zC\xf4\x84\t\xef\xe0?'
p13
tp14
b(lp15
(lp16
cnumpy.core.multiarray
scalar
p17
(g10
S'\xb46X\x9d\xe7\xe6\x0e\xc0'
p18
tp19
Rp20
ag17
(g10
S'^\x94\xb2\x81\xa1\x94\x1a@'
p21
tp22
Rp23
aa(lp24
g17
(g10
S'P\xb2lh\xe0\xed\xe0?'
p25
tp26
Rp27
ag17
(g10
S'\xa4\xd4{\xa12\xf0\xe0?'
p28
tp29
Rp30
aatp31
.