(cnumpy.core.multiarray
_reconstruct
p0
(cnumpy
ndarray
p1
(I0
tp2
S'b'
p3
tp4
Rp5
(I1
(I2
tp6
cnumpy
dtype
p7
(S'f8'
p8
I0
I1
tp9
Rp10
(I3
S'<'
p11
NNNI-1
I-1
I0
tp12
bI00
S'\xed\x9eD\x04\x81\xc9\x08@\xb9\x024\x00a\x1b\xe1?'
p13
tp14
b(lp15
(lp16
cnumpy.core.multiarray
scalar
p17
(g10
S'\x804\x95\x9a:`B\xc0'
p18
tp19
Rp20
ag17
(g10
S'^\xc8\x1d\xbbjyE@'
p21
tp22
Rp23
aa(lp24
g17
(g10
S'\xb1\x12\x95\xd60\x1a\xe1?'
p25
tp26
Rp27
ag17
(g10
S'\xc1\xf2\xd2)\x91\x1c\xe1?'
p28
tp29
Rp30
aatp31
.