(cnumpy.core.multiarray
_reconstruct
p0
(cnumpy
ndarray
p1
(I0
tp2
S'b'
p3
tp4
Rp5
(I1
(I2
tp6
cnumpy
dtype
p7
(S'f8'
p8
I0
I1
tp9
Rp10
(I3
S'<'
p11
NNNI-1
I-1
I0
tp12
bI00
S'\x19\xc5d\xea\xf0\xf4\xf0?\x93\xa6\xf3Y\xecX\xe0?'
p13
tp14
b(lp15
(lp16
cnumpy.core.multiarray
scalar
p17
(g10
S'w\x01\x05\xc0\\\xfe\xf6\xbf'
p18
tp19
Rp20
ag17
(g10
S'\xd4EgJ\x1ft\x0c@'
p21
tp22
Rp23
aa(lp24
g17
(g10
S'Ml\x86\xd8\xdcW\xe0?'
p25
tp26
Rp27
ag17
(g10
S'\xd9\xe0`\xdb\xfbY\xe0?'
p28
tp29
Rp30
aatp31
.