(cnumpy.core.multiarray
_reconstruct
p0
(cnumpy
ndarray
p1
(I0
tp2
S'b'
p3
tp4
Rp5
(I1
(I2
tp6
cnumpy
dtype
p7
(S'f8'
p8
I0
I1
tp9
Rp10
(I3
S'<'
p11
NNNI-1
I-1
I0
tp12
bI00
S'.f\xcaI\xca\xef\xbd?\xc7<-\xb6\xb7\x8e\xe0?'
p13
tp14
b(lp15
(lp16
cnumpy.core.multiarray
scalar
p17
(g10
S'\xb2\r6E\xa2\x14\xab?'
p18
tp19
Rp20
ag17
(g10
S'\xc2\xe2|\xb8\xa1*\xc7?'
p21
tp22
Rp23
aa(lp24
g17
(g10
S'rS~\x83\x97\x8d\xe0?'
p25
tp26
Rp27
ag17
(g10
S'\x1c&\xdc\xe8\xd7\x8f\xe0?'
p28
tp29
Rp30
aatp31
.