(cnumpy.core.multiarray
_reconstruct
p0
(cnumpy
ndarray
p1
(I0
tp2
S'b'
p3
tp4
Rp5
(I1
(I2
tp6
cnumpy
dtype
p7
(S'f8'
p8
I0
I1
tp9
Rp10
(I3
S'<'
p11
NNNI-1
I-1
I0
tp12
bI00
S'\xd3\xd9\xb2\x1f+\xbd\t@\xc0\x96\xc0lH\x83\xe0?'
p13
tp14
b(lp15
(lp16
cnumpy.core.multiarray
scalar
p17
(g10
S'\xb9"\x0e\x99s\x06B\xc0'
p18
tp19
Rp20
ag17
(g10
S'\xf3}\x04\xfd\x18>E@'
p21
tp22
Rp23
aa(lp24
g17
(g10
S'<\xc9j\xa2/\x82\xe0?'
p25
tp26
Rp27
ag17
(g10
S'Dd\x167a\x84\xe0?'
p28
tp29
Rp30
aatp31
.