(cnumpy.core.multiarray
_reconstruct
p0
(cnumpy
ndarray
p1
(I0
tp2
S'b'
p3
tp4
Rp5
(I1
(I2
tp6
cnumpy
dtype
p7
(S'f8'
p8
I0
I1
tp9
Rp10
(I3
S'<'
p11
NNNI-1
I-1
I0
tp12
bI00
S'\x02\x11\x17\xc3\xe0\xf6\xd7?\x85&],\xe8y\xe0?'
p13
tp14
b(lp15
(lp16
cnumpy.core.multiarray
scalar
p17
(g10
S'\xc0\x1c\xb4\x8er\x04\x85\xbf'
p18
tp19
Rp20
ag17
(g10
S'u\xe1Q\x8d\xf2J\xe8?'
p21
tp22
Rp23
aa(lp24
g17
(g10
S'\x9d1\xa06\xc9x\xe0?'
p25
tp26
Rp27
ag17
(g10
S'm\x1b\x1a"\x07{\xe0?'
p28
tp29
Rp30
aatp31
.