(cnumpy.core.multiarray
_reconstruct
p0
(cnumpy
ndarray
p1
(I0
tp2
S'b'
p3
tp4
Rp5
(I1
(I2
tp6
cnumpy
dtype
p7
(S'f8'
p8
I0
I1
tp9
Rp10
(I3
S'<'
p11
NNNI-1
I-1
I0
tp12
bI00
S'\xea:\x8cg\x86?\x1d@8\xb1@\xd2\x81`\xe0?'
p13
tp14
b(lp15
(lp16
cnumpy.core.multiarray
scalar
p17
(g10
S'a\x9e\x8d{\xda\x9a\x81\xc0'
p18
tp19
Rp20
ag17
(g10
S'M\xcf+\x95\xd8\x0f\x82@'
p21
tp22
Rp23
aa(lp24
g17
(g10
S'\xda\xbc3Fh_\xe0?'
p25
tp26
Rp27
ag17
(g10
S'\x96\xa5M^\x9ba\xe0?'
p28
tp29
Rp30
aatp31
.