(cnumpy.core.multiarray
_reconstruct
p0
(cnumpy
ndarray
p1
(I0
tp2
S'b'
p3
tp4
Rp5
(I1
(I2
tp6
cnumpy
dtype
p7
(S'f8'
p8
I0
I1
tp9
Rp10
(I3
S'<'
p11
NNNI-1
I-1
I0
tp12
bI00
S'\xd5;\x86<\xcb,\x02@P\xb0/\x80\x19\xb0\xe0?'
p13
tp14
b(lp15
(lp16
cnumpy.core.multiarray
scalar
p17
(g10
S'\xbc.$\xfc\xdaq2\xc0'
p18
tp19
Rp20
ag17
(g10
S'\xb2\xbdE\xcb\r\xfd6@'
p21
tp22
Rp23
aa(lp24
g17
(g10
S'\x89\xb3l\xa6\xff\xae\xe0?'
p25
tp26
Rp27
ag17
(g10
S'\x17\xad\xf2Y3\xb1\xe0?'
p28
tp29
Rp30
aatp31
.