(cnumpy.core.multiarray
_reconstruct
p0
(cnumpy
ndarray
p1
(I0
tp2
S'b'
p3
tp4
Rp5
(I1
(I2
tp6
cnumpy
dtype
p7
(S'f8'
p8
I0
I1
tp9
Rp10
(I3
S'<'
p11
NNNI-1
I-1
I0
tp12
bI00
S'\xb0\xf5&S\x06\xb1\x03@\xcd\xfb\xf4\x1b\x81\xe9\xe0?'
p13
tp14
b(lp15
(lp16
cnumpy.core.multiarray
scalar
p17
(g10
S'\xab\xe8G$\x04\xb31\xc0'
p18
tp19
Rp20
ag17
(g10
S'\x17\xa6\x11\xb9E\x9f6@'
p21
tp22
Rp23
aa(lp24
g17
(g10
S'\x91=J\xc5g\xe8\xe0?'
p25
tp26
Rp27
ag17
(g10
S'\t\xba\x9fr\x9a\xea\xe0?'
p28
tp29
Rp30
aatp31
.