(cnumpy.core.multiarray
_reconstruct
p0
(cnumpy
ndarray
p1
(I0
tp2
S'b'
p3
tp4
Rp5
(I1
(I2
tp6
cnumpy
dtype
p7
(S'f8'
p8
I0
I1
tp9
Rp10
(I3
S'<'
p11
NNNI-1
I-1
I0
tp12
bI00
S'x\xd2rY\x9d\n)@m\xd3\xe5a\x0bY\xe0?'
p13
tp14
b(lp15
(lp16
cnumpy.core.multiarray
scalar
p17
(g10
S'x\xd2rY\x9d\n)@'
p18
tp19
Rp20
ag17
(g10
S'x\xd2rY\x9d\n)@'
p21
tp22
Rp23
aa(lp24
g17
(g10
S'\x03"D0\xf8W\xe0?'
p25
tp26
Rp27
ag17
(g10
S'\xd7\x84\x87\x93\x1eZ\xe0?'
p28
tp29
Rp30
aatp31
.