(cnumpy.core.multiarray
_reconstruct
p0
(cnumpy
ndarray
p1
(I0
tp2
S'b'
p3
tp4
Rp5
(I1
(I2
tp6
cnumpy
dtype
p7
(S'f8'
p8
I0
I1
tp9
Rp10
(I3
S'<'
p11
NNNI-1
I-1
I0
tp12
bI00
S'\x8f\xcd\x0c\xd6\x94\x1c\xfd?@\xd1\xff\x12\xfcv\xe0?'
p13
tp14
b(lp15
(lp16
cnumpy.core.multiarray
scalar
p17
(g10
S'H\x1d\x97\xb9E?\x1c\xc0'
p18
tp19
Rp20
ag17
(g10
S'\x08\xc2N\x12\xc8f%@'
p21
tp22
Rp23
aa(lp24
g17
(g10
S'\xd4&\x1eZ\xe5u\xe0?'
p25
tp26
Rp27
ag17
(g10
S'\xac{\xe1\xcb\x12x\xe0?'
p28
tp29
Rp30
aatp31
.