(cnumpy.core.multiarray
_reconstruct
p0
(cnumpy
ndarray
p1
(I0
tp2
S'b'
p3
tp4
Rp5
(I1
(I2
tp6
cnumpy
dtype
p7
(S'f8'
p8
I0
I1
tp9
Rp10
(I3
S'<'
p11
NNNI-1
I-1
I0
tp12
bI00
S'\xc4\xb3\xab\xdf\xf9\xba\xc9?\xf6b\x8bXAr\xe1?'
p13
tp14
b(lp15
(lp16
cnumpy.core.multiarray
scalar
p17
(g10
S'4m\xcd\xde\xdc{\xb3\xbf'
p18
tp19
Rp20
ag17
(g10
S'\x11\x0f_\x17\xf1\x99\xde?'
p21
tp22
Rp23
aa(lp24
g17
(g10
S'\x8d$\x88\x9c\xd2p\xe1?'
p25
tp26
Rp27
ag17
(g10
S'_\xa1\x8e\x14\xb0s\xe1?'
p28
tp29
Rp30
aatp31
.