(cnumpy.core.multiarray
_reconstruct
p0
(cnumpy
ndarray
p1
(I0
tp2
S'b'
p3
tp4
Rp5
(I1
(I2
tp6
cnumpy
dtype
p7
(S'f8'
p8
I0
I1
tp9
Rp10
(I3
S'<'
p11
NNNI-1
I-1
I0
tp12
bI00
S'h\x8e\x17\xfc\xc6\xee\x99?p\xa8&\xc9\xfe\x91\xe0?'
p13
tp14
b(lp15
(lp16
cnumpy.core.multiarray
scalar
p17
(g10
S'`I\x1dG\xc6\x13s?'
p18
tp19
Rp20
ag17
(g10
S'<\xe533N\x8c\xa7?'
p21
tp22
Rp23
aa(lp24
g17
(g10
S'\x96=\xac\x9b\xde\x90\xe0?'
p25
tp26
Rp27
ag17
(g10
S'J\x13\xa1\xf6\x1e\x93\xe0?'
p28
tp29
Rp30
aatp31
.