(cnumpy.core.multiarray
_reconstruct
p0
(cnumpy
ndarray
p1
(I0
tp2
S'b'
p3
tp4
Rp5
(I1
(I2
tp6
cnumpy
dtype
p7
(S'f8'
p8
I0
I1
tp9
Rp10
(I3
S'<'
p11
NNNI-1
I-1
I0
tp12
bI00
S'"+^@i\x87\xf1?4\xb5\x8e\x19y\x9a\xe0?'
p13
tp14
b(lp15
(lp16
cnumpy.core.multiarray
scalar
p17
(g10
S'\x89\xc9\xc2\x16\x9cR\x08\xc0'
p18
tp19
Rp20
ag17
(g10
S'Vz\x90\xab\x02\xed\x14@'
p21
tp22
Rp23
aa(lp24
g17
(g10
S'\xbfp\xf3\xc7W\x99\xe0?'
p25
tp26
Rp27
ag17
(g10
S'\xa9\xf9)k\x9a\x9b\xe0?'
p28
tp29
Rp30
aatp31
.