(cnumpy.core.multiarray
_reconstruct
p0
(cnumpy
ndarray
p1
(I0
tp2
S'b'
p3
tp4
Rp5
(I1
(I2
tp6
cnumpy
dtype
p7
(S'f8'
p8
I0
I1
tp9
Rp10
(I3
S'<'
p11
NNNI-1
I-1
I0
tp12
bI00
S'x0_9\t\xcc\x15@[&$j\xd3\x82\xe0?'
p13
tp14
b(lp15
(lp16
cnumpy.core.multiarray
scalar
p17
(g10
S'\xfc\xde\xd82\xbc\xf1e\xc0'
p18
tp19
Rp20
ag17
(g10
S'\x04\xd2n\xc6|Ng@'
p21
tp22
Rp23
aa(lp24
g17
(g10
S' \x864b\xce\x81\xe0?'
p25
tp26
Rp27
ag17
(g10
S'\x96\xc6\x13r\xd8\x83\xe0?'
p28
tp29
Rp30
aatp31
.