(cnumpy.core.multiarray
_reconstruct
p0
(cnumpy
ndarray
p1
(I0
tp2
S'b'
p3
tp4
Rp5
(I1
(I2
tp6
cnumpy
dtype
p7
(S'f8'
p8
I0
I1
tp9
Rp10
(I3
S'<'
p11
NNNI-1
I-1
I0
tp12
bI00
S'"\xd4\x87+/`\xd9?\xf6t\xaf\xdc\t\xe5\xe0?'
p13
tp14
b(lp15
(lp16
cnumpy.core.multiarray
scalar
p17
(g10
S'\xa0\x18\xc7U\xb2\xce\xaa\xbf'
p18
tp19
Rp20
ag17
(g10
S'\xacE\xe4P\x1a\r\xeb?'
p21
tp22
Rp23
aa(lp24
g17
(g10
S'\xb3/\x1c\xef\xe1\xe3\xe0?'
p25
tp26
Rp27
ag17
(g10
S'9\xbaB\xca1\xe6\xe0?'
p28
tp29
Rp30
aatp31
.