(cnumpy.core.multiarray
_reconstruct
p0
(cnumpy
ndarray
p1
(I0
tp2
S'b'
p3
tp4
Rp5
(I1
(I2
tp6
cnumpy
dtype
p7
(S'f8'
p8
I0
I1
tp9
Rp10
(I3
S'<'
p11
NNNI-1
I-1
I0
tp12
bI00
S'v\xc4G\xa1\xb9\xe8z?\xbc\x8b\xee\xa7[\xd1\xe0?'
p13
tp14
b(lp15
(lp16
cnumpy.core.multiarray
scalar
p17
(g10
S'\xa8\x83\xbe>=$Y\xbf'
p18
tp19
Rp20
ag17
(g10
S'\xeb\x94\x1fIA\r\x8e?'
p21
tp22
Rp23
aa(lp24
g17
(g10
S'\xf4\xf6\x04;9\xd0\xe0?'
p25
tp26
Rp27
ag17
(g10
S'\x84 \xd8\x14~\xd2\xe0?'
p28
tp29
Rp30
aatp31
.