(cnumpy.core.multiarray
_reconstruct
p0
(cnumpy
ndarray
p1
(I0
tp2
S'b'
p3
tp4
Rp5
(I1
(I2
tp6
cnumpy
dtype
p7
(S'f8'
p8
I0
I1
tp9
Rp10
(I3
S'<'
p11
NNNI-1
I-1
I0
tp12
bI00
S'\xe3ze\xbf\xe4\x88\x92?\x8fHz\x99\x13\xdd\xe0?'
p13
tp14
b(lp15
(lp16
cnumpy.core.multiarray
scalar
p17
(g10
S'\xd4\xb7N\xce\x15\xa8{?'
p18
tp19
Rp20
ag17
(g10
S"\xd1G7\x0b\xc4'\x9e?"
p21
tp22
Rp23
aa(lp24
g17
(g10
S'\x0f\xbdL\xc0\xf9\xdb\xe0?'
p25
tp26
Rp27
ag17
(g10
S'\x0f\xd4\xa7r-\xde\xe0?'
p28
tp29
Rp30
aatp31
.