(cnumpy.core.multiarray
_reconstruct
p0
(cnumpy
ndarray
p1
(I0
tp2
S'b'
p3
tp4
Rp5
(I1
(I2
tp6
cnumpy
dtype
p7
(S'f8'
p8
I0
I1
tp9
Rp10
(I3
S'<'
p11
NNNI-1
I-1
I0
tp12
bI00
S'\xe7\x9f#J["\xeb?\xfa\xb2?u\x12v\xe0?'
p13
tp14
b(lp15
(lp16
cnumpy.core.multiarray
scalar
p17
(g10
S'?\x82\xc8>\xe3\x10\xec\xbf'
p18
tp19
Rp20
ag17
(g10
S'\x83\xf0\xc3tf\x95\x04@'
p21
tp22
Rp23
aa(lp24
g17
(g10
S'\xaa\x0fM\xad\xedt\xe0?'
p25
tp26
Rp27
ag17
(g10
S'JV2=7w\xe0?'
p28
tp29
Rp30
aatp31
.