(cnumpy.core.multiarray
_reconstruct
p0
(cnumpy
ndarray
p1
(I0
tp2
S'b'
p3
tp4
Rp5
(I1
(I2
tp6
cnumpy
dtype
p7
(S'f8'
p8
I0
I1
tp9
Rp10
(I3
S'<'
p11
NNNI-1
I-1
I0
tp12
bI00
S'W5\xc6\x0c\x97]\xb8?\xd6=\xa3\x08\xc9\xac\xe0?'
p13
tp14
b(lp15
(lp16
cnumpy.core.multiarray
scalar
p17
(g10
S'\xf25s\x94\xd8\xe5\xa8?'
p18
tp19
Rp20
ag17
(g10
S'\xdag\xa9\xe7 $\xc2?'
p21
tp22
Rp23
aa(lp24
g17
(g10
S'\xdd\xf2\xd3z\xb9\xab\xe0?'
p25
tp26
Rp27
ag17
(g10
S'\xcf\x88r\x96\xd8\xad\xe0?'
p28
tp29
Rp30
aatp31
.