(cnumpy.core.multiarray
_reconstruct
p0
(cnumpy
ndarray
p1
(I0
tp2
S'b'
p3
tp4
Rp5
(I1
(I4
tp6
cnumpy
dtype
p7
(S'f8'
p8
I0
I1
tp9
Rp10
(I3
S'<'
p11
NNNI-1
I-1
I0
tp12
bI00
S'\xb5X\x99!\xe9|i@\x84B \x12\xcf\\>?\xa4\xc1?\x07\xc2~+@\xd5\xd3\xc4lP\x8e\xe0?'
p13
tp14
b(lp15
(lp16
cnumpy.core.multiarray
scalar
p17
(g10
S'(>b\xa8\xed\xd8a@'
p18
tp19
Rp20
ag17
(g10
S'\xa19hMr\x90p@'
p21
tp22
Rp23
aa(lp24
g17
(g10
S'\x89t\x18?}\xc6_\xbf'
p25
tp26
Rp27
ag17
(g10
S'\xe6J\x14drzg?'
p28
tp29
Rp30
aa(lp31
g17
(g10
S'\xa4\xc1?\x07\xc2~+@'
p32
tp33
Rp34
ag17
(g10
S'\xa4\xc1?\x07\xc2~+@'
p35
tp36
Rp37
aa(lp38
g17
(g10
S'A\xf3s\xa6hh\xe0?'
p39
tp40
Rp41
ag17
(g10
S'i\xb4\x1538\xb4\xe0?'
p42
tp43
Rp44
aatp45
.