(cnumpy.core.multiarray
_reconstruct
p0
(cnumpy
ndarray
p1
(I0
tp2
S'b'
p3
tp4
Rp5
(I1
(I4
tp6
cnumpy
dtype
p7
(S'f8'
p8
I0
I1
tp9
Rp10
(I3
S'<'
p11
NNNI-1
I-1
I0
tp12
bI00
S'Uei=hMh@a-\xe1\xddj\xe6V?\x12\x97kv\xa0\xbb+@\xfa\xd79p\xec\xdd\xe0?'
p13
tp14
b(lp15
(lp16
cnumpy.core.multiarray
scalar
p17
(g10
S'V\x1c\xa9xi\xe3a@'
p18
tp19
Rp20
ag17
(g10
S'T\xae)\x02g\xb7n@'
p21
tp22
Rp23
aa(lp24
g17
(g10
S'+\xc1\xa7T\x87s]\xbf'
p25
tp26
Rp27
ag17
(g10
S'\xfb\x86\x1aD\x17\xd0r?'
p28
tp29
Rp30
aa(lp31
g17
(g10
S'\x12\x97kv\xa0\xbb+@'
p32
tp33
Rp34
ag17
(g10
S'\x12\x97kv\xa0\xbb+@'
p35
tp36
Rp37
aa(lp38
g17
(g10
S'\xae\x83O\xf9_\xd0\xe0?'
p39
tp40
Rp41
ag17
(g10
S'F,$\xe7x\xeb\xe0?'
p42
tp43
Rp44
aatp45
.