(cnumpy.core.multiarray
_reconstruct
p0
(cnumpy
ndarray
p1
(I0
tp2
S'b'
p3
tp4
Rp5
(I1
(I4
tp6
cnumpy
dtype
p7
(S'f8'
p8
I0
I1
tp9
Rp10
(I3
S'<'
p11
NNNI-1
I-1
I0
tp12
bI00
S'\xdc\xdb!i\t\xb9f@\xe7\x99\x81/\xb8\xfec?&|\xa1\xdfo\xf3.@V\xb3Lxt\xda\xe0?'
p13
tp14
b(lp15
(lp16
cnumpy.core.multiarray
scalar
p17
(g10
S"3\xb3\xd9\xf2.']@"
p18
tp19
Rp20
ag17
(g10
S'\x1e\xde\xd6X{\xden@'
p21
tp22
Rp23
aa(lp24
g17
(g10
S'\x99\x1c6\x97\x946i\xbf'
p25
tp26
Rp27
ag17
(g10
S'\x1aT\x8e=\x01M\x80?'
p28
tp29
Rp30
aa(lp31
g17
(g10
S'&|\xa1\xdfo\xf3.@'
p32
tp33
Rp34
ag17
(g10
S'&|\xa1\xdfo\xf3.@'
p35
tp36
Rp37
aa(lp38
g17
(g10
S'q\x8d4<X\xce\xe0?'
p39
tp40
Rp41
ag17
(g10
S';\xd9d\xb4\x90\xe6\xe0?'
p42
tp43
Rp44
aatp45
.