(cnumpy.core.multiarray
_reconstruct
p0
(cnumpy
ndarray
p1
(I0
tp2
S'b'
p3
tp4
Rp5
(I1
(I4
tp6
cnumpy
dtype
p7
(S'f8'
p8
I0
I1
tp9
Rp10
(I3
S'<'
p11
NNNI-1
I-1
I0
tp12
bI00
S"Nn(\x16\xdeM`@\x87')\xa5\x81w|?B\x88\x07\\\xafK2@!\x94E\xb2NW\xe1?"
p13
tp14
b(lp15
(lp16
cnumpy.core.multiarray
scalar
p17
(g10
S'\xf6u\xfc\xa0W\xf5R@'
p18
tp19
Rp20
ag17
(g10
S'\xa1\xa1\xd2[\x10!g@'
p21
tp22
Rp23
aa(lp24
g17
(g10
S'\rM\xb7\x94\xa35p\xbf'
p25
tp26
Rp27
ag17
(g10
S'\x07g\xc2\xb7)I\x92?'
p28
tp29
Rp30
aa(lp31
g17
(g10
S'\xcb\x1b\x07\\\xafK2@'
p32
tp33
Rp34
ag17
(g10
S'\xb9\xf4\x07\\\xafK2@'
p35
tp36
Rp37
aa(lp38
g17
(g10
S'\xad\x96@\x0c\xdcO\xe1?'
p39
tp40
Rp41
ag17
(g10
S'\x95\x91JX\xc1^\xe1?'
p42
tp43
Rp44
aatp45
.