(cnumpy.core.multiarray
_reconstruct
p0
(cnumpy
ndarray
p1
(I0
tp2
S'b'
p3
tp4
Rp5
(I1
(I4
tp6
cnumpy
dtype
p7
(S'f8'
p8
I0
I1
tp9
Rp10
(I3
S'<'
p11
NNNI-1
I-1
I0
tp12
bI00
S'fj\xc3vh\x17f@ru\xe2\x11\x0c\x80j?J\xfeO\xe8\xd6]3@O:M\x87\xe0\x00\xe1?'
p13
tp14
b(lp15
(lp16
cnumpy.core.multiarray
scalar
p17
(g10
S'\x04U\x81d\xa5\x91Z@'
p18
tp19
Rp20
ag17
(g10
S'J*F;\xfe\xe5n@'
p21
tp22
Rp23
aa(lp24
g17
(g10
S'X\xe4F\x11[\xd6n\xbf'
p25
tp26
Rp27
ag17
(g10
S'\xcf\xf3B\xcd\x9c\xf5\x84?'
p28
tp29
Rp30
aa(lp31
g17
(g10
S'J\xfeO\xe8\xd6]3@'
p32
tp33
Rp34
ag17
(g10
S'J\xfeO\xe8\xd6]3@'
p35
tp36
Rp37
aa(lp38
g17
(g10
S'\xa9d=L2\xf6\xe0?'
p39
tp40
Rp41
ag17
(g10
S'\xf5\x0f]\xc2\x8e\x0b\xe1?'
p42
tp43
Rp44
aatp45
.