(cnumpy.core.multiarray
_reconstruct
p0
(cnumpy
ndarray
p1
(I0
tp2
S'b'
p3
tp4
Rp5
(I1
(I2
tp6
cnumpy
dtype
p7
(S'f8'
p8
I0
I1
tp9
Rp10
(I3
S'<'
p11
NNNI-1
I-1
I0
tp12
bI00
S'[b\x9b\xa0\xe5R\xc4?upx\x15L\xa3\xe0?'
p13
tp14
b(lp15
(lp16
cnumpy.core.multiarray
scalar
p17
(g10
S':5\xdb\xe8\xd5(\xbb?'
p18
tp19
Rp20
ag17
(g10
S'\x19*\xc9L`\x11\xcb?'
p21
tp22
Rp23
aa(lp24
g17
(g10
S'\r\xfcf\xd3\xa4\xa2\xe0?'
p25
tp26
Rp27
ag17
(g10
S'\xdd\xe4\x89W\xf3\xa3\xe0?'
p28
tp29
Rp30
aatp31
.