(cnumpy.core.multiarray
_reconstruct
p0
(cnumpy
ndarray
p1
(I0
tp2
S'b'
p3
tp4
Rp5
(I1
(I2
tp6
cnumpy
dtype
p7
(S'f8'
p8
I0
I1
tp9
Rp10
(I3
S'<'
p11
NNNI-1
I-1
I0
tp12
bI00
S'~ \xa9\x05\xc3)\xae?^{\xb2h)\xbb\xe0?'
p13
tp14
b(lp15
(lp16
cnumpy.core.multiarray
scalar
p17
(g10
S'%e@\x7f\x9a\x1a\xa7?'
p18
tp19
Rp20
ag17
(g10
S'\xeb\xed\x08\xc6u\x9c\xb2?'
p21
tp22
Rp23
aa(lp24
g17
(g10
S'\x1f\xd4\xbd\xc0\x89\xba\xe0?'
p25
tp26
Rp27
ag17
(g10
S'\x9d"\xa7\x10\xc9\xbb\xe0?'
p28
tp29
Rp30
aatp31
.