(cnumpy.core.multiarray
_reconstruct
p0
(cnumpy
ndarray
p1
(I0
tp2
S'b'
p3
tp4
Rp5
(I1
(I2
tp6
cnumpy
dtype
p7
(S'f8'
p8
I0
I1
tp9
Rp10
(I3
S'<'
p11
NNNI-1
I-1
I0
tp12
bI00
S'R\x18&\x8c\xbad\x9b?\xa2\xea\xb2\xbf\xdc\xca\xe0?'
p13
tp14
b(lp15
(lp16
cnumpy.core.multiarray
scalar
p17
(g10
S'\xebs\x97\xae\x94\x97\x94?'
p18
tp19
Rp20
ag17
(g10
S']^\xda4\xf0\x18\xa1?'
p21
tp22
Rp23
aa(lp24
g17
(g10
S'\xc6\xce\xd2\x14?\xca\xe0?'
p25
tp26
Rp27
ag17
(g10
S'~\x06\x93jz\xcb\xe0?'
p28
tp29
Rp30
aatp31
.