(cnumpy.core.multiarray
_reconstruct
p0
(cnumpy
ndarray
p1
(I0
tp2
S'b'
p3
tp4
Rp5
(I1
(I2
tp6
cnumpy
dtype
p7
(S'f8'
p8
I0
I1
tp9
Rp10
(I3
S'<'
p11
NNNI-1
I-1
I0
tp12
bI00
S'\x82J\xc8\xd5\xa0\xcf\x99?=\xf6\xf2\x18\xd1\x8e\xe0?'
p13
tp14
b(lp15
(lp16
cnumpy.core.multiarray
scalar
p17
(g10
S'\x86\xfb\x8d\xae\x04Q\x91?'
p18
tp19
Rp20
ag17
(g10
S"\xbfL\x81~\x1e'\xa1?"
p21
tp22
Rp23
aa(lp24
g17
(g10
S'N\xa4\xadf\x00\x8e\xe0?'
p25
tp26
Rp27
ag17
(g10
S',H8\xcb\xa1\x8f\xe0?'
p28
tp29
Rp30
aatp31
.