(cnumpy.core.multiarray
_reconstruct
p0
(cnumpy
ndarray
p1
(I0
tp2
S'b'
p3
tp4
Rp5
(I1
(I2
tp6
cnumpy
dtype
p7
(S'f8'
p8
I0
I1
tp9
Rp10
(I3
S'<'
p11
NNNI-1
I-1
I0
tp12
bI00
S'\xa1\x05.xN\x9c\xb8?\xec\x9f\x1b\xa2e\x8e\xe0?'
p13
tp14
b(lp15
(lp16
cnumpy.core.multiarray
scalar
p17
(g10
S'\xf8B\xfb\x9d\xc4\xf9\xab?'
p18
tp19
Rp20
ag17
(g10
S'\xe34\xafP\xdd\x9d\xc1?'
p21
tp22
Rp23
aa(lp24
g17
(g10
S'\x95/\xe2\xb5X\x8d\xe0?'
p25
tp26
Rp27
ag17
(g10
S'C\x10U\x8er\x8f\xe0?'
p28
tp29
Rp30
aatp31
.