(cnumpy.core.multiarray
_reconstruct
p0
(cnumpy
ndarray
p1
(I0
tp2
S'b'
p3
tp4
Rp5
(I1
(I2
tp6
cnumpy
dtype
p7
(S'f8'
p8
I0
I1
tp9
Rp10
(I3
S'<'
p11
NNNI-1
I-1
I0
tp12
bI00
S'\xc5\xf4Mf\x1a\xdd\xab?\xadEJ\x06\x88\x9e\xe0?'
p13
tp14
b(lp15
(lp16
cnumpy.core.multiarray
scalar
p17
(g10
S'\xa9\xc6_\xf6\xc9?\xa4?'
p18
tp19
Rp20
ag17
(g10
S'p\x11\x1ek5\xbd\xb1?'
p21
tp22
Rp23
aa(lp24
g17
(g10
S'\xc9\x8f&\x08\xcb\x9d\xe0?'
p25
tp26
Rp27
ag17
(g10
S'\x91\xfbm\x04E\x9f\xe0?'
p28
tp29
Rp30
aatp31
.