(cnumpy.core.multiarray
_reconstruct
p0
(cnumpy
ndarray
p1
(I0
tp2
S'b'
p3
tp4
Rp5
(I1
(I2
tp6
cnumpy
dtype
p7
(S'f8'
p8
I0
I1
tp9
Rp10
(I3
S'<'
p11
NNNI-1
I-1
I0
tp12
bI00
S'\xe4\xb2\xa1B\xe8\x8c\xa2?\x18\x8f9\xcd\x7f\xe4\xe0?'
p13
tp14
b(lp15
(lp16
cnumpy.core.multiarray
scalar
p17
(g10
S'\x834%T)\x89\x94?'
p18
tp19
Rp20
ag17
(g10
S'\x86\xcb0\xdb;\xd5\xaa?'
p21
tp22
Rp23
aa(lp24
g17
(g10
S'\xcd\x13$\x9dT\xe3\xe0?'
p25
tp26
Rp27
ag17
(g10
S'c\nO\xfd\xaa\xe5\xe0?'
p28
tp29
Rp30
aatp31
.