(cnumpy.core.multiarray
_reconstruct
p0
(cnumpy
ndarray
p1
(I0
tp2
S'b'
p3
tp4
Rp5
(I1
(I2
tp6
cnumpy
dtype
p7
(S'f8'
p8
I0
I1
tp9
Rp10
(I3
S'<'
p11
NNNI-1
I-1
I0
tp12
bI00
S'zT\x19R\xb9)\x9e?\xcb\x13U\xa6\x06\x8e\xe0?'
p13
tp14
b(lp15
(lp16
cnumpy.core.multiarray
scalar
p17
(g10
S'\x07\xc6\xafg6\x08\x95?'
p18
tp19
Rp20
ag17
(g10
S'vqA\x1e\x9e\xa5\xa3?'
p21
tp22
Rp23
aa(lp24
g17
(g10
S'fS\xa7\xb9>\x8d\xe0?'
p25
tp26
Rp27
ag17
(g10
S'0\xd4\x02\x93\xce\x8e\xe0?'
p28
tp29
Rp30
aatp31
.