(cnumpy.core.multiarray
_reconstruct
p0
(cnumpy
ndarray
p1
(I0
tp2
S'b'
p3
tp4
Rp5
(I1
(I2
tp6
cnumpy
dtype
p7
(S'f8'
p8
I0
I1
tp9
Rp10
(I3
S'<'
p11
NNNI-1
I-1
I0
tp12
bI00
S'\x07\xfb\xe01\x05S\xb0?qg!\\\xd6\x8d\xe0?'
p13
tp14
b(lp15
(lp16
cnumpy.core.multiarray
scalar
p17
(g10
S'Z\xfbw\xe2\xe4~\xa8?'
p18
tp19
Rp20
ag17
(g10
S'a\xf8\x85\xf2\x97f\xb4?'
p21
tp22
Rp23
aa(lp24
g17
(g10
S'\xebr*\x9e+\x8d\xe0?'
p25
tp26
Rp27
ag17
(g10
S'\xf7[\x18\x1a\x81\x8e\xe0?'
p28
tp29
Rp30
aatp31
.