(cnumpy.core.multiarray
_reconstruct
p0
(cnumpy
ndarray
p1
(I0
tp2
S'b'
p3
tp4
Rp5
(I1
(I2
tp6
cnumpy
dtype
p7
(S'f8'
p8
I0
I1
tp9
Rp10
(I3
S'<'
p11
NNNI-1
I-1
I0
tp12
bI00
S't\xcc)p\xb6~\x94?t\xd8d\x19\x89\xac\xe0?'
p13
tp14
b(lp15
(lp16
cnumpy.core.multiarray
scalar
p17
(g10
S'\xc4\xb6\x8c\xec\xfa\xd9\x8a?'
p18
tp19
Rp20
ag17
(g10
S'\x86=\rjo\x90\x9b?'
p21
tp22
Rp23
aa(lp24
g17
(g10
S'UE\xd3\x8e\xc0\xab\xe0?'
p25
tp26
Rp27
ag17
(g10
S'\x93k\xf6\xa3Q\xad\xe0?'
p28
tp29
Rp30
aatp31
.