(cnumpy.core.multiarray
_reconstruct
p0
(cnumpy
ndarray
p1
(I0
tp2
S'b'
p3
tp4
Rp5
(I1
(I2
tp6
cnumpy
dtype
p7
(S'f8'
p8
I0
I1
tp9
Rp10
(I3
S'<'
p11
NNNI-1
I-1
I0
tp12
bI00
S'\xcb\xb3l`n\x0b\xa5?\x8b\x04\xf4o\xc5\xd3\xe0?'
p13
tp14
b(lp15
(lp16
cnumpy.core.multiarray
scalar
p17
(g10
S'4\xdf\xab\xc2\xc4\x86\x9c?'
p18
tp19
Rp20
ag17
(g10
S'\xfcw\x83_z\xd3\xab?'
p21
tp22
Rp23
aa(lp24
g17
(g10
S'\xd8\xcc\x8b\xd5\xe9\xd2\xe0?'
p25
tp26
Rp27
ag17
(g10
S'><\\\n\xa1\xd4\xe0?'
p28
tp29
Rp30
aatp31
.