(cnumpy.core.multiarray
_reconstruct
p0
(cnumpy
ndarray
p1
(I0
tp2
S'b'
p3
tp4
Rp5
(I1
(I2
tp6
cnumpy
dtype
p7
(S'f8'
p8
I0
I1
tp9
Rp10
(I3
S'<'
p11
NNNI-1
I-1
I0
tp12
bI00
S'8l\x0c\xf7G\xbbq?cg\xa2~\x07_\xe1?'
p13
tp14
b(lp15
(lp16
cnumpy.core.multiarray
scalar
p17
(g10
S'\xd4E\x84U\xb6nx\xbf'
p18
tp19
Rp20
ag17
(g10
S'"\x8f\xce!\xa3\xf2\x8d?'
p21
tp22
Rp23
aa(lp24
g17
(g10
S'\x85[\x17u\x18]\xe1?'
p25
tp26
Rp27
ag17
(g10
S'As-\x88\xf6`\xe1?'
p28
tp29
Rp30
aatp31
.