(cnumpy.core.multiarray
_reconstruct
p0
(cnumpy
ndarray
p1
(I0
tp2
S'b'
p3
tp4
Rp5
(I1
(I2
tp6
cnumpy
dtype
p7
(S'f8'
p8
I0
I1
tp9
Rp10
(I3
S'<'
p11
NNNI-1
I-1
I0
tp12
bI00
S'YoD\xa2g)\xc3?M\xf7X\x7f\xf8\xb0\xe0?'
p13
tp14
b(lp15
(lp16
cnumpy.core.multiarray
scalar
p17
(g10
S'\xee\xf6=\x1a\x8d\x06\xbb?'
p18
tp19
Rp20
ag17
(g10
S';\xe3i\xb7\x88\xcf\xc8?'
p21
tp22
Rp23
aa(lp24
g17
(g10
S'+\x94\xb0\x0e`\xb0\xe0?'
p25
tp26
Rp27
ag17
(g10
S'oZ\x01\xf0\x90\xb1\xe0?'
p28
tp29
Rp30
aatp31
.