(cnumpy.core.multiarray
_reconstruct
p0
(cnumpy
ndarray
p1
(I0
tp2
S'b'
p3
tp4
Rp5
(I1
(I2
tp6
cnumpy
dtype
p7
(S'f8'
p8
I0
I1
tp9
Rp10
(I3
S'<'
p11
NNNI-1
I-1
I0
tp12
bI00
S'p\xf9\x99]\x8e\x86\x9a?\xa5\x1a\xeeMb\x90\xe0?'
p13
tp14
b(lp15
(lp16
cnumpy.core.multiarray
scalar
p17
(g10
S'qgN\x81\xcae\x94?'
p18
tp19
Rp20
ag17
(g10
S'\xb8\xc5\xf2\x1c\xa9S\xa0?'
p21
tp22
Rp23
aa(lp24
g17
(g10
S'\xf3\xa7/\xb5\xce\x8f\xe0?'
p25
tp26
Rp27
ag17
(g10
S'W\x8d\xac\xe6\xf5\x90\xe0?'
p28
tp29
Rp30
aatp31
.