(cnumpy.core.multiarray
_reconstruct
p0
(cnumpy
ndarray
p1
(I0
tp2
S'b'
p3
tp4
Rp5
(I1
(I2
tp6
cnumpy
dtype
p7
(S'f8'
p8
I0
I1
tp9
Rp10
(I3
S'<'
p11
NNNI-1
I-1
I0
tp12
bI00
S'\xd8\x88\x1e\xb17f\xa5?\xb9p>\x84\xfb\x0c\xe1?'
p13
tp14
b(lp15
(lp16
cnumpy.core.multiarray
scalar
p17
(g10
S'l\xe2\x81\x88\x1de\x9c?'
p18
tp19
Rp20
ag17
(g10
S'z \xfc\x9d\xe0\x99\xac?'
p21
tp22
Rp23
aa(lp24
g17
(g10
S'\xda\x82uK\x19\x0c\xe1?'
p25
tp26
Rp27
ag17
(g10
S'\x98^\x07\xbd\xdd\r\xe1?'
p28
tp29
Rp30
aatp31
.