(cnumpy.core.multiarray
_reconstruct
p0
(cnumpy
ndarray
p1
(I0
tp2
S'b'
p3
tp4
Rp5
(I1
(I2
tp6
cnumpy
dtype
p7
(S'f8'
p8
I0
I1
tp9
Rp10
(I3
S'<'
p11
NNNI-1
I-1
I0
tp12
bI00
S'9^\x05\xfb\xb6\x9a\xa6?\xc7\r\x9b\x86\xe1v\xe0?'
p13
tp14
b(lp15
(lp16
cnumpy.core.multiarray
scalar
p17
(g10
S'm\xaah0\xe0\x8c\xa1?'
p18
tp19
Rp20
ag17
(g10
S'\x05\x12\xa2\xc5\x8d\xa8\xab?'
p21
tp22
Rp23
aa(lp24
g17
(g10
S'\xe1\xa3\xa2\xeaDv\xe0?'
p25
tp26
Rp27
ag17
(g10
S'\xadw\x93"~w\xe0?'
p28
tp29
Rp30
aatp31
.