(cnumpy.core.multiarray
_reconstruct
p0
(cnumpy
ndarray
p1
(I0
tp2
S'b'
p3
tp4
Rp5
(I1
(I2
tp6
cnumpy
dtype
p7
(S'f8'
p8
I0
I1
tp9
Rp10
(I3
S'<'
p11
NNNI-1
I-1
I0
tp12
bI00
S'\x8c\xdf\x88\xe9\xbe\x18\xb2?b\x1cn\xb9#~\xe0?'
p13
tp14
b(lp15
(lp16
cnumpy.core.multiarray
scalar
p17
(g10
S'$\xf5\xb0t\x8e\xe2\xa7?'
p18
tp19
Rp20
ag17
(g10
S'\x86D\xb9\x986@\xb8?'
p21
tp22
Rp23
aa(lp24
g17
(g10
S'y[\x97\x0f>}\xe0?'
p25
tp26
Rp27
ag17
(g10
S'K\xddDc\t\x7f\xe0?'
p28
tp29
Rp30
aatp31
.