(cnumpy.core.multiarray
_reconstruct
p0
(cnumpy
ndarray
p1
(I0
tp2
S'b'
p3
tp4
Rp5
(I1
(I2
tp6
cnumpy
dtype
p7
(S'f8'
p8
I0
I1
tp9
Rp10
(I3
S'<'
p11
NNNI-1
I-1
I0
tp12
bI00
S'\xb5F\xb6\x0b\xdd@t?\xf1\\r~\x86\xc8\xe0?'
p13
tp14
b(lp15
(lp16
cnumpy.core.multiarray
scalar
p17
(g10
S'\xbbbs\x12\xa7\x04t\xbf'
p18
tp19
Rp20
ag17
(g10
S'\x12\xf8\xef\x940C\x8e?'
p21
tp22
Rp23
aa(lp24
g17
(g10
S'\xac\x80n\xd2\xa6\xc6\xe0?'
p25
tp26
Rp27
ag17
(g10
S'69v*f\xca\xe0?'
p28
tp29
Rp30
aatp31
.