(cnumpy.core.multiarray
_reconstruct
p0
(cnumpy
ndarray
p1
(I0
tp2
S'b'
p3
tp4
Rp5
(I1
(I2
tp6
cnumpy
dtype
p7
(S'f8'
p8
I0
I1
tp9
Rp10
(I3
S'<'
p11
NNNI-1
I-1
I0
tp12
bI00
S'\xabw\nf\xf9r\xb2?N\x85\xb84z~\xe0?'
p13
tp14
b(lp15
(lp16
cnumpy.core.multiarray
scalar
p17
(g10
S'\xb9.\x05^\xc8\xef\xaa?'
p18
tp19
Rp20
ag17
(g10
S'\xfaW\x12\x9d\x0en\xb7?'
p21
tp22
Rp23
aa(lp24
g17
(g10
S'\x9c\x0b\xe1\x8c\xc4}\xe0?'
p25
tp26
Rp27
ag17
(g10
S'\x00\xff\x8f\xdc/\x7f\xe0?'
p28
tp29
Rp30
aatp31
.