(cnumpy.core.multiarray
_reconstruct
p0
(cnumpy
ndarray
p1
(I0
tp2
S'b'
p3
tp4
Rp5
(I1
(I2
tp6
cnumpy
dtype
p7
(S'f8'
p8
I0
I1
tp9
Rp10
(I3
S'<'
p11
NNNI-1
I-1
I0
tp12
bI00
S'\xa8\xee\x01\x8d-\xcb\xbe?\xe17\xe4\\\x8dp\xe0?'
p13
tp14
b(lp15
(lp16
cnumpy.core.multiarray
scalar
p17
(g10
S'\x9d-Q4\x1a\xc4\xb0?'
p18
tp19
Rp20
ag17
(g10
S'\xdaW\xd9r i\xc6?'
p21
tp22
Rp23
aa(lp24
g17
(g10
S'6\xc7Q\x88\x85o\xe0?'
p25
tp26
Rp27
ag17
(g10
S'\x8c\xa8v1\x95q\xe0?'
p28
tp29
Rp30
aatp31
.