(cnumpy.core.multiarray
_reconstruct
p0
(cnumpy
ndarray
p1
(I0
tp2
S'b'
p3
tp4
Rp5
(I1
(I2
tp6
cnumpy
dtype
p7
(S'f8'
p8
I0
I1
tp9
Rp10
(I3
S'<'
p11
NNNI-1
I-1
I0
tp12
bI00
S'\x02\xa4\x81\xd3P\x91\xb0?E\x0bl\x93N\x7f\xe0?'
p13
tp14
b(lp15
(lp16
cnumpy.core.multiarray
scalar
p17
(g10
S';\xc7Z\x12\x7f8\xa5?'
p18
tp19
Rp20
ag17
(g10
S'f\xe4\xd5\x1db\x86\xb6?'
p21
tp22
Rp23
aa(lp24
g17
(g10
S'\x8f1MRX~\xe0?'
p25
tp26
Rp27
ag17
(g10
S'\xfb\xe4\x8a\xd4D\x80\xe0?'
p28
tp29
Rp30
aatp31
.