(cnumpy.core.multiarray
_reconstruct
p0
(cnumpy
ndarray
p1
(I0
tp2
S'b'
p3
tp4
Rp5
(I1
(I2
tp6
cnumpy
dtype
p7
(S'f8'
p8
I0
I1
tp9
Rp10
(I3
S'<'
p11
NNNI-1
I-1
I0
tp12
bI00
S'\xa0\x8c\xbeRh_\xd2?4\x11f\xac4\xa6\xe0?'
p13
tp14
b(lp15
(lp16
cnumpy.core.multiarray
scalar
p17
(g10
S'\xf0=\xd5\xe6qo\x92\xbf'
p18
tp19
Rp20
ag17
(g10
S'\x906\xf5\xe1\xe3\xf2\xe2?'
p21
tp22
Rp23
aa(lp24
g17
(g10
S'r\x9aE2\xbc\xa4\xe0?'
p25
tp26
Rp27
ag17
(g10
S'\xf6\x87\x86&\xad\xa7\xe0?'
p28
tp29
Rp30
aatp31
.