(cnumpy.core.multiarray
_reconstruct
p0
(cnumpy
ndarray
p1
(I0
tp2
S'b'
p3
tp4
Rp5
(I1
(I2
tp6
cnumpy
dtype
p7
(S'f8'
p8
I0
I1
tp9
Rp10
(I3
S'<'
p11
NNNI-1
I-1
I0
tp12
bI00
S'\xd5\x82\xae\x04\x0f6\x8e?\xb4Pg\xe9\x9b\xbd\xe0?'
p13
tp14
b(lp15
(lp16
cnumpy.core.multiarray
scalar
p17
(g10
S'>\xcf\xfcQ\x99\xee\x83?'
p18
tp19
Rp20
ag17
(g10
S'6\x1b\xb0[\xc2>\x94?'
p21
tp22
Rp23
aa(lp24
g17
(g10
S'e4\xf9U\xf0\xbc\xe0?'
p25
tp26
Rp27
ag17
(g10
S'\x03m\xd5|G\xbe\xe0?'
p28
tp29
Rp30
aatp31
.