(cnumpy.core.multiarray
_reconstruct
p0
(cnumpy
ndarray
p1
(I0
tp2
S'b'
p3
tp4
Rp5
(I1
(I2
tp6
cnumpy
dtype
p7
(S'f8'
p8
I0
I1
tp9
Rp10
(I3
S'<'
p11
NNNI-1
I-1
I0
tp12
bI00
S'\xe3\x84tbc\x12\xa1?\x7f\xa0\xcc\x87\xc7\x8d\xe0?'
p13
tp14
b(lp15
(lp16
cnumpy.core.multiarray
scalar
p17
(g10
S'\xf2\xb81l?\x1c\x98?'
p18
tp19
Rp20
ag17
(g10
S'M-\xd0\x0e\xa7\x16\xa6?'
p21
tp22
Rp23
aa(lp24
g17
(g10
S'e\x08\x8a\xab\x00\x8d\xe0?'
p25
tp26
Rp27
ag17
(g10
S'\x998\x0fd\x8e\x8e\xe0?'
p28
tp29
Rp30
aatp31
.