(cnumpy.core.multiarray
_reconstruct
p0
(cnumpy
ndarray
p1
(I0
tp2
S'b'
p3
tp4
Rp5
(I1
(I2
tp6
cnumpy
dtype
p7
(S'f8'
p8
I0
I1
tp9
Rp10
(I3
S'<'
p11
NNNI-1
I-1
I0
tp12
bI00
S'\xc8\xc6\xf5\x99\x88\xd4\xb3?9a\xac8\xbe\x90\xe0?'
p13
tp14
b(lp15
(lp16
cnumpy.core.multiarray
scalar
p17
(g10
S'N\xc2=m\xe7m\xac?'
p18
tp19
Rp20
ag17
(g10
S'i\xacL}\x1dr\xb9?'
p21
tp22
Rp23
aa(lp24
g17
(g10
S'c\xa8\x00\\\x03\x90\xe0?'
p25
tp26
Rp27
ag17
(g10
S'\x0f\x1aX\x15y\x91\xe0?'
p28
tp29
Rp30
aatp31
.