(cnumpy.core.multiarray
_reconstruct
p0
(cnumpy
ndarray
p1
(I0
tp2
S'b'
p3
tp4
Rp5
(I1
(I2
tp6
cnumpy
dtype
p7
(S'f8'
p8
I0
I1
tp9
Rp10
(I3
S'<'
p11
NNNI-1
I-1
I0
tp12
bI00
S'v/\xff\x90\xefl\xb0?\xd7\x93\xc8Z\xb3\xbd\xe0?'
p13
tp14
b(lp15
(lp16
cnumpy.core.multiarray
scalar
p17
(g10
S'\x02\r|z\xbc!\xa9?'
p18
tp19
Rp20
ag17
(g10
S'kX\xc0\xe4\x00I\xb4?'
p21
tp22
Rp23
aa(lp24
g17
(g10
S'\x87\xbb\xd8\xc4\x14\xbd\xe0?'
p25
tp26
Rp27
ag17
(g10
S"'l\xb8\xf0Q\xbe\xe0?"
p28
tp29
Rp30
aatp31
.