(cnumpy.core.multiarray
_reconstruct
p0
(cnumpy
ndarray
p1
(I0
tp2
S'b'
p3
tp4
Rp5
(I1
(I2
tp6
cnumpy
dtype
p7
(S'f8'
p8
I0
I1
tp9
Rp10
(I3
S'<'
p11
NNNI-1
I-1
I0
tp12
bI00
S'MO\x87>\x8fx\xa2?\x98wQ>Q\xbf\xe0?'
p13
tp14
b(lp15
(lp16
cnumpy.core.multiarray
scalar
p17
(g10
S'\xc2\x9b\x81\x1d\x14\xa1\x9c?'
p18
tp19
Rp20
ag17
(g10
S'\xb9\xd0Mn\x94\xa0\xa6?'
p21
tp22
Rp23
aa(lp24
g17
(g10
S'\x18\xc03\x18\xb9\xbe\xe0?'
p25
tp26
Rp27
ag17
(g10
S'\x18/od\xe9\xbf\xe0?'
p28
tp29
Rp30
aatp31
.