(cnumpy.core.multiarray
_reconstruct
p0
(cnumpy
ndarray
p1
(I0
tp2
S'b'
p3
tp4
Rp5
(I1
(I2
tp6
cnumpy
dtype
p7
(S'f8'
p8
I0
I1
tp9
Rp10
(I3
S'<'
p11
NNNI-1
I-1
I0
tp12
bI00
S'\xaa\x87\x13uc\xef\xee?\xb2\x10j*\xcdz\xe0?'
p13
tp14
b(lp15
(lp16
cnumpy.core.multiarray
scalar
p17
(g10
S'\xc7\xd7\x87\x16;\xb9\xf7\xbf'
p18
tp19
Rp20
ag17
(g10
S'\xb8\xaf\xcdEOT\x0b@'
p21
tp22
Rp23
aa(lp24
g17
(g10
S'G\x95w\xd7\x86y\xe0?'
p25
tp26
Rp27
ag17
(g10
S'\x1d\x8c\\}\x13|\xe0?'
p28
tp29
Rp30
aatp31
.