(cnumpy.core.multiarray
_reconstruct
p0
(cnumpy
ndarray
p1
(I0
tp2
S'b'
p3
tp4
Rp5
(I1
(I2
tp6
cnumpy
dtype
p7
(S'f8'
p8
I0
I1
tp9
Rp10
(I3
S'<'
p11
NNNI-1
I-1
I0
tp12
bI00
S'W\x1a\xfe1\x98\xbd\xb0?\x13\x07s\xc9X\x84\xe0?'
p13
tp14
b(lp15
(lp16
cnumpy.core.multiarray
scalar
p17
(g10
S'DT\xee\xed\x83`\xaa?'
p18
tp19
Rp20
ag17
(g10
S'\x8c\n\x05m\xeeJ\xb4?'
p21
tp22
Rp23
aa(lp24
g17
(g10
S'\xe9\x00\xbe\xdf\xc7\x83\xe0?'
p25
tp26
Rp27
ag17
(g10
S'=\r(\xb3\xe9\x84\xe0?'
p28
tp29
Rp30
aatp31
.