(cnumpy.core.multiarray
_reconstruct
p0
(cnumpy
ndarray
p1
(I0
tp2
S'b'
p3
tp4
Rp5
(I1
(I2
tp6
cnumpy
dtype
p7
(S'f8'
p8
I0
I1
tp9
Rp10
(I3
S'<'
p11
NNNI-1
I-1
I0
tp12
bI00
S'\xe0\x8a\x98\x828\xe8\xb1?\x13\xe3\xb78\xa1\xd1\xe0?'
p13
tp14
b(lp15
(lp16
cnumpy.core.multiarray
scalar
p17
(g10
S'P\xf5\xa3~\xb5N\xa8?'
p18
tp19
Rp20
ag17
(g10
S'\x18\x1b\xdfE\x16\xa9\xb7?'
p21
tp22
Rp23
aa(lp24
g17
(g10
S'3\x87kg\xcc\xd0\xe0?'
p25
tp26
Rp27
ag17
(g10
S'\xf3>\x04\nv\xd2\xe0?'
p28
tp29
Rp30
aatp31
.