(cnumpy.core.multiarray
_reconstruct
p0
(cnumpy
ndarray
p1
(I0
tp2
S'b'
p3
tp4
Rp5
(I1
(I2
tp6
cnumpy
dtype
p7
(S'f8'
p8
I0
I1
tp9
Rp10
(I3
S'<'
p11
NNNI-1
I-1
I0
tp12
bI00
S'\xcf\xb1Dum\xae\x8c?\xb2\x8e\x17\x01ha\xe0?'
p13
tp14
b(lp15
(lp16
cnumpy.core.multiarray
scalar
p17
(g10
S'\xd4\x9e\x8f\x8b\xb0\xdfn\xbf'
p18
tp19
Rp20
ag17
(g10
S'\xd5R[\xc31E\xa0?'
p21
tp22
Rp23
aa(lp24
g17
(g10
S'3*3Z\xea^\xe0?'
p25
tp26
Rp27
ag17
(g10
S'1\xf3\xfb\xa7\xe5c\xe0?'
p28
tp29
Rp30
aatp31
.