(cnumpy.core.multiarray
_reconstruct
p0
(cnumpy
ndarray
p1
(I0
tp2
S'b'
p3
tp4
Rp5
(I1
(I2
tp6
cnumpy
dtype
p7
(S'f8'
p8
I0
I1
tp9
Rp10
(I3
S'<'
p11
NNNI-1
I-1
I0
tp12
bI00
S'\xbc\x00\xeeo\xce\x1e\xb9?mDS\xcc\xd6|\xe0?'
p13
tp14
b(lp15
(lp16
cnumpy.core.multiarray
scalar
p17
(g10
S'F\x9e\xe6\x12\x1b\x81\xb2?'
p18
tp19
Rp20
ag17
(g10
S'2c\xf5\xcc\x81\xbc\xbf?'
p21
tp22
Rp23
aa(lp24
g17
(g10
S'\x9c\xc7%\r3|\xe0?'
p25
tp26
Rp27
ag17
(g10
S'>\xc1\x80\x8bz}\xe0?'
p28
tp29
Rp30
aatp31
.