(cnumpy.core.multiarray
_reconstruct
p0
(cnumpy
ndarray
p1
(I0
tp2
S'b'
p3
tp4
Rp5
(I1
(I2
tp6
cnumpy
dtype
p7
(S'f8'
p8
I0
I1
tp9
Rp10
(I3
S'<'
p11
NNNI-1
I-1
I0
tp12
bI00
S' y\xfd\x0f.\n\xbe?\x05\x014\xb4\xe1x\xe0?'
p13
tp14
b(lp15
(lp16
cnumpy.core.multiarray
scalar
p17
(g10
S'\xf0)\xd3+\xe1\x1d\xb5?'
p18
tp19
Rp20
ag17
(g10
S'(\xe4\x13z={\xc3?'
p21
tp22
Rp23
aa(lp24
g17
(g10
S'\xac#\xebR4x\xe0?'
p25
tp26
Rp27
ag17
(g10
S'^\xde|\x15\x8fy\xe0?'
p28
tp29
Rp30
aatp31
.