(cnumpy.core.multiarray
_reconstruct
p0
(cnumpy
ndarray
p1
(I0
tp2
S'b'
p3
tp4
Rp5
(I1
(I2
tp6
cnumpy
dtype
p7
(S'f8'
p8
I0
I1
tp9
Rp10
(I3
S'<'
p11
NNNI-1
I-1
I0
tp12
bI00
S'5\x11\x8a@\xd6\xf3\xac?N\xd3\x86\x9e$\xa8\xe0?'
p13
tp14
b(lp15
(lp16
cnumpy.core.multiarray
scalar
p17
(g10
S'\x0e\xb8>\x16\x93\xe8\xa4?'
p18
tp19
Rp20
ag17
(g10
S'.\xb5j\xb5\x8c\x7f\xb2?'
p21
tp22
Rp23
aa(lp24
g17
(g10
S'\x1e\x8a\xb5ve\xa7\xe0?'
p25
tp26
Rp27
ag17
(g10
S'~\x1cX\xc6\xe3\xa8\xe0?'
p28
tp29
Rp30
aatp31
.