(cnumpy.core.multiarray
_reconstruct
p0
(cnumpy
ndarray
p1
(I0
tp2
S'b'
p3
tp4
Rp5
(I1
(I2
tp6
cnumpy
dtype
p7
(S'f8'
p8
I0
I1
tp9
Rp10
(I3
S'<'
p11
NNNI-1
I-1
I0
tp12
bI00
S'\x19\xa7\x17\xbf\xc3\xa3\xb4?\xbb\xc2\xd14\xf9\xce\xe0?'
p13
tp14
b(lp15
(lp16
cnumpy.core.multiarray
scalar
p17
(g10
S'n\xa7\x15m\x0e\x1e\xae?'
p18
tp19
Rp20
ag17
(g10
S'{z\xa4G\x808\xba?'
p21
tp22
Rp23
aa(lp24
g17
(g10
S'&N\x064K\xce\xe0?'
p25
tp26
Rp27
ag17
(g10
S'P7\x9d5\xa7\xcf\xe0?'
p28
tp29
Rp30
aatp31
.