(cnumpy.core.multiarray
_reconstruct
p0
(cnumpy
ndarray
p1
(I0
tp2
S'b'
p3
tp4
Rp5
(I1
(I2
tp6
cnumpy
dtype
p7
(S'f8'
p8
I0
I1
tp9
Rp10
(I3
S'<'
p11
NNNI-1
I-1
I0
tp12
bI00
S'\xdf\x119ct=\xa5?iv\xb3\x0c\xe3\xa6\xe0?'
p13
tp14
b(lp15
(lp16
cnumpy.core.multiarray
scalar
p17
(g10
S'UD\x85\x90}"\x9f?'
p18
tp19
Rp20
ag17
(g10
S'\x94\x81/\xfe\xa9\xe9\xaa?'
p21
tp22
Rp23
aa(lp24
g17
(g10
S'Q\x94\x86\xd2*\xa6\xe0?'
p25
tp26
Rp27
ag17
(g10
S'\x81X\xe0F\x9b\xa7\xe0?'
p28
tp29
Rp30
aatp31
.