(cnumpy.core.multiarray
_reconstruct
p0
(cnumpy
ndarray
p1
(I0
tp2
S'b'
p3
tp4
Rp5
(I1
(I2
tp6
cnumpy
dtype
p7
(S'f8'
p8
I0
I1
tp9
Rp10
(I3
S'<'
p11
NNNI-1
I-1
I0
tp12
bI00
S'\x9a\x9b\xba\x9f]\xfc\x84?\xe9\x7ftpS\xb6\xe0?'
p13
tp14
b(lp15
(lp16
cnumpy.core.multiarray
scalar
p17
(g10
S'\x00\xed\xac\x1e\xf1\xef`\xbf'
p18
tp19
Rp20
ag17
(g10
S':9\x90\xc3[\x1a\x97?'
p21
tp22
Rp23
aa(lp24
g17
(g10
S'UB\x12qf\xb4\xe0?'
p25
tp26
Rp27
ag17
(g10
S'}\xbd\xd6o@\xb8\xe0?'
p28
tp29
Rp30
aatp31
.