(cnumpy.core.multiarray
_reconstruct
p0
(cnumpy
ndarray
p1
(I0
tp2
S'b'
p3
tp4
Rp5
(I1
(I2
tp6
cnumpy
dtype
p7
(S'f8'
p8
I0
I1
tp9
Rp10
(I3
S'<'
p11
NNNI-1
I-1
I0
tp12
bI00
S'tL\x00p\x05\x97\xc1?\x86\xa3Y-\xd6\x9e\xe0?'
p13
tp14
b(lp15
(lp16
cnumpy.core.multiarray
scalar
p17
(g10
S'\x9f&`\x89\x983\xb6?'
p18
tp19
Rp20
ag17
(g10
S'\x98\x85P\x9b>\x14\xc8?'
p21
tp22
Rp23
aa(lp24
g17
(g10
S'X^\xd6\xb3\x0e\x9e\xe0?'
p25
tp26
Rp27
ag17
(g10
S'\xb4\xe8\xdc\xa6\x9d\x9f\xe0?'
p28
tp29
Rp30
aatp31
.