(cnumpy.core.multiarray
_reconstruct
p0
(cnumpy
ndarray
p1
(I0
tp2
S'b'
p3
tp4
Rp5
(I1
(I2
tp6
cnumpy
dtype
p7
(S'f8'
p8
I0
I1
tp9
Rp10
(I3
S'<'
p11
NNNI-1
I-1
I0
tp12
bI00
S'4h\xc6\xd6\x82\xff\xb8?\xd1\x83|l\t\xbb\xe0?'
p13
tp14
b(lp15
(lp16
cnumpy.core.multiarray
scalar
p17
(g10
S'g\xd6\xcbn\x05j\xb2?'
p18
tp19
Rp20
ag17
(g10
S'\x01\xfa\xc0>\x00\x95\xbf?'
p21
tp22
Rp23
aa(lp24
g17
(g10
S'\xfdzI\xfcg\xba\xe0?'
p25
tp26
Rp27
ag17
(g10
S'\xa5\x8c\xaf\xdc\xaa\xbb\xe0?'
p28
tp29
Rp30
aatp31
.