(cnumpy.core.multiarray
_reconstruct
p0
(cnumpy
ndarray
p1
(I0
tp2
S'b'
p3
tp4
Rp5
(I1
(I2
tp6
cnumpy
dtype
p7
(S'f8'
p8
I0
I1
tp9
Rp10
(I3
S'<'
p11
NNNI-1
I-1
I0
tp12
bI00
S'\x92*\x8bW\x15\x03\xbb?|\xd1\xa7\xb6A&\xe1?'
p13
tp14
b(lp15
(lp16
cnumpy.core.multiarray
scalar
p17
(g10
S'\x0f,\x17\x81\xc8\xfc\xa8?'
p18
tp19
Rp20
ag17
(g10
S'\x8e_E7\xe3\xc3\xc4?'
p21
tp22
Rp23
aa(lp24
g17
(g10
S'\xb9\x90\x07\x8c\t%\xe1?'
p25
tp26
Rp27
ag17
(g10
S"?\x12H\xe1y'\xe1?"
p28
tp29
Rp30
aatp31
.