(cnumpy.core.multiarray
_reconstruct
p0
(cnumpy
ndarray
p1
(I0
tp2
S'b'
p3
tp4
Rp5
(I1
(I2
tp6
cnumpy
dtype
p7
(S'f8'
p8
I0
I1
tp9
Rp10
(I3
S'<'
p11
NNNI-1
I-1
I0
tp12
bI00
S'\xc9I\x8b\x11\x8f\xcf\xaa?;\\\xa1\xcf\xab{\xe0?'
p13
tp14
b(lp15
(lp16
cnumpy.core.multiarray
scalar
p17
(g10
S'T\xb5\x88\xa9\xec\r\xa2?'
p18
tp19
Rp20
ag17
(g10
S'\x1f\xef\xc6\xbc\x98\xc8\xb1?'
p21
tp22
Rp23
aa(lp24
g17
(g10
S'\xfd\xeb\x17z\xc7z\xe0?'
p25
tp26
Rp27
ag17
(g10
S'y\xcc*%\x90|\xe0?'
p28
tp29
Rp30
aatp31
.