(cnumpy.core.multiarray
_reconstruct
p0
(cnumpy
ndarray
p1
(I0
tp2
S'b'
p3
tp4
Rp5
(I1
(I2
tp6
cnumpy
dtype
p7
(S'f8'
p8
I0
I1
tp9
Rp10
(I3
S'<'
p11
NNNI-1
I-1
I0
tp12
bI00
S'\xbd\xf8<\t4\x8b\xa5?[\xe3\xe9\x19I\xb4\xe0?'
p13
tp14
b(lp15
(lp16
cnumpy.core.multiarray
scalar
p17
(g10
S'\xec\x96\xbcf\xb6\x17\x9b?'
p18
tp19
Rp20
ag17
(g10
S'\x04\xa6\x1b\xdf\x8c\x8a\xad?'
p21
tp22
Rp23
aa(lp24
g17
(g10
S'\xdfI#\xafI\xb3\xe0?'
p25
tp26
Rp27
ag17
(g10
S'\xd7|\xb0\x84H\xb5\xe0?'
p28
tp29
Rp30
aatp31
.