(cnumpy.core.multiarray
_reconstruct
p0
(cnumpy
ndarray
p1
(I0
tp2
S'b'
p3
tp4
Rp5
(I1
(I2
tp6
cnumpy
dtype
p7
(S'f8'
p8
I0
I1
tp9
Rp10
(I3
S'<'
p11
NNNI-1
I-1
I0
tp12
bI00
S'\xb7\xbb\\\xd8\xf7\xa3\xae?V$1\xa2\t\x9c\xe0?'
p13
tp14
b(lp15
(lp16
cnumpy.core.multiarray
scalar
p17
(g10
S'\x9e\x99\xd9\t\x80B\xa5?'
p18
tp19
Rp20
ag17
(g10
S'\xe8\xeeo\xd3\xb7\x02\xb4?'
p21
tp22
Rp23
aa(lp24
g17
(g10
S'\x86\xac\xe3s7\x9b\xe0?'
p25
tp26
Rp27
ag17
(g10
S'&\x9c~\xd0\xdb\x9c\xe0?'
p28
tp29
Rp30
aatp31
.