(cnumpy.core.multiarray
_reconstruct
p0
(cnumpy
ndarray
p1
(I0
tp2
S'b'
p3
tp4
Rp5
(I1
(I2
tp6
cnumpy
dtype
p7
(S'f8'
p8
I0
I1
tp9
Rp10
(I3
S'<'
p11
NNNI-1
I-1
I0
tp12
bI00
S'\xb8\x03\xads\x06\xd8\xc6?\xce!\xf9#\x9d\x9c\xe0?'
p13
tp14
b(lp15
(lp16
cnumpy.core.multiarray
scalar
p17
(g10
S'\xc8\x95U\xb1\x99[\xbb?'
p18
tp19
Rp20
ag17
(g10
S'F\x9eW\x07 \x01\xd0?'
p21
tp22
Rp23
aa(lp24
g17
(g10
S'\xe2\x12p\x93\xde\x9b\xe0?'
p25
tp26
Rp27
ag17
(g10
S'\xba0\x82\xb4[\x9d\xe0?'
p28
tp29
Rp30
aatp31
.