(cnumpy.core.multiarray
_reconstruct
p0
(cnumpy
ndarray
p1
(I0
tp2
S'b'
p3
tp4
Rp5
(I1
(I2
tp6
cnumpy
dtype
p7
(S'f8'
p8
I0
I1
tp9
Rp10
(I3
S'<'
p11
NNNI-1
I-1
I0
tp12
bI00
S'\xacG\xe92\xeb\x91\xb1?n)\x9a\x06\xc5\xa0\xe0?'
p13
tp14
b(lp15
(lp16
cnumpy.core.multiarray
scalar
p17
(g10
S'\x06G\xfac6\x86\x9e?'
p18
tp19
Rp20
ag17
(g10
S'\x96\xfd\xd3\xccH\x82\xbb?'
p21
tp22
Rp23
aa(lp24
g17
(g10
S'Tv\x89_H\x9f\xe0?'
p25
tp26
Rp27
ag17
(g10
S'\x88\xdc\xaa\xadA\xa2\xe0?'
p28
tp29
Rp30
aatp31
.