(cnumpy.core.multiarray
_reconstruct
p0
(cnumpy
ndarray
p1
(I0
tp2
S'b'
p3
tp4
Rp5
(I1
(I2
tp6
cnumpy
dtype
p7
(S'f8'
p8
I0
I1
tp9
Rp10
(I3
S'<'
p11
NNNI-1
I-1
I0
tp12
bI00
S'\x1e\x13\xc3\xcbbI\xb3?|\xcf\xbb\x19\xde\xbb\xe0?'
p13
tp14
b(lp15
(lp16
cnumpy.core.multiarray
scalar
p17
(g10
S'\xfc\xddS!\x86H\xaa?'
p18
tp19
Rp20
ag17
(g10
S'>7\xdc\x86\x82n\xb9?'
p21
tp22
Rp23
aa(lp24
g17
(g10
S'\x82\x0bC\xe6\x0c\xbb\xe0?'
p25
tp26
Rp27
ag17
(g10
S'v\x934M\xaf\xbc\xe0?'
p28
tp29
Rp30
aatp31
.