(cnumpy.core.multiarray
_reconstruct
p0
(cnumpy
ndarray
p1
(I0
tp2
S'b'
p3
tp4
Rp5
(I1
(I2
tp6
cnumpy
dtype
p7
(S'f8'
p8
I0
I1
tp9
Rp10
(I3
S'<'
p11
NNNI-1
I-1
I0
tp12
bI00
S'\x0b\xde\x85y\xe3\x0e\x96?\x88l\xd2P\xcet\xe0?'
p13
tp14
b(lp15
(lp16
cnumpy.core.multiarray
scalar
p17
(g10
S'k\xee\xe6\xe8,\xa9\x88?'
p18
tp19
Rp20
ag17
(g10
S'\xe0D\x98~0\xc9\x9f?'
p21
tp22
Rp23
aa(lp24
g17
(g10
S'\xa0/^\xf7\xc2s\xe0?'
p25
tp26
Rp27
ag17
(g10
S'p\xa9F\xaa\xd9u\xe0?'
p28
tp29
Rp30
aatp31
.