(cnumpy.core.multiarray
_reconstruct
p0
(cnumpy
ndarray
p1
(I0
tp2
S'b'
p3
tp4
Rp5
(I1
(I2
tp6
cnumpy
dtype
p7
(S'f8'
p8
I0
I1
tp9
Rp10
(I3
S'<'
p11
NNNI-1
I-1
I0
tp12
bI00
S'h\xe5A\xa9n\xcd\xd2?8\xf4\xaa\x9b\xaf\xba\xe0?'
p13
tp14
b(lp15
(lp16
cnumpy.core.multiarray
scalar
p17
(g10
S'@\xd5\xa62\xd1\xc2\xc0?'
p18
tp19
Rp20
ag17
(g10
S'0`0\xb9t9\xdd?'
p21
tp22
Rp23
aa(lp24
g17
(g10
S'(\x12AP\xef\xb9\xe0?'
p25
tp26
Rp27
ag17
(g10
S'H\xd6\x14\xe7o\xbb\xe0?'
p28
tp29
Rp30
aatp31
.