(cnumpy.core.multiarray
_reconstruct
p0
(cnumpy
ndarray
p1
(I0
tp2
S'b'
p3
tp4
Rp5
(I1
(I2
tp6
cnumpy
dtype
p7
(S'f8'
p8
I0
I1
tp9
Rp10
(I3
S'<'
p11
NNNI-1
I-1
I0
tp12
bI00
S'+\xf3\x95\x94!\x8e\xb9?@\x97\x92<\xae\x9f\xe0?'
p13
tp14
b(lp15
(lp16
cnumpy.core.multiarray
scalar
p17
(g10
S'\x84\xfd\xf5\x1b\x91]\xa3?'
p18
tp19
Rp20
ag17
(g10
S'\xcas\x98M\xbd\xb6\xc4?'
p21
tp22
Rp23
aa(lp24
g17
(g10
S'\xd5s3\x9a1\x9e\xe0?'
p25
tp26
Rp27
ag17
(g10
S'\xab\xba\xf1\xde*\xa1\xe0?'
p28
tp29
Rp30
aatp31
.