(cnumpy.core.multiarray
_reconstruct
p0
(cnumpy
ndarray
p1
(I0
tp2
S'b'
p3
tp4
Rp5
(I1
(I2
tp6
cnumpy
dtype
p7
(S'f8'
p8
I0
I1
tp9
Rp10
(I3
S'<'
p11
NNNI-1
I-1
I0
tp12
bI00
S'(K\x19\xee\xa2.\xa1?D\xbc\\\xcb1f\xe0?'
p13
tp14
b(lp15
(lp16
cnumpy.core.multiarray
scalar
p17
(g10
S'<\xa0\xe7M\x17\xf9\x96?'
p18
tp19
Rp20
ag17
(g10
S'2\xc6>5\xba\xe0\xa6?'
p21
tp22
Rp23
aa(lp24
g17
(g10
S'U\xd6\xc9\xfaNe\xe0?'
p25
tp26
Rp27
ag17
(g10
S'3\xa2\xef\x9b\x14g\xe0?'
p28
tp29
Rp30
aatp31
.