(cnumpy.core.multiarray
_reconstruct
p0
(cnumpy
ndarray
p1
(I0
tp2
S'b'
p3
tp4
Rp5
(I1
(I2
tp6
cnumpy
dtype
p7
(S'f8'
p8
I0
I1
tp9
Rp10
(I3
S'<'
p11
NNNI-1
I-1
I0
tp12
bI00
S'*\xc3V]\xcfY\xbc?F+#F\x07\x97\xe0?'
p13
tp14
b(lp15
(lp16
cnumpy.core.multiarray
scalar
p17
(g10
S'h\xe0\xc5V\xb8?\xb4?'
p18
tp19
Rp20
ag17
(g10
S'\xf6\xd2\xf31\xf39\xc2?'
p21
tp22
Rp23
aa(lp24
g17
(g10
S'\xef\xa0\xcf\x07^\x96\xe0?'
p25
tp26
Rp27
ag17
(g10
S'\x9d\xb5v\x84\xb0\x97\xe0?'
p28
tp29
Rp30
aatp31
.