(cnumpy.core.multiarray
_reconstruct
p0
(cnumpy
ndarray
p1
(I0
tp2
S'b'
p3
tp4
Rp5
(I1
(I2
tp6
cnumpy
dtype
p7
(S'f8'
p8
I0
I1
tp9
Rp10
(I3
S'<'
p11
NNNI-1
I-1
I0
tp12
bI00
S'S\x1fZ\xedJ\xaf\xa6?^:\xbc\xf6v\xc9\xe0?'
p13
tp14
b(lp15
(lp16
cnumpy.core.multiarray
scalar
p17
(g10
S'w\x0b~\xfc\x8e\x80\xa1?'
p18
tp19
Rp20
ag17
(g10
S'/36\xde\x06\xde\xab?'
p21
tp22
Rp23
aa(lp24
g17
(g10
S'\xf6y\xba>\xda\xc8\xe0?'
p25
tp26
Rp27
ag17
(g10
S'\xc6\xfa\xbd\xae\x13\xca\xe0?'
p28
tp29
Rp30
aatp31
.