(cnumpy.core.multiarray
_reconstruct
p0
(cnumpy
ndarray
p1
(I0
tp2
S'b'
p3
tp4
Rp5
(I1
(I2
tp6
cnumpy
dtype
p7
(S'f8'
p8
I0
I1
tp9
Rp10
(I3
S'<'
p11
NNNI-1
I-1
I0
tp12
bI00
S'\x19\xd5\x7f\x1d\x84W\xa6?\x10z\xaa\x88\x0bk\xe0?'
p13
tp14
b(lp15
(lp16
cnumpy.core.multiarray
scalar
p17
(g10
S'\xaa.=\x05\xfd\x1b\xa0?'
p18
tp19
Rp20
ag17
(g10
S'\x88{\xc25\x0b\x93\xac?'
p21
tp22
Rp23
aa(lp24
g17
(g10
S'\x1bqg\xa5Gj\xe0?'
p25
tp26
Rp27
ag17
(g10
S'\x05\x83\xedk\xcfk\xe0?'
p28
tp29
Rp30
aatp31
.