(cnumpy.core.multiarray
_reconstruct
p0
(cnumpy
ndarray
p1
(I0
tp2
S'b'
p3
tp4
Rp5
(I1
(I2
tp6
cnumpy
dtype
p7
(S'f8'
p8
I0
I1
tp9
Rp10
(I3
S'<'
p11
NNNI-1
I-1
I0
tp12
bI00
S'7E\xae\x8b\xaa\n\xde?\xa3\xc4z\xb2\x88s\xe0?'
p13
tp14
b(lp15
(lp16
cnumpy.core.multiarray
scalar
p17
(g10
S'hZ\x0f[r\xb4\xa1\xbf'
p18
tp19
Rp20
ag17
(g10
S'\xde:_\xb1\xf1%\xef?'
p21
tp22
Rp23
aa(lp24
g17
(g10
S'\x82\x05>\xf6{r\xe0?'
p25
tp26
Rp27
ag17
(g10
S'\xc4\x83\xb7n\x95t\xe0?'
p28
tp29
Rp30
aatp31
.