(cnumpy.core.multiarray
_reconstruct
p0
(cnumpy
ndarray
p1
(I0
tp2
S'b'
p3
tp4
Rp5
(I1
(I2
tp6
cnumpy
dtype
p7
(S'f8'
p8
I0
I1
tp9
Rp10
(I3
S'<'
p11
NNNI-1
I-1
I0
tp12
bI00
S'\xf3\xae:86h\xb5?\x99\xa6\xf3\xfa\xa8\x83\xe0?'
p13
tp14
b(lp15
(lp16
cnumpy.core.multiarray
scalar
p17
(g10
S'\xd5\xd9lG\xf44\xa2?'
p18
tp19
Rp20
ag17
(g10
S'~x_&\xf9\xda\xc0?'
p21
tp22
Rp23
aa(lp24
g17
(g10
S'.\x9f<\\3\x82\xe0?'
p25
tp26
Rp27
ag17
(g10
S'\x04\xae\xaa\x99\x1e\x85\xe0?'
p28
tp29
Rp30
aatp31
.