(cnumpy.core.multiarray
_reconstruct
p0
(cnumpy
ndarray
p1
(I0
tp2
S'b'
p3
tp4
Rp5
(I1
(I2
tp6
cnumpy
dtype
p7
(S'f8'
p8
I0
I1
tp9
Rp10
(I3
S'<'
p11
NNNI-1
I-1
I0
tp12
bI00
S's\xe7\xe5\xa3\x1db\xb9?\x9d\x08\x94\xee\xd6\x96\xe0?'
p13
tp14
b(lp15
(lp16
cnumpy.core.multiarray
scalar
p17
(g10
S'\xb0 \xeb\xc4\x86\x7f\xb2?'
p18
tp19
Rp20
ag17
(g10
S'\x1bWpAZ"\xc0?'
p21
tp22
Rp23
aa(lp24
g17
(g10
S'R\xbe\xbc\xf5/\x96\xe0?'
p25
tp26
Rp27
ag17
(g10
S'\xe8Rk\xe7}\x97\xe0?'
p28
tp29
Rp30
aatp31
.