(cnumpy.core.multiarray
_reconstruct
p0
(cnumpy
ndarray
p1
(I0
tp2
S'b'
p3
tp4
Rp5
(I1
(I2
tp6
cnumpy
dtype
p7
(S'f8'
p8
I0
I1
tp9
Rp10
(I3
S'<'
p11
NNNI-1
I-1
I0
tp12
bI00
S'z\xbaD\x18?^\xb7?\xc3Y\xfeqa\xcc\xe0?'
p13
tp14
b(lp15
(lp16
cnumpy.core.multiarray
scalar
p17
(g10
S'h\xc7Y\xca:\xfc\xae?'
p18
tp19
Rp20
ag17
(g10
S'@\x91\\\xcb`>\xbf?'
p21
tp22
Rp23
aa(lp24
g17
(g10
S'\x9f\x01\xcd|\x8f\xcb\xe0?'
p25
tp26
Rp27
ag17
(g10
S'\xe7\xb1/g3\xcd\xe0?'
p28
tp29
Rp30
aatp31
.