(cnumpy.core.multiarray
_reconstruct
p0
(cnumpy
ndarray
p1
(I0
tp2
S'b'
p3
tp4
Rp5
(I1
(I2
tp6
cnumpy
dtype
p7
(S'f8'
p8
I0
I1
tp9
Rp10
(I3
S'<'
p11
NNNI-1
I-1
I0
tp12
bI00
S'\xe7\\$o\xd1\xec\xaf?\xd6\xd7\x9f\x1e--\xe0?'
p13
tp14
b(lp15
(lp16
cnumpy.core.multiarray
scalar
p17
(g10
S'\xa0\xdf\xacd2\xd6\x9e?'
p18
tp19
Rp20
ag17
(g10
S'\xff$\xf9\xd5D7\xb8?'
p21
tp22
Rp23
aa(lp24
g17
(g10
S'M\xadT\xe5\xc1+\xe0?'
p25
tp26
Rp27
ag17
(g10
S'_\x02\xebW\x98.\xe0?'
p28
tp29
Rp30
aatp31
.