(cnumpy.core.multiarray
_reconstruct
p0
(cnumpy
ndarray
p1
(I0
tp2
S'b'
p3
tp4
Rp5
(I1
(I2
tp6
cnumpy
dtype
p7
(S'f8'
p8
I0
I1
tp9
Rp10
(I3
S'<'
p11
NNNI-1
I-1
I0
tp12
bI00
S'\x9d\xb91\xc3\xe89\xb4?\x7f\xee\x8e\t&\xb6\xe0?'
p13
tp14
b(lp15
(lp16
cnumpy.core.multiarray
scalar
p17
(g10
S')\xe0q}!\xdf\xae?'
p18
tp19
Rp20
ag17
(g10
S'&\x83\xaa\xc7@\x04\xb9?'
p21
tp22
Rp23
aa(lp24
g17
(g10
S'\xc1\xe8\xce\xec\x8b\xb5\xe0?'
p25
tp26
Rp27
ag17
(g10
S'=\xf4N&\xc0\xb6\xe0?'
p28
tp29
Rp30
aatp31
.