(cnumpy.core.multiarray
_reconstruct
p0
(cnumpy
ndarray
p1
(I0
tp2
S'b'
p3
tp4
Rp5
(I1
(I2
tp6
cnumpy
dtype
p7
(S'f8'
p8
I0
I1
tp9
Rp10
(I3
S'<'
p11
NNNI-1
I-1
I0
tp12
bI00
S"\x9d\xaag\x1b\xbf\x1d\x81?\x07\xd9l\xf5'\x9d\xe0?"
p13
tp14
b(lp15
(lp16
cnumpy.core.multiarray
scalar
p17
(g10
S'\xb6\x00\xd3\xce#4q?'
p18
tp19
Rp20
ag17
(g10
S'\xdf\xd4eOl\xa1\x89?'
p21
tp22
Rp23
aa(lp24
g17
(g10
S'\xe9\xd9R`t\x9c\xe0?'
p25
tp26
Rp27
ag17
(g10
S'%\xd8\x86\x8a\xdb\x9d\xe0?'
p28
tp29
Rp30
aatp31
.