(cnumpy.core.multiarray
_reconstruct
p0
(cnumpy
ndarray
p1
(I0
tp2
S'b'
p3
tp4
Rp5
(I1
(I2
tp6
cnumpy
dtype
p7
(S'f8'
p8
I0
I1
tp9
Rp10
(I3
S'<'
p11
NNNI-1
I-1
I0
tp12
bI00
S'\x1f\x91F\xe8+\xe0\xac?\x18\x0eH :\x85\xe0?'
p13
tp14
b(lp15
(lp16
cnumpy.core.multiarray
scalar
p17
(g10
S'\x02\xef\xa9\xc0\n\xb9\xa1?'
p18
tp19
Rp20
ag17
(g10
S'\x9e\x99\xf1\x87\xa6\x03\xb4?'
p21
tp22
Rp23
aa(lp24
g17
(g10
S'WY\x02\xf8-\x84\xe0?'
p25
tp26
Rp27
ag17
(g10
S'\xd9\xc2\x8dHF\x86\xe0?'
p28
tp29
Rp30
aatp31
.