(cnumpy.core.multiarray
_reconstruct
p0
(cnumpy
ndarray
p1
(I0
tp2
S'b'
p3
tp4
Rp5
(I1
(I2
tp6
cnumpy
dtype
p7
(S'f8'
p8
I0
I1
tp9
Rp10
(I3
S'<'
p11
NNNI-1
I-1
I0
tp12
bI00
S'\x0b\x19K\xb3\xb3\xd8\x82?\xab\xd7k\xe3\x17t\xe0?'
p13
tp14
b(lp15
(lp16
cnumpy.core.multiarray
scalar
p17
(g10
S'\xb8q\x9bH\xc7\xa7V?'
p18
tp19
Rp20
ag17
(g10
S'\xf0a\xc1>7n\x91?'
p21
tp22
Rp23
aa(lp24
g17
(g10
S'\x88\xbe\xb3(\xcdr\xe0?'
p25
tp26
Rp27
ag17
(g10
S'\xce\xf0#\x9ebu\xe0?'
p28
tp29
Rp30
aatp31
.