(cnumpy.core.multiarray
_reconstruct
p0
(cnumpy
ndarray
p1
(I0
tp2
S'b'
p3
tp4
Rp5
(I1
(I2
tp6
cnumpy
dtype
p7
(S'f8'
p8
I0
I1
tp9
Rp10
(I3
S'<'
p11
NNNI-1
I-1
I0
tp12
bI00
S'\xf9x\x12\xb2\x08\xe6\xa3?\xd4\xf4j\xc7\xb5\xbd\xe0?'
p13
tp14
b(lp15
(lp16
cnumpy.core.multiarray
scalar
p17
(g10
S'\xb8L\x96\xe4\xd1\x15\x9f?'
p18
tp19
Rp20
ag17
(g10
S'\x96\xcb\xd9q(A\xa8?'
p21
tp22
Rp23
aa(lp24
g17
(g10
S'hJ\xb6q \xbd\xe0?'
p25
tp26
Rp27
ag17
(g10
S'@\x9f\x1f\x1dK\xbe\xe0?'
p28
tp29
Rp30
aatp31
.