(cnumpy.core.multiarray
_reconstruct
p0
(cnumpy
ndarray
p1
(I0
tp2
S'b'
p3
tp4
Rp5
(I1
(I2
tp6
cnumpy
dtype
p7
(S'f8'
p8
I0
I1
tp9
Rp10
(I3
S'<'
p11
NNNI-1
I-1
I0
tp12
bI00
S'\xc1q\x1b\xfd\x1e\xb7\xa0?e\xb8\xf2\xae\x0b\x8e\xe0?'
p13
tp14
b(lp15
(lp16
cnumpy.core.multiarray
scalar
p17
(g10
S'.\xe8v) \xf1\x95?'
p18
tp19
Rp20
ag17
(g10
S'ko{\xe5\xadu\xa6?'
p21
tp22
Rp23
aa(lp24
g17
(g10
S'*\x7f\x0e\xfb#\x8d\xe0?'
p25
tp26
Rp27
ag17
(g10
S'\xa0\xf1\xd6b\xf3\x8e\xe0?'
p28
tp29
Rp30
aatp31
.