(cnumpy.core.multiarray
_reconstruct
p0
(cnumpy
ndarray
p1
(I0
tp2
S'b'
p3
tp4
Rp5
(I1
(I2
tp6
cnumpy
dtype
p7
(S'f8'
p8
I0
I1
tp9
Rp10
(I3
S'<'
p11
NNNI-1
I-1
I0
tp12
bI00
S'\xda\xd8\x93\r/g\xb0?\x932\x1c8h\xba\xe0?'
p13
tp14
b(lp15
(lp16
cnumpy.core.multiarray
scalar
p17
(g10
S'\x99\xe4j\xac\x9b\x0b\xa2?'
p18
tp19
Rp20
ag17
(g10
S'h?\xf2D\x90\xc8\xb7?'
p21
tp22
Rp23
aa(lp24
g17
(g10
S'A\x9bQ>8\xb9\xe0?'
p25
tp26
Rp27
ag17
(g10
S'\xe5\xc9\xe61\x98\xbb\xe0?'
p28
tp29
Rp30
aatp31
.