(cnumpy.core.multiarray
_reconstruct
p0
(cnumpy
ndarray
p1
(I0
tp2
S'b'
p3
tp4
Rp5
(I1
(I2
tp6
cnumpy
dtype
p7
(S'f8'
p8
I0
I1
tp9
Rp10
(I3
S'<'
p11
NNNI-1
I-1
I0
tp12
bI00
S'\xe8\x89a\x0c\x06\xa4\xa2?gZ\x16Fr\x9d\xe0?'
p13
tp14
b(lp15
(lp16
cnumpy.core.multiarray
scalar
p17
(g10
S'\xfeE\x1fh\x84\xe5\x9b?'
p18
tp19
Rp20
ag17
(g10
S'\xd1p\xb3\xe4IU\xa7?'
p21
tp22
Rp23
aa(lp24
g17
(g10
S'T^\x99b\xc6\x9c\xe0?'
p25
tp26
Rp27
ag17
(g10
S'zV\x93)\x1e\x9e\xe0?'
p28
tp29
Rp30
aatp31
.