(cnumpy.core.multiarray
_reconstruct
p0
(cnumpy
ndarray
p1
(I0
tp2
S'b'
p3
tp4
Rp5
(I1
(I2
tp6
cnumpy
dtype
p7
(S'f8'
p8
I0
I1
tp9
Rp10
(I3
S'<'
p11
NNNI-1
I-1
I0
tp12
bI00
S'\xa5\x8c\xc4\x91\xd29\xb5?\r\xc2\xdb"6\xd4\xe0?'
p13
tp14
b(lp15
(lp16
cnumpy.core.multiarray
scalar
p17
(g10
S'\xa0N\x9c\x8fG\xe4\xaf?'
p18
tp19
Rp20
ag17
(g10
S'\xfa\xf1\xba[\x81\x81\xba?'
p21
tp22
Rp23
aa(lp24
g17
(g10
S'W<\x0c`\x97\xd3\xe0?'
p25
tp26
Rp27
ag17
(g10
S'\xc3G\xab\xe5\xd4\xd4\xe0?'
p28
tp29
Rp30
aatp31
.