(cnumpy.core.multiarray
_reconstruct
p0
(cnumpy
ndarray
p1
(I0
tp2
S'b'
p3
tp4
Rp5
(I1
(I2
tp6
cnumpy
dtype
p7
(S'f8'
p8
I0
I1
tp9
Rp10
(I3
S'<'
p11
NNNI-1
I-1
I0
tp12
bI00
S'V\x05\x02\xf4v!\xb3?"\xa2\xf7\xaa\xfb\x9b\xe0?'
p13
tp14
b(lp15
(lp16
cnumpy.core.multiarray
scalar
p17
(g10
S'\xe6\xfa:\xb9/\xf9\xac?'
p18
tp19
Rp20
ag17
(g10
S'9\x8df\x0bV\xc6\xb7?'
p21
tp22
Rp23
aa(lp24
g17
(g10
S'Q\xe1\x97\xb4Z\x9b\xe0?'
p25
tp26
Rp27
ag17
(g10
S'\xf3bW\xa1\x9c\x9c\xe0?'
p28
tp29
Rp30
aatp31
.