(cnumpy.core.multiarray
_reconstruct
p0
(cnumpy
ndarray
p1
(I0
tp2
S'b'
p3
tp4
Rp5
(I1
(I2
tp6
cnumpy
dtype
p7
(S'f8'
p8
I0
I1
tp9
Rp10
(I3
S'<'
p11
NNNI-1
I-1
I0
tp12
bI00
S'\x8d\xd4\x1e\x9d\xc7\xb4\xb5?N\x17\xec\xec\t\x94\xe0?'
p13
tp14
b(lp15
(lp16
cnumpy.core.multiarray
scalar
p17
(g10
S'3\x13\x84\x02\xde4\xae?'
p18
tp19
Rp20
ag17
(g10
S'\x80\x9f\xfb8 O\xbc?'
p21
tp22
Rp23
aa(lp24
g17
(g10
S'i\xe5\xbd\xb3E\x93\xe0?'
p25
tp26
Rp27
ag17
(g10
S'3I\x1a&\xce\x94\xe0?'
p28
tp29
Rp30
aatp31
.