(cnumpy.core.multiarray
_reconstruct
p0
(cnumpy
ndarray
p1
(I0
tp2
S'b'
p3
tp4
Rp5
(I1
(I2
tp6
cnumpy
dtype
p7
(S'f8'
p8
I0
I1
tp9
Rp10
(I3
S'<'
p11
NNNI-1
I-1
I0
tp12
bI00
S'.e\xd3\x81Ti\xa6?\x90g\xaf\xf0h\x99\xe0?'
p13
tp14
b(lp15
(lp16
cnumpy.core.multiarray
scalar
p17
(g10
S'5Ly\x0e\xde\xe6\xa0?'
p18
tp19
Rp20
ag17
(g10
S"'~-\xf5\xca\xeb\xab?"
p21
tp22
Rp23
aa(lp24
g17
(g10
S'\xc3\xa4\xbeK\xbe\x98\xe0?'
p25
tp26
Rp27
ag17
(g10
S']*\xa0\x95\x13\x9a\xe0?'
p28
tp29
Rp30
aatp31
.