(cnumpy.core.multiarray
_reconstruct
p0
(cnumpy
ndarray
p1
(I0
tp2
S'b'
p3
tp4
Rp5
(I1
(I2
tp6
cnumpy
dtype
p7
(S'f8'
p8
I0
I1
tp9
Rp10
(I3
S'<'
p11
NNNI-1
I-1
I0
tp12
bI00
S"'\xc2\xd8\xc9A\xbd\xb3?\x87c\t\xc8\xd9\xbd\xe0?"
p13
tp14
b(lp15
(lp16
cnumpy.core.multiarray
scalar
p17
(g10
S'\x18#{A\xd2\xf4\xac?'
p18
tp19
Rp20
ag17
(g10
S'\xc2\xf2\xf3r\x1a\x00\xb9?'
p21
tp22
Rp23
aa(lp24
g17
(g10
S'|\x03\xf1\xbc+\xbd\xe0?'
p25
tp26
Rp27
ag17
(g10
S'\x92\xc3!\xd3\x87\xbe\xe0?'
p28
tp29
Rp30
aatp31
.