(cnumpy.core.multiarray
_reconstruct
p0
(cnumpy
ndarray
p1
(I0
tp2
S'b'
p3
tp4
Rp5
(I1
(I2
tp6
cnumpy
dtype
p7
(S'f8'
p8
I0
I1
tp9
Rp10
(I3
S'<'
p11
NNNI-1
I-1
I0
tp12
bI00
S'\xf8\xeb\x1cA\x8f\x08\x9e?\xb5du\x10\x1f\x1f\xe1?'
p13
tp14
b(lp15
(lp16
cnumpy.core.multiarray
scalar
p17
(g10
S'0y\x95\x98V8\x8b?'
p18
tp19
Rp20
ag17
(g10
S'\xac\x8d\xf7\x9ay:\xa7?'
p21
tp22
Rp23
aa(lp24
g17
(g10
S'\xf3\xa6\xc4\x81\xc3\x1d\xe1?'
p25
tp26
Rp27
ag17
(g10
S'w"&\x9fz \xe1?'
p28
tp29
Rp30
aatp31
.