(cnumpy.core.multiarray
_reconstruct
p0
(cnumpy
ndarray
p1
(I0
tp2
S'b'
p3
tp4
Rp5
(I1
(I2
tp6
cnumpy
dtype
p7
(S'f8'
p8
I0
I1
tp9
Rp10
(I3
S'<'
p11
NNNI-1
I-1
I0
tp12
bI00
S'>K;\xfd \xec\x99?\xa3\xbf\x1f\xb0|\xe4\xe0?'
p13
tp14
b(lp15
(lp16
cnumpy.core.multiarray
scalar
p17
(g10
S'v\x86\xc7\xdc\xbd\xd6\x92?'
p18
tp19
Rp20
ag17
(g10
S'\x03\x88\xd7\x0e\xc2\x80\xa0?'
p21
tp22
Rp23
aa(lp24
g17
(g10
S'\xfa}U\xf2\xd2\xe3\xe0?'
p25
tp26
Rp27
ag17
(g10
S'L\x01\xeam&\xe5\xe0?'
p28
tp29
Rp30
aatp31
.