(cnumpy.core.multiarray
_reconstruct
p0
(cnumpy
ndarray
p1
(I0
tp2
S'b'
p3
tp4
Rp5
(I1
(I2
tp6
cnumpy
dtype
p7
(S'f8'
p8
I0
I1
tp9
Rp10
(I3
S'<'
p11
NNNI-1
I-1
I0
tp12
bI00
S'm\xff\xdf\xb4\xf5\xf8\xb3?\x84V\x02e\xda\xa5\xe0?'
p13
tp14
b(lp15
(lp16
cnumpy.core.multiarray
scalar
p17
(g10
S'\xeaU\x14=8a\xa8?'
p18
tp19
Rp20
ag17
(g10
S'\xe5\xd35KO\xc1\xbb?'
p21
tp22
Rp23
aa(lp24
g17
(g10
S'%;\xa6\x0c\xdb\xa4\xe0?'
p25
tp26
Rp27
ag17
(g10
S'\xe3q^\xbd\xd9\xa6\xe0?'
p28
tp29
Rp30
aatp31
.