(cnumpy.core.multiarray
_reconstruct
p0
(cnumpy
ndarray
p1
(I0
tp2
S'b'
p3
tp4
Rp5
(I1
(I2
tp6
cnumpy
dtype
p7
(S'f8'
p8
I0
I1
tp9
Rp10
(I3
S'<'
p11
NNNI-1
I-1
I0
tp12
bI00
S'\xe1\xec\xd6oL\xd2\xd6?\x94\x89\x81\x05\x19u\xe0?'
p13
tp14
b(lp15
(lp16
cnumpy.core.multiarray
scalar
p17
(g10
S'LF\xe5\xc5g\xce\xb2?'
p18
tp19
Rp20
ag17
(g10
S'\x18D\x1aw\x7fx\xe4?'
p21
tp22
Rp23
aa(lp24
g17
(g10
S'D\xfc0t$t\xe0?'
p25
tp26
Rp27
ag17
(g10
S'\xe4\x16\xd2\x96\rv\xe0?'
p28
tp29
Rp30
aatp31
.