(cnumpy.core.multiarray
_reconstruct
p0
(cnumpy
ndarray
p1
(I0
tp2
S'b'
p3
tp4
Rp5
(I1
(I2
tp6
cnumpy
dtype
p7
(S'f8'
p8
I0
I1
tp9
Rp10
(I3
S'<'
p11
NNNI-1
I-1
I0
tp12
bI00
S'Y\x95\xf1~jM\xab?\xf3\xe9\x12\xdcs\x7f\xe0?'
p13
tp14
b(lp15
(lp16
cnumpy.core.multiarray
scalar
p17
(g10
S'\xe9\xcb\xb0\x95\x9a\xed\xa3?'
p18
tp19
Rp20
ag17
(g10
S'e/\x194\x9dV\xb1?'
p21
tp22
Rp23
aa(lp24
g17
(g10
S'M\xdd\x9f_\xb7~\xe0?'
p25
tp26
Rp27
ag17
(g10
S'\x99\xf6\x85X0\x80\xe0?'
p28
tp29
Rp30
aatp31
.