(cnumpy.core.multiarray
_reconstruct
p0
(cnumpy
ndarray
p1
(I0
tp2
S'b'
p3
tp4
Rp5
(I1
(I2
tp6
cnumpy
dtype
p7
(S'f8'
p8
I0
I1
tp9
Rp10
(I3
S'<'
p11
NNNI-1
I-1
I0
tp12
bI00
S'\xf6\xb3\xd2\xdaZ\x9c\xb0?f\x92R:\xf4\xfb\xe0?'
p13
tp14
b(lp15
(lp16
cnumpy.core.multiarray
scalar
p17
(g10
S'\xae\x1d\x97x\xdcY\x91?'
p18
tp19
Rp20
ag17
(g10
S'\x80\xa0\x7f\x97>\xe2\xbc?'
p21
tp22
Rp23
aa(lp24
g17
(g10
S'\xb6\x0bSK\n\xfa\xe0?'
p25
tp26
Rp27
ag17
(g10
S'\x16\x19R)\xde\xfd\xe0?'
p28
tp29
Rp30
aatp31
.