(cnumpy.core.multiarray
_reconstruct
p0
(cnumpy
ndarray
p1
(I0
tp2
S'b'
p3
tp4
Rp5
(I1
(I2
tp6
cnumpy
dtype
p7
(S'f8'
p8
I0
I1
tp9
Rp10
(I3
S'<'
p11
NNNI-1
I-1
I0
tp12
bI00
S'\x97Cs\x9ak\xe9\xb3?\x13\x0bc\x9fQ\xb7\xe0?'
p13
tp14
b(lp15
(lp16
cnumpy.core.multiarray
scalar
p17
(g10
S'6\xba\x8a\xe6\xb0\xc8\xae?'
p18
tp19
Rp20
ag17
(g10
S'\x13*\xa1\xc1~n\xb8?'
p21
tp22
Rp23
aa(lp24
g17
(g10
S'!\x1b\xb1o\xbd\xb6\xe0?'
p25
tp26
Rp27
ag17
(g10
S'\x05\xfb\x14\xcf\xe5\xb7\xe0?'
p28
tp29
Rp30
aatp31
.