(cnumpy.core.multiarray
_reconstruct
p0
(cnumpy
ndarray
p1
(I0
tp2
S'b'
p3
tp4
Rp5
(I1
(I2
tp6
cnumpy
dtype
p7
(S'f8'
p8
I0
I1
tp9
Rp10
(I3
S'<'
p11
NNNI-1
I-1
I0
tp12
bI00
S'\xdf\xc8\xfe$\xa2\xa0\xab?r\x9d\xf1}\xd5|\xe0?'
p13
tp14
b(lp15
(lp16
cnumpy.core.multiarray
scalar
p17
(g10
S'\xd8`0\x97\xd4\xe7\xa0?'
p18
tp19
Rp20
ag17
(g10
S's\x98f\xd9\xb7,\xb3?'
p21
tp22
Rp23
aa(lp24
g17
(g10
S'\x8f\x83\xd8\xa9\xc6{\xe0?'
p25
tp26
Rp27
ag17
(g10
S'U\xb7\nR\xe4}\xe0?'
p28
tp29
Rp30
aatp31
.