(cnumpy.core.multiarray
_reconstruct
p0
(cnumpy
ndarray
p1
(I0
tp2
S'b'
p3
tp4
Rp5
(I1
(I2
tp6
cnumpy
dtype
p7
(S'f8'
p8
I0
I1
tp9
Rp10
(I3
S'<'
p11
NNNI-1
I-1
I0
tp12
bI00
S'\xf1\x9f\xa2\x08\xcfQ\xab?V\x9eFu$\x8b\xe0?'
p13
tp14
b(lp15
(lp16
cnumpy.core.multiarray
scalar
p17
(g10
S'\x8e8\xc2-N\x1d\xa5?'
p18
tp19
Rp20
ag17
(g10
S"\xaa\x83\xc1\xf1'\xc3\xb0?"
p21
tp22
Rp23
aa(lp24
g17
(g10
S"\xf6'\x84m\x86\x8a\xe0?"
p25
tp26
Rp27
ag17
(g10
S'\xb6\x14\t}\xc2\x8b\xe0?'
p28
tp29
Rp30
aatp31
.