(cnumpy.core.multiarray
_reconstruct
p0
(cnumpy
ndarray
p1
(I0
tp2
S'b'
p3
tp4
Rp5
(I1
(I2
tp6
cnumpy
dtype
p7
(S'f8'
p8
I0
I1
tp9
Rp10
(I3
S'<'
p11
NNNI-1
I-1
I0
tp12
bI00
S'\xb3\xb6J\x13R\xc6\xc7?3*\x9e\xba\xbd\x8f\xe0?'
p13
tp14
b(lp15
(lp16
cnumpy.core.multiarray
scalar
p17
(g10
S't\xdb\xc9\xba\x0e\xd7\xa8?'
p18
tp19
Rp20
ag17
(g10
S'D{\xf1;p\xab\xd4?'
p21
tp22
Rp23
aa(lp24
g17
(g10
S'\x92\xcc\xd0He\x8e\xe0?'
p25
tp26
Rp27
ag17
(g10
S'\xd4\x87k,\x16\x91\xe0?'
p28
tp29
Rp30
aatp31
.