(cnumpy.core.multiarray
_reconstruct
p0
(cnumpy
ndarray
p1
(I0
tp2
S'b'
p3
tp4
Rp5
(I1
(I2
tp6
cnumpy
dtype
p7
(S'f8'
p8
I0
I1
tp9
Rp10
(I3
S'<'
p11
NNNI-1
I-1
I0
tp12
bI00
S'\xe0ki\xb5\xe9\x01\xb3?\x90\x90\xda\xc6E\x8b\xe0?'
p13
tp14
b(lp15
(lp16
cnumpy.core.multiarray
scalar
p17
(g10
S'T\x95\xef\x0e\x0f\xd0\xaa?'
p18
tp19
Rp20
ag17
(g10
S'\x16\r[\xe3\xcb\x9b\xb8?'
p21
tp22
Rp23
aa(lp24
g17
(g10
S'>nZK\x81\x8a\xe0?'
p25
tp26
Rp27
ag17
(g10
S'\xe2\xb2ZB\n\x8c\xe0?'
p28
tp29
Rp30
aatp31
.