(cnumpy.core.multiarray
_reconstruct
p0
(cnumpy
ndarray
p1
(I0
tp2
S'b'
p3
tp4
Rp5
(I1
(I2
tp6
cnumpy
dtype
p7
(S'f8'
p8
I0
I1
tp9
Rp10
(I3
S'<'
p11
NNNI-1
I-1
I0
tp12
bI00
S'\xd7\xe9\x81\xaa\x06\xbc\xa1?\xc4-\xa5,\x91\x91\xe0?'
p13
tp14
b(lp15
(lp16
cnumpy.core.multiarray
scalar
p17
(g10
S'\xe0\x94\\X\x82\xe2\x93?'
p18
tp19
Rp20
ag17
(g10
S'>\x89\xd5(\xcc\x86\xa9?'
p21
tp22
Rp23
aa(lp24
g17
(g10
S'q+\x10Rf\x90\xe0?'
p25
tp26
Rp27
ag17
(g10
S'\x170:\x07\xbc\x92\xe0?'
p28
tp29
Rp30
aatp31
.