(cnumpy.core.multiarray
_reconstruct
p0
(cnumpy
ndarray
p1
(I0
tp2
S'b'
p3
tp4
Rp5
(I1
(I2
tp6
cnumpy
dtype
p7
(S'f8'
p8
I0
I1
tp9
Rp10
(I3
S'<'
p11
NNNI-1
I-1
I0
tp12
bI00
S'\xe7P\x15x\x82\xaa\xc8?Y>m\x92\xcf\xc5\xe0?'
p13
tp14
b(lp15
(lp16
cnumpy.core.multiarray
scalar
p17
(g10
S'\xd6[\x84\x99\x02\xdf\xb8?'
p18
tp19
Rp20
ag17
(g10
S'\xf29\xb4\xd1\xc1r\xd2?'
p21
tp22
Rp23
aa(lp24
g17
(g10
S'\xc0T\xb96\xf0\xc4\xe0?'
p25
tp26
Rp27
ag17
(g10
S"\xf2'!\xee\xae\xc6\xe0?"
p28
tp29
Rp30
aatp31
.