(cnumpy.core.multiarray
_reconstruct
p0
(cnumpy
ndarray
p1
(I0
tp2
S'b'
p3
tp4
Rp5
(I1
(I2
tp6
cnumpy
dtype
p7
(S'f8'
p8
I0
I1
tp9
Rp10
(I3
S'<'
p11
NNNI-1
I-1
I0
tp12
bI00
S'u\xab\x15@hg\x9a?h\xe8\xb3t\xf2\x98\xe0?'
p13
tp14
b(lp15
(lp16
cnumpy.core.multiarray
scalar
p17
(g10
S'\xe8e,\x8d:\xcb\x93?'
p18
tp19
Rp20
ag17
(g10
S'\x81x\x7f\xf9\xca\x81\xa0?'
p21
tp22
Rp23
aa(lp24
g17
(g10
S'\xbb\x1e\x85\x11S\x98\xe0?'
p25
tp26
Rp27
ag17
(g10
S'\x15\xb2\xe2\xd7\x91\x99\xe0?'
p28
tp29
Rp30
aatp31
.