(cnumpy.core.multiarray
_reconstruct
p0
(cnumpy
ndarray
p1
(I0
tp2
S'b'
p3
tp4
Rp5
(I1
(I2
tp6
cnumpy
dtype
p7
(S'f8'
p8
I0
I1
tp9
Rp10
(I3
S'<'
p11
NNNI-1
I-1
I0
tp12
bI00
S'K\x1f\xa23\x98I\xd0?\x08\xcc\x14\x84\xa2x\xe0?'
p13
tp14
b(lp15
(lp16
cnumpy.core.multiarray
scalar
p17
(g10
S'\xbe\xb3\xceA\xa7V\xb0?'
p18
tp19
Rp20
ag17
(g10
S'\xa6\x91\xd0\x96\x86}\xdc?'
p21
tp22
Rp23
aa(lp24
g17
(g10
S'B\x7f\x81\xc3\x7fw\xe0?'
p25
tp26
Rp27
ag17
(g10
S'\xce\x18\xa8D\xc5y\xe0?'
p28
tp29
Rp30
aatp31
.