(cnumpy.core.multiarray
_reconstruct
p0
(cnumpy
ndarray
p1
(I0
tp2
S'b'
p3
tp4
Rp5
(I1
(I2
tp6
cnumpy
dtype
p7
(S'f8'
p8
I0
I1
tp9
Rp10
(I3
S'<'
p11
NNNI-1
I-1
I0
tp12
bI00
S'\xff\xad\x81\x7f\xdb\xfb\x95?lS\x7fm\xa1-\xe1?'
p13
tp14
b(lp15
(lp16
cnumpy.core.multiarray
scalar
p17
(g10
S'\xc0\x86\xa1O\x0b\xd7d?'
p18
tp19
Rp20
ag17
(g10
S'\x93\x95\x87\xcaj\xae\xa4?'
p21
tp22
Rp23
aa(lp24
g17
(g10
S'\xcb\x06\x9bz\xa4+\xe1?'
p25
tp26
Rp27
ag17
(g10
S'\r\xa0c`\x9e/\xe1?'
p28
tp29
Rp30
aatp31
.