(cnumpy.core.multiarray
_reconstruct
p0
(cnumpy
ndarray
p1
(I0
tp2
S'b'
p3
tp4
Rp5
(I1
(I2
tp6
cnumpy
dtype
p7
(S'f8'
p8
I0
I1
tp9
Rp10
(I3
S'<'
p11
NNNI-1
I-1
I0
tp12
bI00
S'\xe7\xdb\xa4y\x0c\xe5\xa0?\x894DG*\xc1\xe0?'
p13
tp14
b(lp15
(lp16
cnumpy.core.multiarray
scalar
p17
(g10
S'\xe0\xfd\xef\xf4D\x0f\x9a?'
p18
tp19
Rp20
ag17
(g10
S'\xde\xb8\xd1xv\xc2\xa4?'
p21
tp22
Rp23
aa(lp24
g17
(g10
S'\xca@\x0e\xc0\x91\xc0\xe0?'
p25
tp26
Rp27
ag17
(g10
S'H(z\xce\xc2\xc1\xe0?'
p28
tp29
Rp30
aatp31
.