(cnumpy.core.multiarray
_reconstruct
p0
(cnumpy
ndarray
p1
(I0
tp2
S'b'
p3
tp4
Rp5
(I1
(I2
tp6
cnumpy
dtype
p7
(S'f8'
p8
I0
I1
tp9
Rp10
(I3
S'<'
p11
NNNI-1
I-1
I0
tp12
bI00
S'\xce\xcb$f\xa2q\xa3?\x18\xe9\xab\xe8\xe3\x98\xe0?'
p13
tp14
b(lp15
(lp16
cnumpy.core.multiarray
scalar
p17
(g10
S'\xac4\x92\xac/\x18\x9d?'
p18
tp19
Rp20
ag17
(g10
S'F}\x00\xf6,W\xa8?'
p21
tp22
Rp23
aa(lp24
g17
(g10
S'\xebI>\xe66\x98\xe0?'
p25
tp26
Rp27
ag17
(g10
S'E\x88\x19\xeb\x90\x99\xe0?'
p28
tp29
Rp30
aatp31
.