(cnumpy.core.multiarray
_reconstruct
p0
(cnumpy
ndarray
p1
(I0
tp2
S'b'
p3
tp4
Rp5
(I1
(I2
tp6
cnumpy
dtype
p7
(S'f8'
p8
I0
I1
tp9
Rp10
(I3
S'<'
p11
NNNI-1
I-1
I0
tp12
bI00
S'>\x0c\xa0\xc9$\x0f\xa1?^\x8f\xc3,\xa9\xb4\xe0?'
p13
tp14
b(lp15
(lp16
cnumpy.core.multiarray
scalar
p17
(g10
S'XJT\xdf\xbc\xf9\x96?'
p18
tp19
Rp20
ag17
(g10
S'P\xf3\x95#k\xa1\xa6?'
p21
tp22
Rp23
aa(lp24
g17
(g10
S'\x1fG\x86\\\xce\xb3\xe0?'
p25
tp26
Rp27
ag17
(g10
S'\x9d\xd7\x00\xfd\x83\xb5\xe0?'
p28
tp29
Rp30
aatp31
.