(cnumpy.core.multiarray
_reconstruct
p0
(cnumpy
ndarray
p1
(I0
tp2
S'b'
p3
tp4
Rp5
(I1
(I2
tp6
cnumpy
dtype
p7
(S'f8'
p8
I0
I1
tp9
Rp10
(I3
S'<'
p11
NNNI-1
I-1
I0
tp12
bI00
S'\xb0\xe7c\x92\xc0\x80\xc0?O\xd0\x04\xaf\xea]\xe0?'
p13
tp14
b(lp15
(lp16
cnumpy.core.multiarray
scalar
p17
(g10
S'\x10\xe8\x08\xc1\x87\xdd\x89\xbf'
p18
tp19
Rp20
ag17
(g10
S'\xf0.l\xd0\xacO\xd1?'
p21
tp22
Rp23
aa(lp24
g17
(g10
S'I\xe0<\x00~[\xe0?'
p25
tp26
Rp27
ag17
(g10
S'U\xc0\xcc]W`\xe0?'
p28
tp29
Rp30
aatp31
.