(cnumpy.core.multiarray
_reconstruct
p0
(cnumpy
ndarray
p1
(I0
tp2
S'b'
p3
tp4
Rp5
(I1
(I2
tp6
cnumpy
dtype
p7
(S'f8'
p8
I0
I1
tp9
Rp10
(I3
S'<'
p11
NNNI-1
I-1
I0
tp12
bI00
S'\xfb~\x96\x0f~\xbd\xaa?\x88t\xd0r\xcdu\xe0?'
p13
tp14
b(lp15
(lp16
cnumpy.core.multiarray
scalar
p17
(g10
S'58\x99\xc11\x99\xa0?'
p18
tp19
Rp20
ag17
(g10
S'\xe0\xe2\xc9.\xe5p\xb2?'
p21
tp22
Rp23
aa(lp24
g17
(g10
S'q\x81;\xde\xc3t\xe0?'
p25
tp26
Rp27
ag17
(g10
S'\x9fge\x07\xd7v\xe0?'
p28
tp29
Rp30
aatp31
.