(cnumpy.core.multiarray
_reconstruct
p0
(cnumpy
ndarray
p1
(I0
tp2
S'b'
p3
tp4
Rp5
(I1
(I2
tp6
cnumpy
dtype
p7
(S'f8'
p8
I0
I1
tp9
Rp10
(I3
S'<'
p11
NNNI-1
I-1
I0
tp12
bI00
S'\xf8Wk\xf6lM\xa4?9\x99c8\xb2\xa0\xe0?'
p13
tp14
b(lp15
(lp16
cnumpy.core.multiarray
scalar
p17
(g10
S'\xc5\x7f\xd7\x13\x0b\xa7\x94?'
p18
tp19
Rp20
ag17
(g10
S'\x0e\xf0\xeabTG\xae?'
p21
tp22
Rp23
aa(lp24
g17
(g10
S'y_t\xe6_\x9f\xe0?'
p25
tp26
Rp27
ag17
(g10
S'\xf9\xd2R\x8a\x04\xa2\xe0?'
p28
tp29
Rp30
aatp31
.