(cnumpy.core.multiarray
_reconstruct
p0
(cnumpy
ndarray
p1
(I0
tp2
S'b'
p3
tp4
Rp5
(I1
(I2
tp6
cnumpy
dtype
p7
(S'f8'
p8
I0
I1
tp9
Rp10
(I3
S'<'
p11
NNNI-1
I-1
I0
tp12
bI00
S'\xff;\x04?d\x99\xc0?M\x9fh\xefb|\xe0?'
p13
tp14
b(lp15
(lp16
cnumpy.core.multiarray
scalar
p17
(g10
S'Z`\x04\xa9C0\xb6?'
p18
tp19
Rp20
ag17
(g10
S'\xd1G\x86\xa9\xa6\x1a\xc6?'
p21
tp22
Rp23
aa(lp24
g17
(g10
S'\xbe{\xb6Y\xa9{\xe0?'
p25
tp26
Rp27
ag17
(g10
S'\xdc\xc2\x1a\x85\x1c}\xe0?'
p28
tp29
Rp30
aatp31
.