(cnumpy.core.multiarray
_reconstruct
p0
(cnumpy
ndarray
p1
(I0
tp2
S'b'
p3
tp4
Rp5
(I1
(I2
tp6
cnumpy
dtype
p7
(S'f8'
p8
I0
I1
tp9
Rp10
(I3
S'<'
p11
NNNI-1
I-1
I0
tp12
bI00
S'\x8cQ+}\xba_\xd3?x\xf3[\xb6\x8c\xa3\xe0?'
p13
tp14
b(lp15
(lp16
cnumpy.core.multiarray
scalar
p17
(g10
S'P~\x1d1\x12e\xa5?'
p18
tp19
Rp20
ag17
(g10
S'\xa7y\x19Zi\t\xe2?'
p21
tp22
Rp23
aa(lp24
g17
(g10
S'\xe1\x8f\x8c\x05f\xa2\xe0?'
p25
tp26
Rp27
ag17
(g10
S'\x0fW+g\xb3\xa4\xe0?'
p28
tp29
Rp30
aatp31
.