(cnumpy.core.multiarray
_reconstruct
p0
(cnumpy
ndarray
p1
(I0
tp2
S'b'
p3
tp4
Rp5
(I1
(I2
tp6
cnumpy
dtype
p7
(S'f8'
p8
I0
I1
tp9
Rp10
(I3
S'<'
p11
NNNI-1
I-1
I0
tp12
bI00
S'\x0bb1\xcf\xa5\x82\x99?;t\xa3#\xc6\x9e\xe0?'
p13
tp14
b(lp15
(lp16
cnumpy.core.multiarray
scalar
p17
(g10
S'@i\xd1)\xdb.\x92?'
p18
tp19
Rp20
ag17
(g10
S'k\xadH:8k\xa0?'
p21
tp22
Rp23
aa(lp24
g17
(g10
S'\x89\xaf\xf9\\\x11\x9e\xe0?'
p25
tp26
Rp27
ag17
(g10
S'\xed8M\xeaz\x9f\xe0?'
p28
tp29
Rp30
aatp31
.