(cnumpy.core.multiarray
_reconstruct
p0
(cnumpy
ndarray
p1
(I0
tp2
S'b'
p3
tp4
Rp5
(I1
(I2
tp6
cnumpy
dtype
p7
(S'f8'
p8
I0
I1
tp9
Rp10
(I3
S'<'
p11
NNNI-1
I-1
I0
tp12
bI00
S'1\xbe\xe4\xc5\x10\xfb\xaf?\\f\x0ez\xc6\xc1\xe0?'
p13
tp14
b(lp15
(lp16
cnumpy.core.multiarray
scalar
p17
(g10
S'B\x1b\xba\x8dT\x9f\xa8?'
p18
tp19
Rp20
ag17
(g10
S'\x90\xb0\x07\x7ff\xab\xb3?'
p21
tp22
Rp23
aa(lp24
g17
(g10
S'\x16c\xf4\xcd*\xc1\xe0?'
p25
tp26
Rp27
ag17
(g10
S'\xa2i(&b\xc2\xe0?'
p28
tp29
Rp30
aatp31
.