(cnumpy.core.multiarray
_reconstruct
p0
(cnumpy
ndarray
p1
(I0
tp2
S'b'
p3
tp4
Rp5
(I1
(I2
tp6
cnumpy
dtype
p7
(S'f8'
p8
I0
I1
tp9
Rp10
(I3
S'<'
p11
NNNI-1
I-1
I0
tp12
bI00
S'\x0c\xdc\xe8\x9d\x02\x05\xb6?\xb1XD\xc9\x90=\xe1?'
p13
tp14
b(lp15
(lp16
cnumpy.core.multiarray
scalar
p17
(g10
S'5\xe7g\xfa\xbc\xfd\xa2?'
p18
tp19
Rp20
ag17
(g10
S'?\xe2N_\x93E\xc1?'
p21
tp22
Rp23
aa(lp24
g17
(g10
S'v\xc3v\xfb2<\xe1?'
p25
tp26
Rp27
ag17
(g10
S'\xec\xed\x11\x97\xee>\xe1?'
p28
tp29
Rp30
aatp31
.