(cnumpy.core.multiarray
_reconstruct
p0
(cnumpy
ndarray
p1
(I0
tp2
S'b'
p3
tp4
Rp5
(I1
(I2
tp6
cnumpy
dtype
p7
(S'f8'
p8
I0
I1
tp9
Rp10
(I3
S'<'
p11
NNNI-1
I-1
I0
tp12
bI00
S'\xaeP\xa6\xdb\x04\xe6\xbe?\x02\xeePW\xa0\x81\xe0?'
p13
tp14
b(lp15
(lp16
cnumpy.core.multiarray
scalar
p17
(g10
S'\xe0\x82\x180\x89d\x97?'
p18
tp19
Rp20
ag17
(g10
S'R@\xa3\xb5s\xf9\xcb?'
p21
tp22
Rp23
aa(lp24
g17
(g10
S"`\x7f's\xcd\x7f\xe0?"
p25
tp26
Rp27
ag17
(g10
S'\xa4\\z;s\x83\xe0?'
p28
tp29
Rp30
aatp31
.