(cnumpy.core.multiarray
_reconstruct
p0
(cnumpy
ndarray
p1
(I0
tp2
S'b'
p3
tp4
Rp5
(I1
(I2
tp6
cnumpy
dtype
p7
(S'f8'
p8
I0
I1
tp9
Rp10
(I3
S'<'
p11
NNNI-1
I-1
I0
tp12
bI00
S'\x00\xd0\xc7\x86O\x02!>\x11z\xd5\x00vt\xe0?'
p13
tp14
b(lp15
(lp16
cnumpy.core.multiarray
scalar
p17
(g10
S'}\xe1\xa6\x98\xcb{}\xbf'
p18
tp19
Rp20
ag17
(g10
S'\xe9\xd9\xcb\xa8\xcc{}?'
p21
tp22
Rp23
aa(lp24
g17
(g10
S':\xfc\x05-\xb0r\xe0?'
p25
tp26
Rp27
ag17
(g10
S'\xe8\xf7\xa4\xd4;v\xe0?'
p28
tp29
Rp30
aatp31
.