(cnumpy.core.multiarray
_reconstruct
p0
(cnumpy
ndarray
p1
(I0
tp2
S'b'
p3
tp4
Rp5
(I1
(I2
tp6
cnumpy
dtype
p7
(S'f8'
p8
I0
I1
tp9
Rp10
(I3
S'<'
p11
NNNI-1
I-1
I0
tp12
bI00
S'\x8e\x98a^\xb2\xc5\xeb?]\x9c\n\\F\xa9\xe0?'
p13
tp14
b(lp15
(lp16
cnumpy.core.multiarray
scalar
p17
(g10
S'\x10T\xb4\x8a86\x0b\xc0'
p18
tp19
Rp20
ag17
(g10
S',\x90\xf2\xdc\x88\x8c\x14@'
p21
tp22
Rp23
aa(lp24
g17
(g10
S'\xba\xad\xb9z\x87\xa6\xe0?'
p25
tp26
Rp27
ag17
(g10
S'\x00\x8b[=\x05\xac\xe0?'
p28
tp29
Rp30
aatp31
.