(cnumpy.core.multiarray
_reconstruct
p0
(cnumpy
ndarray
p1
(I0
tp2
S'b'
p3
tp4
Rp5
(I1
(I2
tp6
cnumpy
dtype
p7
(S'f8'
p8
I0
I1
tp9
Rp10
(I3
S'<'
p11
NNNI-1
I-1
I0
tp12
bI00
S'\xc7\xb7H\x13\x0f9\xb2?7\xecF\xcf\x02\x8e\xe0?'
p13
tp14
b(lp15
(lp16
cnumpy.core.multiarray
scalar
p17
(g10
S'\x0be\xcc\xb0\xa0"\xac?'
p18
tp19
Rp20
ag17
(g10
S'\x08=+\xce\xcd`\xb6?'
p21
tp22
Rp23
aa(lp24
g17
(g10
S'Os\x9e\xa0i\x8d\xe0?'
p25
tp26
Rp27
ag17
(g10
S'\x1fe\xef\xfd\x9b\x8e\xe0?'
p28
tp29
Rp30
aatp31
.