(cnumpy.core.multiarray
_reconstruct
p0
(cnumpy
ndarray
p1
(I0
tp2
S'b'
p3
tp4
Rp5
(I1
(I2
tp6
cnumpy
dtype
p7
(S'f8'
p8
I0
I1
tp9
Rp10
(I3
S'<'
p11
NNNI-1
I-1
I0
tp12
bI00
S'\xcb9\xf8\xfd\xdc0\x92?;\xf3\r\x97a\x86\xe0?'
p13
tp14
b(lp15
(lp16
cnumpy.core.multiarray
scalar
p17
(g10
S'X\x8b\xc3@\xee\x11\x81?'
p18
tp19
Rp20
ag17
(g10
S'\xea\xad\x8e\xdb\xc2\xd8\x9b?'
p21
tp22
Rp23
aa(lp24
g17
(g10
S'^^\x0e\x109\x85\xe0?'
p25
tp26
Rp27
ag17
(g10
S'\x18\x88\r\x1e\x8a\x87\xe0?'
p28
tp29
Rp30
aatp31
.