(cnumpy.core.multiarray
_reconstruct
p0
(cnumpy
ndarray
p1
(I0
tp2
S'b'
p3
tp4
Rp5
(I1
(I2
tp6
cnumpy
dtype
p7
(S'f8'
p8
I0
I1
tp9
Rp10
(I3
S'<'
p11
NNNI-1
I-1
I0
tp12
bI00
S'4\xc7\xfe\xb7]\xd1\xc7?\xf1\x194\x83\xf3\x91\xe0?'
p13
tp14
b(lp15
(lp16
cnumpy.core.multiarray
scalar
p17
(g10
S'L\xd0\x08\xb1j\xf7\xbf?'
p18
tp19
Rp20
ag17
(g10
S'B&y\x17\x06\xa7\xcf?'
p21
tp22
Rp23
aa(lp24
g17
(g10
S'\x8f\xdc\xbddZ\x91\xe0?'
p25
tp26
Rp27
ag17
(g10
S'SW\xaa\xa1\x8c\x92\xe0?'
p28
tp29
Rp30
aatp31
.