(cnumpy.core.multiarray
_reconstruct
p0
(cnumpy
ndarray
p1
(I0
tp2
S'b'
p3
tp4
Rp5
(I1
(I2
tp6
cnumpy
dtype
p7
(S'f8'
p8
I0
I1
tp9
Rp10
(I3
S'<'
p11
NNNI-1
I-1
I0
tp12
bI00
S'\xfa\xffg\x18r\xfa\xbd?\xcd\xed\x85\x19\x86\xb3\xe0?'
p13
tp14
b(lp15
(lp16
cnumpy.core.multiarray
scalar
p17
(g10
S'D\xd4\xb9\xb6\x9f3\xa9?'
p18
tp19
Rp20
ag17
(g10
S'\xe9\x8a\xb9*\x8a\xad\xc7?'
p21
tp22
Rp23
aa(lp24
g17
(g10
S'(\n\xc5y8\xb2\xe0?'
p25
tp26
Rp27
ag17
(g10
S'r\xd1F\xb9\xd3\xb4\xe0?'
p28
tp29
Rp30
aatp31
.