(cnumpy.core.multiarray
_reconstruct
p0
(cnumpy
ndarray
p1
(I0
tp2
S'b'
p3
tp4
Rp5
(I1
(I2
tp6
cnumpy
dtype
p7
(S'f8'
p8
I0
I1
tp9
Rp10
(I3
S'<'
p11
NNNI-1
I-1
I0
tp12
bI00
S'\x00Pm\x06\xc8\x05\x9f?\xfa\xd7\xa5\xee^\xce\xe0?'
p13
tp14
b(lp15
(lp16
cnumpy.core.multiarray
scalar
p17
(g10
S"0\x8cX'\xe3V\x95?"
p18
tp19
Rp20
ag17
(g10
S'\xe8\t\xc1rVZ\xa4?'
p21
tp22
Rp23
aa(lp24
g17
(g10
S'\x0f1\xec\xe5\x92\xcd\xe0?'
p25
tp26
Rp27
ag17
(g10
S'\xe5~_\xf7*\xcf\xe0?'
p28
tp29
Rp30
aatp31
.