(cnumpy.core.multiarray
_reconstruct
p0
(cnumpy
ndarray
p1
(I0
tp2
S'b'
p3
tp4
Rp5
(I1
(I2
tp6
cnumpy
dtype
p7
(S'f8'
p8
I0
I1
tp9
Rp10
(I3
S'<'
p11
NNNI-1
I-1
I0
tp12
bI00
S"\xac\xf5\x81\x8b\x8e7\xb1?M\r'E\x84\xc9\xe0?"
p13
tp14
b(lp15
(lp16
cnumpy.core.multiarray
scalar
p17
(g10
S'\xd2\x1b>n\xe4\xff\xa7?'
p18
tp19
Rp20
ag17
(g10
S'o\xdd\xe4\xdf*o\xb6?'
p21
tp22
Rp23
aa(lp24
g17
(g10
S"#3'\xcc\xb9\xc8\xe0?"
p25
tp26
Rp27
ag17
(g10
S'w\xe7&\xbeN\xca\xe0?'
p28
tp29
Rp30
aatp31
.