(cnumpy.core.multiarray
_reconstruct
p0
(cnumpy
ndarray
p1
(I0
tp2
S'b'
p3
tp4
Rp5
(I1
(I2
tp6
cnumpy
dtype
p7
(S'f8'
p8
I0
I1
tp9
Rp10
(I3
S'<'
p11
NNNI-1
I-1
I0
tp12
bI00
S'\x9a\xa4\xde$\xfa\xf4\xc9?K\xd2g)\xb5\x8f\xe0?'
p13
tp14
b(lp15
(lp16
cnumpy.core.multiarray
scalar
p17
(g10
S'V%\xdb*rM\xb1?'
p18
tp19
Rp20
ag17
(g10
S"D\xdb'\x9a\x9d\xa1\xd5?"
p21
tp22
Rp23
aa(lp24
g17
(g10
S'\xa2\xa8\xc0q\x8d\x8e\xe0?'
p25
tp26
Rp27
ag17
(g10
S'\xf4\xfb\x0e\xe1\xdc\x90\xe0?'
p28
tp29
Rp30
aatp31
.