(cnumpy.core.multiarray
_reconstruct
p0
(cnumpy
ndarray
p1
(I0
tp2
S'b'
p3
tp4
Rp5
(I1
(I2
tp6
cnumpy
dtype
p7
(S'f8'
p8
I0
I1
tp9
Rp10
(I3
S'<'
p11
NNNI-1
I-1
I0
tp12
bI00
S'\xb3/\xde\xe0\xe9\xeb\x9d?,\xf9,\xc2\x8cb\xe0?'
p13
tp14
b(lp15
(lp16
cnumpy.core.multiarray
scalar
p17
(g10
S't\xd0p/&\xb4\x92?'
p18
tp19
Rp20
ag17
(g10
S'y\xc7%\xc9\xd6\x91\xa4?'
p21
tp22
Rp23
aa(lp24
g17
(g10
S'\x12\xed\xef\xe3\x92a\xe0?'
p25
tp26
Rp27
ag17
(g10
S'F\x05j\xa0\x86c\xe0?'
p28
tp29
Rp30
aatp31
.