(cnumpy.core.multiarray
_reconstruct
p0
(cnumpy
ndarray
p1
(I0
tp2
S'b'
p3
tp4
Rp5
(I1
(I2
tp6
cnumpy
dtype
p7
(S'f8'
p8
I0
I1
tp9
Rp10
(I3
S'<'
p11
NNNI-1
I-1
I0
tp12
bI00
S'\x92\x96\xdc\xe2w\xa9\xc1?[\x8f\\\x1b\t\x83\xe0?'
p13
tp14
b(lp15
(lp16
cnumpy.core.multiarray
scalar
p17
(g10
S'\x18\xe9\x94_\x8a\xdd\xb7?'
p18
tp19
Rp20
ag17
(g10
S'\x98\xb8\xee\x95*d\xc7?'
p21
tp22
Rp23
aa(lp24
g17
(g10
S'z\x98\x1c\xccX\x82\xe0?'
p25
tp26
Rp27
ag17
(g10
S'<\x86\x9cj\xb9\x83\xe0?'
p28
tp29
Rp30
aatp31
.