(cnumpy.core.multiarray
_reconstruct
p0
(cnumpy
ndarray
p1
(I0
tp2
S'b'
p3
tp4
Rp5
(I1
(I2
tp6
cnumpy
dtype
p7
(S'f8'
p8
I0
I1
tp9
Rp10
(I3
S'<'
p11
NNNI-1
I-1
I0
tp12
bI00
S'\x00\x00\x00\x0c$\\U<\xa0?H\x8d\xe9s\xe0?'
p13
tp14
b(lp15
(lp16
cnumpy.core.multiarray
scalar
p17
(g10
S'\x01\xac\x91\x89\x80.\x86\xbf'
p18
tp19
Rp20
ag17
(g10
S'\x07\xac\x91\x89\x80.\x86?'
p21
tp22
Rp23
aa(lp24
g17
(g10
S'6V\xf7\x97>q\xe0?'
p25
tp26
Rp27
ag17
(g10
S'\n)\x99\x82\x94v\xe0?'
p28
tp29
Rp30
aatp31
.