(cnumpy.core.multiarray
_reconstruct
p0
(cnumpy
ndarray
p1
(I0
tp2
S'b'
p3
tp4
Rp5
(I1
(I2
tp6
cnumpy
dtype
p7
(S'f8'
p8
I0
I1
tp9
Rp10
(I3
S'<'
p11
NNNI-1
I-1
I0
tp12
bI00
S'\xcc`\x98{\xa1\x14\xa9?Rn\xff\x84\xd2\x85\xe0?'
p13
tp14
b(lp15
(lp16
cnumpy.core.multiarray
scalar
p17
(g10
S'^)d\xb5\xa4\x96\xa2?'
p18
tp19
Rp20
ag17
(g10
S':\x98\xccA\x9e\x92\xaf?'
p21
tp22
Rp23
aa(lp24
g17
(g10
S'\xde\xd5\xc8\xab\x1d\x85\xe0?'
p25
tp26
Rp27
ag17
(g10
S'\xc6\x066^\x87\x86\xe0?'
p28
tp29
Rp30
aatp31
.