(cnumpy.core.multiarray
_reconstruct
p0
(cnumpy
ndarray
p1
(I0
tp2
S'b'
p3
tp4
Rp5
(I1
(I2
tp6
cnumpy
dtype
p7
(S'f8'
p8
I0
I1
tp9
Rp10
(I3
S'<'
p11
NNNI-1
I-1
I0
tp12
bI00
S'Tz\xd6W\x8a3\xc0?\xe3\xd8r1\xe0\x91\xe0?'
p13
tp14
b(lp15
(lp16
cnumpy.core.multiarray
scalar
p17
(g10
S'cYR/\x83\xf1\xb6?'
p18
tp19
Rp20
ag17
(g10
S'\xf6\xc7\x03\x18S\xee\xc4?'
p21
tp22
Rp23
aa(lp24
g17
(g10
S'\xe7B\xa8\x05<\x91\xe0?'
p25
tp26
Rp27
ag17
(g10
S'\xdfn=]\x84\x92\xe0?'
p28
tp29
Rp30
aatp31
.