(cnumpy.core.multiarray
_reconstruct
p0
(cnumpy
ndarray
p1
(I0
tp2
S'b'
p3
tp4
Rp5
(I1
(I2
tp6
cnumpy
dtype
p7
(S'f8'
p8
I0
I1
tp9
Rp10
(I3
S'<'
p11
NNNI-1
I-1
I0
tp12
bI00
S'\xdc\xbc\x08\xa1r\xb0\xbd?\x13\xd5\xadA\x06\xcc\xe0?'
p13
tp14
b(lp15
(lp16
cnumpy.core.multiarray
scalar
p17
(g10
S'Oltzu\x97\xb1?'
p18
tp19
Rp20
ag17
(g10
S'\xb4\x86\xce\xe3\xb7\xe4\xc4?'
p21
tp22
Rp23
aa(lp24
g17
(g10
S'g\xc4\xdfQ\x1c\xcb\xe0?'
p25
tp26
Rp27
ag17
(g10
S'\xbf\xe5{1\xf0\xcc\xe0?'
p28
tp29
Rp30
aatp31
.