(cnumpy.core.multiarray
_reconstruct
p0
(cnumpy
ndarray
p1
(I0
tp2
S'b'
p3
tp4
Rp5
(I1
(I2
tp6
cnumpy
dtype
p7
(S'f8'
p8
I0
I1
tp9
Rp10
(I3
S'<'
p11
NNNI-1
I-1
I0
tp12
bI00
S'@\x0e\xe8Kuc\xae>0|e\xc2\x00\x8c\xe0?'
p13
tp14
b(lp15
(lp16
cnumpy.core.multiarray
scalar
p17
(g10
S']L"MH\xa8l\xbf'
p18
tp19
Rp20
ag17
(g10
S'_\xc9\xcb\xbb\x14\xacl?'
p21
tp22
Rp23
aa(lp24
g17
(g10
S'a$\xef\xfb"\x8b\xe0?'
p25
tp26
Rp27
ag17
(g10
S'\xff\xd3\xdb\x88\xde\x8c\xe0?'
p28
tp29
Rp30
aatp31
.