(cnumpy.core.multiarray
_reconstruct
p0
(cnumpy
ndarray
p1
(I0
tp2
S'b'
p3
tp4
Rp5
(I1
(I2
tp6
cnumpy
dtype
p7
(S'f8'
p8
I0
I1
tp9
Rp10
(I3
S'<'
p11
NNNI-1
I-1
I0
tp12
bI00
S'&!\x9c\xaf7\x15\xb5?\xcc\xb6\xdb\xc3\xbb\xb2\xe0?'
p13
tp14
b(lp15
(lp16
cnumpy.core.multiarray
scalar
p17
(g10
S'j+\xa3\x0c\x99^\xac?'
p18
tp19
Rp20
ag17
(g10
S'\x97\xac\xe6\xd8"\xfb\xbb?'
p21
tp22
Rp23
aa(lp24
g17
(g10
S'\x8eWp\xc9\xe8\xb1\xe0?'
p25
tp26
Rp27
ag17
(g10
S'\n\x16G\xbe\x8e\xb3\xe0?'
p28
tp29
Rp30
aatp31
.