(cnumpy.core.multiarray
_reconstruct
p0
(cnumpy
ndarray
p1
(I0
tp2
S'b'
p3
tp4
Rp5
(I1
(I2
tp6
cnumpy
dtype
p7
(S'f8'
p8
I0
I1
tp9
Rp10
(I3
S'<'
p11
NNNI-1
I-1
I0
tp12
bI00
S'F\xf0\xfdU#\xf7\x04@\xbc\xd2\x97\xe3\xe6m\xe0?'
p13
tp14
b(lp15
(lp16
cnumpy.core.multiarray
scalar
p17
(g10
S'\x96\xbb\x80J)\xfc\x03@'
p18
tp19
Rp20
ag17
(g10
S'\xf6${a\x1d\xf2\x05@'
p21
tp22
Rp23
aa(lp24
g17
(g10
S'\xab\x18;\x80jl\xe0?'
p25
tp26
Rp27
ag17
(g10
S'\xcd\x8c\xf4Fco\xe0?'
p28
tp29
Rp30
aatp31
.