(cnumpy.core.multiarray
_reconstruct
p0
(cnumpy
ndarray
p1
(I0
tp2
S'b'
p3
tp4
Rp5
(I1
(I2
tp6
cnumpy
dtype
p7
(S'f8'
p8
I0
I1
tp9
Rp10
(I3
S'<'
p11
NNNI-1
I-1
I0
tp12
bI00
S'\xb3\x9b\x0b]\xc4\xfc~?\x04\xb9\xfd|\xbef\xe0?'
p13
tp14
b(lp15
(lp16
cnumpy.core.multiarray
scalar
p17
(g10
S'&\x1b>\xbfH\xf1k?'
p18
tp19
Rp20
ag17
(g10
S'\xea\x14<-r\x00\x88?'
p21
tp22
Rp23
aa(lp24
g17
(g10
S'}\xdb\xa5\x05\x03f\xe0?'
p25
tp26
Rp27
ag17
(g10
S'\x8b\x96U\xf4yg\xe0?'
p28
tp29
Rp30
aatp31
.