(cnumpy.core.multiarray
_reconstruct
p0
(cnumpy
ndarray
p1
(I0
tp2
S'b'
p3
tp4
Rp5
(I1
(I2
tp6
cnumpy
dtype
p7
(S'f8'
p8
I0
I1
tp9
Rp10
(I3
S'<'
p11
NNNI-1
I-1
I0
tp12
bI00
S'\xcc=$\xb8\x89\xc0\xcd?\xc6\x9a_\x86@\xf9\xe0?'
p13
tp14
b(lp15
(lp16
cnumpy.core.multiarray
scalar
p17
(g10
S'\x9c\x16\x9av\x0fF\xb5?'
p18
tp19
Rp20
ag17
(g10
S'%\xb8}\xda\x05o\xd8?'
p21
tp22
Rp23
aa(lp24
g17
(g10
S'\xc7?\xfb\x01A\xf8\xe0?'
p25
tp26
Rp27
ag17
(g10
S'\xc5\xf5\xc3\n@\xfa\xe0?'
p28
tp29
Rp30
aatp31
.