(cnumpy.core.multiarray
_reconstruct
p0
(cnumpy
ndarray
p1
(I0
tp2
S'b'
p3
tp4
Rp5
(I1
(I2
tp6
cnumpy
dtype
p7
(S'f8'
p8
I0
I1
tp9
Rp10
(I3
S'<'
p11
NNNI-1
I-1
I0
tp12
bI00
S'c\xd9\x91#\x01\x8c\xc0?\xa1p`\xdd\x86\xcf\xe0?'
p13
tp14
b(lp15
(lp16
cnumpy.core.multiarray
scalar
p17
(g10
S'P\x1f\xe1\xa4Sl\xb7?'
p18
tp19
Rp20
ag17
(g10
S'\x1e#\xb3t\xd8a\xc5?'
p21
tp22
Rp23
aa(lp24
g17
(g10
S'\x87\xacQ\x8b\xe6\xce\xe0?'
p25
tp26
Rp27
ag17
(g10
S"\xbb4o/'\xd0\xe0?"
p28
tp29
Rp30
aatp31
.