(cnumpy.core.multiarray
_reconstruct
p0
(cnumpy
ndarray
p1
(I0
tp2
S'b'
p3
tp4
Rp5
(I1
(I2
tp6
cnumpy
dtype
p7
(S'f8'
p8
I0
I1
tp9
Rp10
(I3
S'<'
p11
NNNI-1
I-1
I0
tp12
bI00
S'\xb7\xe7\xb2\xcb\x8e\x9a\xb2?\xd5\x85\x143T\xbb\xe0?'
p13
tp14
b(lp15
(lp16
cnumpy.core.multiarray
scalar
p17
(g10
S'\x94|\x14\xcc2\x1f\xa6?'
p18
tp19
Rp20
ag17
(g10
S'$\x91[1\x84%\xba?'
p21
tp22
Rp23
aa(lp24
g17
(g10
S'X\xc7\xc5\x00H\xba\xe0?'
p25
tp26
Rp27
ag17
(g10
S'RDce`\xbc\xe0?'
p28
tp29
Rp30
aatp31
.