(cnumpy.core.multiarray
_reconstruct
p0
(cnumpy
ndarray
p1
(I0
tp2
S'b'
p3
tp4
Rp5
(I1
(I2
tp6
cnumpy
dtype
p7
(S'f8'
p8
I0
I1
tp9
Rp10
(I3
S'<'
p11
NNNI-1
I-1
I0
tp12
bI00
S'\x1ep\x91\xa6\xd5\xe8\x90?\xf29\xf3\xd5\xa0\xa6\xe0?'
p13
tp14
b(lp15
(lp16
cnumpy.core.multiarray
scalar
p17
(g10
S'.3\x1fp,(~?'
p18
tp19
Rp20
ag17
(g10
S'p\x13\x1b1\xa0G\x9a?'
p21
tp22
Rp23
aa(lp24
g17
(g10
S'\xa9\xb4\xcb\xcew\xa5\xe0?'
p25
tp26
Rp27
ag17
(g10
S';\xbf\x1a\xdd\xc9\xa7\xe0?'
p28
tp29
Rp30
aatp31
.