(cnumpy.core.multiarray
_reconstruct
p0
(cnumpy
ndarray
p1
(I0
tp2
S'b'
p3
tp4
Rp5
(I1
(I2
tp6
cnumpy
dtype
p7
(S'f8'
p8
I0
I1
tp9
Rp10
(I3
S'<'
p11
NNNI-1
I-1
I0
tp12
bI00
S'\x96J\x13\xe5W\xa8\x9f?X\xa3\xe1 Yg\xe0?'
p13
tp14
b(lp15
(lp16
cnumpy.core.multiarray
scalar
p17
(g10
S'\x80\xafG\xe5\x92\x1bT?'
p18
tp19
Rp20
ag17
(g10
S'\x1a\r\xe9M{\x07\xaf?'
p21
tp22
Rp23
aa(lp24
g17
(g10
S'\x1b\x86\xe8\x10\xd2d\xe0?'
p25
tp26
Rp27
ag17
(g10
S'\x95\xc0\xda0\xe0i\xe0?'
p28
tp29
Rp30
aatp31
.