(cnumpy.core.multiarray
_reconstruct
p0
(cnumpy
ndarray
p1
(I0
tp2
S'b'
p3
tp4
Rp5
(I1
(I2
tp6
cnumpy
dtype
p7
(S'f8'
p8
I0
I1
tp9
Rp10
(I3
S'<'
p11
NNNI-1
I-1
I0
tp12
bI00
S'\xb7\xbcRl\xcf\x04\xc1?\xd5#\xbcu\xd8\x96\xe0?'
p13
tp14
b(lp15
(lp16
cnumpy.core.multiarray
scalar
p17
(g10
S'\xc7[\xf9\x03\x9dq\xb2?'
p18
tp19
Rp20
ag17
(g10
S'\x8a\xcb\xa8V\xd0\xd0\xc8?'
p21
tp22
Rp23
aa(lp24
g17
(g10
S'kF\x8d\x8d\xdc\x95\xe0?'
p25
tp26
Rp27
ag17
(g10
S'?\x01\xeb]\xd4\x97\xe0?'
p28
tp29
Rp30
aatp31
.