(cnumpy.core.multiarray
_reconstruct
p0
(cnumpy
ndarray
p1
(I0
tp2
S'b'
p3
tp4
Rp5
(I1
(I2
tp6
cnumpy
dtype
p7
(S'f8'
p8
I0
I1
tp9
Rp10
(I3
S'<'
p11
NNNI-1
I-1
I0
tp12
bI00
S'\x1fG\xaf=;\x92\xbf?y\t\xef\x17\xbb$\xe1?'
p13
tp14
b(lp15
(lp16
cnumpy.core.multiarray
scalar
p17
(g10
S'\x1a\xac^\xe7\xa3\xa0\xa5?'
p18
tp19
Rp20
ag17
(g10
S'\x18\x9c\xd7C\x12*\xca?'
p21
tp22
Rp23
aa(lp24
g17
(g10
S'iHM5S#\xe1?'
p25
tp26
Rp27
ag17
(g10
S'\x89\xca\x90\xfa"&\xe1?'
p28
tp29
Rp30
aatp31
.