(cnumpy.core.multiarray
_reconstruct
p0
(cnumpy
ndarray
p1
(I0
tp2
S'b'
p3
tp4
Rp5
(I1
(I2
tp6
cnumpy
dtype
p7
(S'f8'
p8
I0
I1
tp9
Rp10
(I3
S'<'
p11
NNNI-1
I-1
I0
tp12
bI00
S'Pl\x94\xc4\x1d\x1a\xb7?\xd7\x12\xcf\xaeb\xd3\xe0?'
p13
tp14
b(lp15
(lp16
cnumpy.core.multiarray
scalar
p17
(g10
S'@\x91\xca\n13\xb1?'
p18
tp19
Rp20
ag17
(g10
S'`G^~\n\x01\xbd?'
p21
tp22
Rp23
aa(lp24
g17
(g10
S'\x1b\x13\x13H\xc3\xd2\xe0?'
p25
tp26
Rp27
ag17
(g10
S'\x93\x12\x8b\x15\x02\xd4\xe0?'
p28
tp29
Rp30
aatp31
.