(cnumpy.core.multiarray
_reconstruct
p0
(cnumpy
ndarray
p1
(I0
tp2
S'b'
p3
tp4
Rp5
(I1
(I2
tp6
cnumpy
dtype
p7
(S'f8'
p8
I0
I1
tp9
Rp10
(I3
S'<'
p11
NNNI-1
I-1
I0
tp12
bI00
S'[\x01\xa2\xd5\xdd\x12\xa1?\x9ao\x17?\xee\xa4\xe0?'
p13
tp14
b(lp15
(lp16
cnumpy.core.multiarray
scalar
p17
(g10
S'"$8\xe9\x8br\x97?'
p18
tp19
Rp20
ag17
(g10
S'\xa5\xf0\xa7\xb6ul\xa6?'
p21
tp22
Rp23
aa(lp24
g17
(g10
S'\xbcb+o\x1b\xa4\xe0?'
p25
tp26
Rp27
ag17
(g10
S'x|\x03\x0f\xc1\xa5\xe0?'
p28
tp29
Rp30
aatp31
.