(cnumpy.core.multiarray
_reconstruct
p0
(cnumpy
ndarray
p1
(I0
tp2
S'b'
p3
tp4
Rp5
(I1
(I2
tp6
cnumpy
dtype
p7
(S'f8'
p8
I0
I1
tp9
Rp10
(I3
S'<'
p11
NNNI-1
I-1
I0
tp12
bI00
S'\x99Jr\xa9\xcd\xa9\xbf?\xd5P\xec\x07!7\xe0?'
p13
tp14
b(lp15
(lp16
cnumpy.core.multiarray
scalar
p17
(g10
S'8f\x17(J\xce\x9b?'
p18
tp19
Rp20
ag17
(g10
S'\xd2]od\x040\xcc?'
p21
tp22
Rp23
aa(lp24
g17
(g10
S'\xf42\xaa\xb0[5\xe0?'
p25
tp26
Rp27
ag17
(g10
S'\xb6n._\xe68\xe0?'
p28
tp29
Rp30
aatp31
.