(cnumpy.core.multiarray
_reconstruct
p0
(cnumpy
ndarray
p1
(I0
tp2
S'b'
p3
tp4
Rp5
(I1
(I2
tp6
cnumpy
dtype
p7
(S'f8'
p8
I0
I1
tp9
Rp10
(I3
S'<'
p11
NNNI-1
I-1
I0
tp12
bI00
S'X\xb3\xff\x0f\xa2\x8a\xa6?H,*X\xf2\xac\xe0?'
p13
tp14
b(lp15
(lp16
cnumpy.core.multiarray
scalar
p17
(g10
S'\xf1\x9d\xc9~\xe8Z\xa0?'
p18
tp19
Rp20
ag17
(g10
S'\xbf\xc85\xa1[\xba\xac?'
p21
tp22
Rp23
aa(lp24
g17
(g10
S'\x19I\xc2\xbe4\xac\xe0?'
p25
tp26
Rp27
ag17
(g10
S'w\x0f\x92\xf1\xaf\xad\xe0?'
p28
tp29
Rp30
aatp31
.