(cnumpy.core.multiarray
_reconstruct
p0
(cnumpy
ndarray
p1
(I0
tp2
S'b'
p3
tp4
Rp5
(I1
(I2
tp6
cnumpy
dtype
p7
(S'f8'
p8
I0
I1
tp9
Rp10
(I3
S'<'
p11
NNNI-1
I-1
I0
tp12
bI00
S'\xc5h`\x15C0\xa8?\xac\x0c7EG\xb8\xe0?'
p13
tp14
b(lp15
(lp16
cnumpy.core.multiarray
scalar
p17
(g10
S'\xbdM]\xd2\x81\x9d\xa2?'
p18
tp19
Rp20
ag17
(g10
S'\xcd\x83cX\x04\xc3\xad?'
p21
tp22
Rp23
aa(lp24
g17
(g10
S'Ks\x9fQ\xa8\xb7\xe0?'
p25
tp26
Rp27
ag17
(g10
S'\r\xa6\xce8\xe6\xb8\xe0?'
p28
tp29
Rp30
aatp31
.