(cnumpy.core.multiarray
_reconstruct
p0
(cnumpy
ndarray
p1
(I0
tp2
S'b'
p3
tp4
Rp5
(I1
(I2
tp6
cnumpy
dtype
p7
(S'f8'
p8
I0
I1
tp9
Rp10
(I3
S'<'
p11
NNNI-1
I-1
I0
tp12
bI00
S'-\xc3\xeb\xf2|u\xb1?\x07j\xb8\xd8\xb9\x86\xe0?'
p13
tp14
b(lp15
(lp16
cnumpy.core.multiarray
scalar
p17
(g10
S'\xe6\x0ev<\xd5\x1f\xab?'
p18
tp19
Rp20
ag17
(g10
S'\xe7~\x9cG\x0f[\xb5?'
p21
tp22
Rp23
aa(lp24
g17
(g10
S'M\xf6\x13\x80"\x86\xe0?'
p25
tp26
Rp27
ag17
(g10
S'\xc1\xdd\\1Q\x87\xe0?'
p28
tp29
Rp30
aatp31
.