(cnumpy.core.multiarray
_reconstruct
p0
(cnumpy
ndarray
p1
(I0
tp2
S'b'
p3
tp4
Rp5
(I1
(I2
tp6
cnumpy
dtype
p7
(S'f8'
p8
I0
I1
tp9
Rp10
(I3
S'<'
p11
NNNI-1
I-1
I0
tp12
bI00
S',\x87\x82\xfa7\t\xc7?,\x98i\xe5\xe1\x97\xe0?'
p13
tp14
b(lp15
(lp16
cnumpy.core.multiarray
scalar
p17
(g10
S'\x89>?\xfd\xcd\xa4\xb8?'
p18
tp19
Rp20
ag17
(g10
S'\x8a\xb72{\x04\xe0\xd0?'
p21
tp22
Rp23
aa(lp24
g17
(g10
S'\xf9\xe3e\xb7\x05\x97\xe0?'
p25
tp26
Rp27
ag17
(g10
S'_Lm\x13\xbe\x98\xe0?'
p28
tp29
Rp30
aatp31
.