(cnumpy.core.multiarray
_reconstruct
p0
(cnumpy
ndarray
p1
(I0
tp2
S'b'
p3
tp4
Rp5
(I1
(I2
tp6
cnumpy
dtype
p7
(S'f8'
p8
I0
I1
tp9
Rp10
(I3
S'<'
p11
NNNI-1
I-1
I0
tp12
bI00
S'\xfa>\xcc\xf6\xa5\xe7\xec?qWR \x8a\x84\xe0?'
p13
tp14
b(lp15
(lp16
cnumpy.core.multiarray
scalar
p17
(g10
S'\x9d\x95\xef\x15\xb4G\xf8\xbf'
p18
tp19
Rp20
ag17
(g10
S'L\xea]\x06\xad\x97\n@'
p21
tp22
Rp23
aa(lp24
g17
(g10
S'@d!\x88\x17\x83\xe0?'
p25
tp26
Rp27
ag17
(g10
S'\xa2J\x83\xb8\xfc\x85\xe0?'
p28
tp29
Rp30
aatp31
.