(cnumpy.core.multiarray
_reconstruct
p0
(cnumpy
ndarray
p1
(I0
tp2
S'b'
p3
tp4
Rp5
(I1
(I2
tp6
cnumpy
dtype
p7
(S'f8'
p8
I0
I1
tp9
Rp10
(I3
S'<'
p11
NNNI-1
I-1
I0
tp12
bI00
S'\xf0\x15\x1c=\xf8k\xa9?6$X\x15\x1e\xa4\xe0?'
p13
tp14
b(lp15
(lp16
cnumpy.core.multiarray
scalar
p17
(g10
S'D\xf7Y\x8c\r0\xa3?'
p18
tp19
Rp20
ag17
(g10
S'\x9c4\xde\xed\xe2\xa7\xaf?'
p21
tp22
Rp23
aa(lp24
g17
(g10
S'^@\xef\x19t\xa3\xe0?'
p25
tp26
Rp27
ag17
(g10
S'\x0e\x08\xc1\x10\xc8\xa4\xe0?'
p28
tp29
Rp30
aatp31
.