(cnumpy.core.multiarray
_reconstruct
p0
(cnumpy
ndarray
p1
(I0
tp2
S'b'
p3
tp4
Rp5
(I1
(I2
tp6
cnumpy
dtype
p7
(S'f8'
p8
I0
I1
tp9
Rp10
(I3
S'<'
p11
NNNI-1
I-1
I0
tp12
bI00
S'\x9e\x8b\xf7~e\x14\xc2?T\xec=t\x89\xb6\xe0?'
p13
tp14
b(lp15
(lp16
cnumpy.core.multiarray
scalar
p17
(g10
S"\xf2\x01='\x7f\x1b\xb7?"
p18
tp19
Rp20
ag17
(g10
S'C\x96Pj\x0b\x9b\xc8?'
p21
tp22
Rp23
aa(lp24
g17
(g10
S'V\x18\x10\xe1\xc9\xb5\xe0?'
p25
tp26
Rp27
ag17
(g10
S'R\xc0k\x07I\xb7\xe0?'
p28
tp29
Rp30
aatp31
.