(cnumpy.core.multiarray
_reconstruct
p0
(cnumpy
ndarray
p1
(I0
tp2
S'b'
p3
tp4
Rp5
(I1
(I2
tp6
cnumpy
dtype
p7
(S'f8'
p8
I0
I1
tp9
Rp10
(I3
S'<'
p11
NNNI-1
I-1
I0
tp12
bI00
S'\x85\xe5L\xfa\x9b$\xb3?X\xfe04\x8b\xa0\xe0?'
p13
tp14
b(lp15
(lp16
cnumpy.core.multiarray
scalar
p17
(g10
S'@\xa0\x9c\xef\x85K\xad?'
p18
tp19
Rp20
ag17
(g10
S'\xeaz\xcb\xfct\xa3\xb7?'
p21
tp22
Rp23
aa(lp24
g17
(g10
S'\x04\xd4\xbd\xb0\xef\x9f\xe0?'
p25
tp26
Rp27
ag17
(g10
S'\xac(\xa4\xb7&\xa1\xe0?'
p28
tp29
Rp30
aatp31
.