(cnumpy.core.multiarray
_reconstruct
p0
(cnumpy
ndarray
p1
(I0
tp2
S'b'
p3
tp4
Rp5
(I1
(I2
tp6
cnumpy
dtype
p7
(S'f8'
p8
I0
I1
tp9
Rp10
(I3
S'<'
p11
NNNI-1
I-1
I0
tp12
bI00
S'\xf80k\xccT\x02\xbb?\x95y^\xf3_\x9e\xe0?'
p13
tp14
b(lp15
(lp16
cnumpy.core.multiarray
scalar
p17
(g10
S'\n?\xcb2?\xa9\xa3?'
p18
tp19
Rp20
ag17
(g10
S'6a\xb8\xff\x04\x18\xc6?'
p21
tp22
Rp23
aa(lp24
g17
(g10
S';~\xc4S\xe1\x9c\xe0?'
p25
tp26
Rp27
ag17
(g10
S'\xeft\xf8\x92\xde\x9f\xe0?'
p28
tp29
Rp30
aatp31
.