(cnumpy.core.multiarray
_reconstruct
p0
(cnumpy
ndarray
p1
(I0
tp2
S'b'
p3
tp4
Rp5
(I1
(I2
tp6
cnumpy
dtype
p7
(S'f8'
p8
I0
I1
tp9
Rp10
(I3
S'<'
p11
NNNI-1
I-1
I0
tp12
bI00
S'Z\xcdZ\xd0\x8bi\xbd?@\xf5\xe8\xf5v\x92\xe0?'
p13
tp14
b(lp15
(lp16
cnumpy.core.multiarray
scalar
p17
(g10
S"(/M+\xda'\xb5?"
p18
tp19
Rp20
ag17
(g10
S'\xc65\xb4\xba\x9e\xd5\xc2?'
p21
tp22
Rp23
aa(lp24
g17
(g10
S'\xfb\\!\xd1\xd2\x91\xe0?'
p25
tp26
Rp27
ag17
(g10
S'\x85\x8d\xb0\x1a\x1b\x93\xe0?'
p28
tp29
Rp30
aatp31
.