(cnumpy.core.multiarray
_reconstruct
p0
(cnumpy
ndarray
p1
(I0
tp2
S'b'
p3
tp4
Rp5
(I1
(I4
tp6
cnumpy
dtype
p7
(S'f8'
p8
I0
I1
tp9
Rp10
(I3
S'<'
p11
NNNI-1
I-1
I0
tp12
bI00
S'}o8\nI\x0eo@\xce6\x96\x86\x17][?\xa4D\x82\x00`\x88\xa7?S\x882I\x08h\xe0?'
p13
tp14
b(lp15
(lp16
cnumpy.core.multiarray
scalar
p17
(g10
S'q\xe5PU\xd0\rj@'
p18
tp19
Rp20
ag17
(g10
S'\xc5\xfc\x8f\xdf`\x07r@'
p21
tp22
Rp23
aa(lp24
g17
(g10
S'\xa11\x89\x00\x9fF[?'
p25
tp26
Rp27
ag17
(g10
S'\xfb;\xa3\x0c\x90s[?'
p28
tp29
Rp30
aa(lp31
g17
(g10
S'\xb8\n\xbbx\xe2\x03\x80?'
p32
tp33
Rp34
ag17
(g10
S'M\xe3j\xb1\xe3\x87\xb5?'
p35
tp36
Rp37
aa(lp38
g17
(g10
S'0:7\xec\xc5e\xe0?'
p39
tp40
Rp41
ag17
(g10
S'v\xd6-\xa6Jj\xe0?'
p42
tp43
Rp44
aatp45
.