(cnumpy.core.multiarray
_reconstruct
p0
(cnumpy
ndarray
p1
(I0
tp2
S'b'
p3
tp4
Rp5
(I1
(I4
tp6
cnumpy
dtype
p7
(S'f8'
p8
I0
I1
tp9
Rp10
(I3
S'<'
p11
NNNI-1
I-1
I0
tp12
bI00
S'<]\x00\xef,\x14c@\xc1\xcd\xdd\xc5\x98Co?\n\x05A\x03\x8d`\xda?\xfb\xad\x9c\x07d\xfd\xe0?'
p13
tp14
b(lp15
(lp16
cnumpy.core.multiarray
scalar
p17
(g10
S'\x06`\xdaAm\xa1`@'
p18
tp19
Rp20
ag17
(g10
S'rZ&\x9c\xec\x86e@'
p21
tp22
Rp23
aa(lp24
g17
(g10
S'\x95\xc0?A\r0o?'
p25
tp26
Rp27
ag17
(g10
S'\xed\xda{J$Wo?'
p28
tp29
Rp30
aa(lp31
g17
(g10
S'f\xc7\x160J\xac\xd8\xbf'
p32
tp33
Rp34
ag17
(g10
S'^4\xa6\rY[\xf3?'
p35
tp36
Rp37
aa(lp38
g17
(g10
S'ZZ\xfc\x7fT\xfb\xe0?'
p39
tp40
Rp41
ag17
(g10
S'\x9c\x01=\x8fs\xff\xe0?'
p42
tp43
Rp44
aatp45
.