(cnumpy.core.multiarray
_reconstruct
p0
(cnumpy
ndarray
p1
(I0
tp2
S'b'
p3
tp4
Rp5
(I1
(I4
tp6
cnumpy
dtype
p7
(S'f8'
p8
I0
I1
tp9
Rp10
(I3
S'<'
p11
NNNI-1
I-1
I0
tp12
bI00
S'pS\x026\xdd\x02j@ia\x1buF\xc8J?dRP\xeeA\x83\xdd?\x87a~\x8a?2\xe1?'
p13
tp14
b(lp15
(lp16
cnumpy.core.multiarray
scalar
p17
(g10
S'\x8a@\xe4\xdf\xd7\x13f@'
p18
tp19
Rp20
ag17
(g10
S'Vf \x8c\xe2\xf1m@'
p21
tp22
Rp23
aa(lp24
g17
(g10
S'h\xc1\x8c6\xf9\xa4J?'
p25
tp26
Rp27
ag17
(g10
S'j\x01\xaa\xb3\x93\xebJ?'
p28
tp29
Rp30
aa(lp31
g17
(g10
S'Ri.- \x19\xe7\xbf'
p32
tp33
Rp34
ag17
(g10
S'\xdb]\xbf\r1N\xfa?'
p35
tp36
Rp37
aa(lp38
g17
(g10
S'\x94\xff\xdaj&/\xe1?'
p39
tp40
Rp41
ag17
(g10
S'z\xc3!\xaaX5\xe1?'
p42
tp43
Rp44
aatp45
.