(cnumpy.core.multiarray
_reconstruct
p0
(cnumpy
ndarray
p1
(I0
tp2
S'b'
p3
tp4
Rp5
(I1
(I4
tp6
cnumpy
dtype
p7
(S'f8'
p8
I0
I1
tp9
Rp10
(I3
S'<'
p11
NNNI-1
I-1
I0
tp12
bI00
S"\x01\xed\x15\xa0\x08\x12d@g\x0ew\x1es\xdfk?8S\xdb\x051\xc07@pNX'6\xde\xe0?"
p13
tp14
b(lp15
(lp16
cnumpy.core.multiarray
scalar
p17
(g10
S'6\x12\xa3~\xabg^@'
p18
tp19
Rp20
ag17
(g10
S'\xe7P\xda\x80;\xf0h@'
p21
tp22
Rp23
aa(lp24
g17
(g10
S't.R\xd3XvI\xbf'
p25
tp26
Rp27
ag17
(g10
S'6T\xe18>\x0e\x7f?'
p28
tp29
Rp30
aa(lp31
g17
(g10
S'8S\xdb\x051\xc07@'
p32
tp33
Rp34
ag17
(g10
S'8S\xdb\x051\xc07@'
p35
tp36
Rp37
aa(lp38
g17
(g10
S'H\x1a/\x1a\xbf\xd7\xe0?'
p39
tp40
Rp41
ag17
(g10
S'\x98\x82\x814\xad\xe4\xe0?'
p42
tp43
Rp44
aatp45
.