(cnumpy.core.multiarray
_reconstruct
p0
(cnumpy
ndarray
p1
(I0
tp2
S'b'
p3
tp4
Rp5
(I1
(I4
tp6
cnumpy
dtype
p7
(S'f8'
p8
I0
I1
tp9
Rp10
(I3
S'<'
p11
NNNI-1
I-1
I0
tp12
bI00
S'\xebW\x06[Ahg@m{\xa5\x8ek\xd4J?\xb7*&7\x939\x07@\x07+gfG\xd6\xe0?'
p13
tp14
b(lp15
(lp16
cnumpy.core.multiarray
scalar
p17
(g10
S'\x98\xa6Gg\xad\x84d@'
p18
tp19
Rp20
ag17
(g10
S'>\t\xc5N\xd5Kj@'
p21
tp22
Rp23
aa(lp24
g17
(g10
S't\xf1[\x86l\xb3J?'
p25
tp26
Rp27
ag17
(g10
S'f\x05\xef\x96j\xf5J?'
p28
tp29
Rp30
aa(lp31
g17
(g10
S'\x1bw\xc1\xfd0&Q\xc0'
p32
tp33
Rp34
ag17
(g10
S'\xc7\xd931\xca\x99R@'
p35
tp36
Rp37
aa(lp38
g17
(g10
S'B\xb3p\x1a\xfa\xd2\xe0?'
p39
tp40
Rp41
ag17
(g10
S'\xcc\xa2]\xb2\x94\xd9\xe0?'
p42
tp43
Rp44
aatp45
.