(cnumpy.core.multiarray
_reconstruct
p0
(cnumpy
ndarray
p1
(I0
tp2
S'b'
p3
tp4
Rp5
(I1
(I4
tp6
cnumpy
dtype
p7
(S'f8'
p8
I0
I1
tp9
Rp10
(I3
S'<'
p11
NNNI-1
I-1
I0
tp12
bI00
S'\x07YB\xf6\x94\xafb@\x1e\xa5\xdc\x9a"\xe8t?v;\xa1\x8e^*5@b\x0e#\x0c<~\xe0?'
p13
tp14
b(lp15
(lp16
cnumpy.core.multiarray
scalar
p17
(g10
S'\xa20\x05\xdc\xdf\x93X@'
p18
tp19
Rp20
ag17
(g10
S'\xbd\x19\x82\xfe9\x15i@'
p21
tp22
Rp23
aa(lp24
g17
(g10
S'\x92f;\x8bnba\xbf'
p25
tp26
Rp27
ag17
(g10
S'\xc2~\xab=\xbe@\x89?'
p28
tp29
Rp30
aa(lp31
g17
(g10
S'v;\xa1\x8e^*5@'
p32
tp33
Rp34
ag17
(g10
S'v;\xa1\x8e^*5@'
p35
tp36
Rp37
aa(lp38
g17
(g10
S'\xf1Re\x0bMw\xe0?'
p39
tp40
Rp41
ag17
(g10
S'\xd3\xc9\xe0\x0c+\x85\xe0?'
p42
tp43
Rp44
aatp45
.