(cnumpy.core.multiarray
_reconstruct
p0
(cnumpy
ndarray
p1
(I0
tp2
S'b'
p3
tp4
Rp5
(I1
(I4
tp6
cnumpy
dtype
p7
(S'f8'
p8
I0
I1
tp9
Rp10
(I3
S'<'
p11
NNNI-1
I-1
I0
tp12
bI00
S'\x0b\x1a\x8fy\r\x12d@\x1e\xda30T\xdfk?}d#\xe7\xce\x11.@9\xb8\\"6\xde\xe0?'
p13
tp14
b(lp15
(lp16
cnumpy.core.multiarray
scalar
p17
(g10
S'\x14(o\x00\xb3g^@'
p18
tp19
Rp20
ag17
(g10
S'\x0c\xa0\xe6rA\xf0h@'
p21
tp22
Rp23
aa(lp24
g17
(g10
S'`\xd3[\xcf\x87vI\xbf'
p25
tp26
Rp27
ag17
(g10
S'\x8aT\x1f*%\x0e\x7f?'
p28
tp29
Rp30
aa(lp31
g17
(g10
S'}d#\xe7\xce\x11.@'
p32
tp33
Rp34
ag17
(g10
S'}d#\xe7\xce\x11.@'
p35
tp36
Rp37
aa(lp38
g17
(g10
S'y\xb0]\x10\xbf\xd7\xe0?'
p39
tp40
Rp41
ag17
(g10
S'\xf9\xbf[4\xad\xe4\xe0?'
p42
tp43
Rp44
aatp45
.