(cnumpy.core.multiarray
_reconstruct
p0
(cnumpy
ndarray
p1
(I0
tp2
S'b'
p3
tp4
Rp5
(I1
(I4
tp6
cnumpy
dtype
p7
(S'f8'
p8
I0
I1
tp9
Rp10
(I3
S'<'
p11
NNNI-1
I-1
I0
tp12
bI00
S'\xb3\xe8\xab\xfd^1g@!\xfa\x0f2\xce$*?\xc2JSD+2\xd4?\xa3\xea~@d\xbf\xe0?'
p13
tp14
b(lp15
(lp16
cnumpy.core.multiarray
scalar
p17
(g10
S'\x90\xbb\xdfN+Od@'
p18
tp19
Rp20
ag17
(g10
S'\xd6\x15x\xac\x92\x13j@'
p21
tp22
Rp23
aa(lp24
g17
(g10
S'\xfb\xb4V\x8b\x8e\t*?'
p25
tp26
Rp27
ag17
(g10
S'G?\xc9\xd8\r@*?'
p28
tp29
Rp30
aa(lp31
g17
(g10
S'\xca\x9c\xbecDT\xd0\xbf'
p32
tp33
Rp34
ag17
(g10
S"'\x992vM\\\xec?"
p35
tp36
Rp37
aa(lp38
g17
(g10
S'u}\xaa\xcc{\xba\xe0?'
p39
tp40
Rp41
ag17
(g10
S'\xd1WS\xb4L\xc4\xe0?'
p42
tp43
Rp44
aatp45
.