(cnumpy.core.multiarray
_reconstruct
p0
(cnumpy
ndarray
p1
(I0
tp2
S'b'
p3
tp4
Rp5
(I1
(I4
tp6
cnumpy
dtype
p7
(S'f8'
p8
I0
I1
tp9
Rp10
(I3
S'<'
p11
NNNI-1
I-1
I0
tp12
bI00
S'\xbflJ\xe5\xb1\x11d@Z\xdb6\xd1\xa1\xe1k?6jB{\x9d\xbf,@\xe0\xe7-\x826\xde\xe0?'
p13
tp14
b(lp15
(lp16
cnumpy.core.multiarray
scalar
p17
(g10
S'^\xb0p\xfa*g^@'
p18
tp19
Rp20
ag17
(g10
S'O\x81\\M\xce\xefh@'
p21
tp22
Rp23
aa(lp24
g17
(g10
S'\x08\x941r\x99rI\xbf'
p25
tp26
Rp27
ag17
(g10
S'\xdb\r}\xff\xf4\x0f\x7f?'
p28
tp29
Rp30
aa(lp31
g17
(g10
S'6jB{\x9d\xbf,@'
p32
tp33
Rp34
ag17
(g10
S'6jB{\x9d\xbf,@'
p35
tp36
Rp37
aa(lp38
g17
(g10
S'\x83j\xe6\xd0\xbf\xd7\xe0?'
p39
tp40
Rp41
ag17
(g10
S'=eu3\xad\xe4\xe0?'
p42
tp43
Rp44
aatp45
.