(cnumpy.core.multiarray
_reconstruct
p0
(cnumpy
ndarray
p1
(I0
tp2
S'b'
p3
tp4
Rp5
(I1
(I4
tp6
cnumpy
dtype
p7
(S'f8'
p8
I0
I1
tp9
Rp10
(I3
S'<'
p11
NNNI-1
I-1
I0
tp12
bI00
S'3\x98\xc3\xfe}\x84c@\x13#\xb9\xa5\xf6\xb9{?<6$\x90:3.@+\x1dB\xb3V\xbd\xe0?'
p13
tp14
b(lp15
(lp16
cnumpy.core.multiarray
scalar
p17
(g10
S'\xe1\x17\xc2*\x08\xb5X@'
p18
tp19
Rp20
ag17
(g10
S'v$&\xe8w\xaej@'
p21
tp22
Rp23
aa(lp24
g17
(g10
S'\xc6W\xa5:\x81_b\xbf'
p25
tp26
Rp27
ag17
(g10
S'\x82<1z\xeb(\x90?'
p28
tp29
Rp30
aa(lp31
g17
(g10
S'<6$\x90:3.@'
p32
tp33
Rp34
ag17
(g10
S'<6$\x90:3.@'
p35
tp36
Rp37
aa(lp38
g17
(g10
S'\xf1\xbf\xcax\xf0\xb7\xe0?'
p39
tp40
Rp41
ag17
(g10
S'ez\xb9\xed\xbc\xc2\xe0?'
p42
tp43
Rp44
aatp45
.