(cnumpy.core.multiarray
_reconstruct
p0
(cnumpy
ndarray
p1
(I0
tp2
S'b'
p3
tp4
Rp5
(I1
(I4
tp6
cnumpy
dtype
p7
(S'f8'
p8
I0
I1
tp9
Rp10
(I3
S'<'
p11
NNNI-1
I-1
I0
tp12
bI00
S"j*\x85\xbb=Gj@~\xb1M\xc5sK\xc2>':#r\x16\xcf\xb5? #?\x05Qk\xe0?"
p13
tp14
b(lp15
(lp16
cnumpy.core.multiarray
scalar
p17
(g10
S'\x88\x14\x94\xb46\xb0S@'
p18
tp19
Rp20
ag17
(g10
S'H%`\x0e0[u@'
p21
tp22
Rp23
aa(lp24
g17
(g10
S']~6\xd58K<\xbf'
p25
tp26
Rp27
ag17
(g10
S'#\xb5K\xa4f\x94<?'
p28
tp29
Rp30
aa(lp31
g17
(g10
S'\xf2\x8b`\x8aa\x17\xa1?'
p32
tp33
Rp34
ag17
(g10
S'*\x17\x8b\x0f>\x89\xc1?'
p35
tp36
Rp37
aa(lp38
g17
(g10
S'\xf0(p\xc9i>\xd2?'
p39
tp40
Rp41
ag17
(g10
S'\xc81\xc6%m\xb7\xe7?'
p42
tp43
Rp44
aatp45
.