(cnumpy.core.multiarray
_reconstruct
p0
(cnumpy
ndarray
p1
(I0
tp2
S'b'
p3
tp4
Rp5
(I1
(I4
tp6
cnumpy
dtype
p7
(S'f8'
p8
I0
I1
tp9
Rp10
(I3
S'<'
p11
NNNI-1
I-1
I0
tp12
bI00
S's\xed\x11\x99~<a@J\x8apd\xf1t`?mU\x192@\x9d5@-|Bb\xb1\x98\xe0?'
p13
tp14
b(lp15
(lp16
cnumpy.core.multiarray
scalar
p17
(g10
S'j\xa8\xcf\xca\x82\xa7Y@'
p18
tp19
Rp20
ag17
(g10
S'\xb1\x06\xbc\xcc;\xa5e@'
p21
tp22
Rp23
aa(lp24
g17
(g10
S'\x04\xb02\x04?\xb7W\xbf'
p25
tp26
Rp27
ag17
(g10
S'K6}%\xc1bv?'
p28
tp29
Rp30
aa(lp31
g17
(g10
S'mU\x192@\x9d5@'
p32
tp33
Rp34
ag17
(g10
S'mU\x192@\x9d5@'
p35
tp36
Rp37
aa(lp38
g17
(g10
S'\xaf\x05Y\xef\xc0\x8b\xe0?'
p39
tp40
Rp41
ag17
(g10
S'\xab\xf2+\xd5\xa1\xa5\xe0?'
p42
tp43
Rp44
aatp45
.