(cnumpy.core.multiarray
_reconstruct
p0
(cnumpy
ndarray
p1
(I0
tp2
S'b'
p3
tp4
Rp5
(I1
(I4
tp6
cnumpy
dtype
p7
(S'f8'
p8
I0
I1
tp9
Rp10
(I3
S'<'
p11
NNNI-1
I-1
I0
tp12
bI00
S"k\xae+\xfd\x97fh@8\xee\xa5$\x92\x8b]?\x9c'Mz\xac\xbd#@\n?\x12_g\x1b\xe1?"
p13
tp14
b(lp15
(lp16
cnumpy.core.multiarray
scalar
p17
(g10
S'\x00\xcaP1sY]@'
p18
tp19
Rp20
ag17
(g10
S'\xeb{\xd70;\x10q@'
p21
tp22
Rp23
aa(lp24
g17
(g10
S'*\xbcS\xc2Krk\xbf'
p25
tp26
Rp27
ag17
(g10
S'1\xd5|\xf3\xee~|?'
p28
tp29
Rp30
aa(lp31
g17
(g10
S'\xe8\x19Z3\x9d3\xc0\xc0'
p32
tp33
Rp34
ag17
(g10
S'|@\x97\t|=\xc0@'
p35
tp36
Rp37
aa(lp38
g17
(g10
S'\x0f*\xe7c8\x0c\xe1?'
p39
tp40
Rp41
ag17
(g10
S'\x05T=Z\x96*\xe1?'
p42
tp43
Rp44
aatp45
.