(cnumpy.core.multiarray
_reconstruct
p0
(cnumpy
ndarray
p1
(I0
tp2
S'b'
p3
tp4
Rp5
(I1
(I4
tp6
cnumpy
dtype
p7
(S'f8'
p8
I0
I1
tp9
Rp10
(I3
S'<'
p11
NNNI-1
I-1
I0
tp12
bI00
S"@!'sGYb@?\x9b0's]b?,Q\xf3\xc0\x88\x93=@W\xaf\xaa\x93n\xfb\xe0?"
p13
tp14
b(lp15
(lp16
cnumpy.core.multiarray
scalar
p17
(g10
S'\xd4\x03>\xb2e;Z@'
p18
tp19
Rp20
ag17
(g10
S'\x96@/\r\xdc\x94g@'
p21
tp22
Rp23
aa(lp24
g17
(g10
S'\x1ah\xe6V\xb2\x94]\xbf'
p25
tp26
Rp27
ag17
(g10
S'F5\xea\xbc\x9f\xc2y?'
p28
tp29
Rp30
aa(lp31
g17
(g10
S',Q\xf3\xc0\x88\x93=@'
p32
tp33
Rp34
ag17
(g10
S',Q\xf3\xc0\x88\x93=@'
p35
tp36
Rp37
aa(lp38
g17
(g10
S'D\xb0\x06\xf7o\xef\xe0?'
p39
tp40
Rp41
ag17
(g10
S'j\xaeN0m\x07\xe1?'
p42
tp43
Rp44
aatp45
.