(cnumpy.core.multiarray
_reconstruct
p0
(cnumpy
ndarray
p1
(I0
tp2
S'b'
p3
tp4
Rp5
(I1
(I4
tp6
cnumpy
dtype
p7
(S'f8'
p8
I0
I1
tp9
Rp10
(I3
S'<'
p11
NNNI-1
I-1
I0
tp12
bI00
S'\xb5\x8d\x04p\x11\x12d@96`\x97:\xdfk?\r[\xef<M+1@e\xc22\x1e6\xde\xe0?'
p13
tp14
b(lp15
(lp16
cnumpy.core.multiarray
scalar
p17
(g10
S't\xb7\xe5L\xb8g^@'
p18
tp19
Rp20
ag17
(g10
S'\xb0?\x96\xb9F\xf0h@'
p21
tp22
Rp23
aa(lp24
g17
(g10
S'd\x81\xcb\xae\xbbvI\xbf'
p25
tp26
Rp27
ag17
(g10
S'f\xa69\r\x12\x0e\x7f?'
p28
tp29
Rp30
aa(lp31
g17
(g10
S'\r[\xef<M+1@'
p32
tp33
Rp34
ag17
(g10
S'\r[\xef<M+1@'
p35
tp36
Rp37
aa(lp38
g17
(g10
S'w\x14\xb5\x07\xbf\xd7\xe0?'
p39
tp40
Rp41
ag17
(g10
S'Sp\xb04\xad\xe4\xe0?'
p42
tp43
Rp44
aatp45
.