(cnumpy.core.multiarray
_reconstruct
p0
(cnumpy
ndarray
p1
(I0
tp2
S'b'
p3
tp4
Rp5
(I1
(I4
tp6
cnumpy
dtype
p7
(S'f8'
p8
I0
I1
tp9
Rp10
(I3
S'<'
p11
NNNI-1
I-1
I0
tp12
bI00
S'j\x8f\xbaR\xce\xbbf@\xe2JT\x19zlh?R\xebg\xd4fY5@\t\xf3\x17\x18\xe4)\xe1?'
p13
tp14
b(lp15
(lp16
cnumpy.core.multiarray
scalar
p17
(g10
S'\x96Y\xc0\xf9\x95\xa8]@'
p18
tp19
Rp20
ag17
(g10
S'\t\xf2\x94\xa8Q\xa3n@'
p21
tp22
Rp23
aa(lp24
g17
(g10
S'Tf\x01yp\xb3e\xbf'
p25
tp26
Rp27
ag17
(g10
S'\x06\x7f\xea*\x19\xa3\x81?'
p28
tp29
Rp30
aa(lp31
g17
(g10
S'R\xebg\xd4fY5@'
p32
tp33
Rp34
ag17
(g10
S'R\xebg\xd4fY5@'
p35
tp36
Rp37
aa(lp38
g17
(g10
S'\x91|\xc8D\xd8 \xe1?'
p39
tp40
Rp41
ag17
(g10
S'\x81ig\xeb\xef2\xe1?'
p42
tp43
Rp44
aatp45
.