(cnumpy.core.multiarray
_reconstruct
p0
(cnumpy
ndarray
p1
(I0
tp2
S'b'
p3
tp4
Rp5
(I1
(I4
tp6
cnumpy
dtype
p7
(S'f8'
p8
I0
I1
tp9
Rp10
(I3
S'<'
p11
NNNI-1
I-1
I0
tp12
bI00
S'\xf8+\x95b\xa5Ge@R\xca,,Q&X?\xc1?F\xaa\xaa \xe5?}\t!\xc0\x94\x02\xe1?'
p13
tp14
b(lp15
(lp16
cnumpy.core.multiarray
scalar
p17
(g10
S'\x15\xfaX\x8f_{b@'
p18
tp19
Rp20
ag17
(g10
S'\xdb]\xd15\xeb\x13h@'
p21
tp22
Rp23
aa(lp24
g17
(g10
S'\xe0h(U"\xbbR?'
p25
tp26
Rp27
ag17
(g10
S'\xc4+1\x03\x80\x91]?'
p28
tp29
Rp30
aa(lp31
g17
(g10
S'\x18\xb6\xee?\xaa\xa9\xfa\xbf'
p32
tp33
Rp34
ag17
(g10
S'\xecz\x1au*\xe5\x07@'
p35
tp36
Rp37
aa(lp38
g17
(g10
S'\xdaT\xdf&9\xff\xe0?'
p39
tp40
Rp41
ag17
(g10
S' \xbebY\xf0\x05\xe1?'
p42
tp43
Rp44
aatp45
.