(cnumpy.core.multiarray
_reconstruct
p0
(cnumpy
ndarray
p1
(I0
tp2
S'b'
p3
tp4
Rp5
(I1
(I4
tp6
cnumpy
dtype
p7
(S'f8'
p8
I0
I1
tp9
Rp10
(I3
S'<'
p11
NNNI-1
I-1
I0
tp12
bI00
S'\x9d\xd9>\xe7u\xa5`@`D2"\x8au\x86?\\1$\xf6%\xff)@_W\x18\xf9\xae%\xe1?'
p13
tp14
b(lp15
(lp16
cnumpy.core.multiarray
scalar
p17
(g10
S'\x06`\x1a!\xf1\x8fT@'
p18
tp19
Rp20
ag17
(g10
S'7\x83\xf0=\xf3\x02g@'
p21
tp22
Rp23
aa(lp24
g17
(g10
S'\xa0\x8a4KH)W\xbf'
p25
tp26
Rp27
ag17
(g10
S'\n\x8d\xe5\xa6\x1e\xe8\x97?'
p28
tp29
Rp30
aa(lp31
g17
(g10
S'\\1$\xf6%\xff)@'
p32
tp33
Rp34
ag17
(g10
S'\\1$\xf6%\xff)@'
p35
tp36
Rp37
aa(lp38
g17
(g10
S'\x02\xcb(\xd3\x94!\xe1?'
p39
tp40
Rp41
ag17
(g10
S'\xbc\xe3\x07\x1f\xc9)\xe1?'
p42
tp43
Rp44
aatp45
.