(cnumpy.core.multiarray
_reconstruct
p0
(cnumpy
ndarray
p1
(I0
tp2
S'b'
p3
tp4
Rp5
(I1
(I3
tp6
cnumpy
dtype
p7
(S'f8'
p8
I0
I1
tp9
Rp10
(I3
S'<'
p11
NNNI-1
I-1
I0
tp12
bI00
S'_\xc8a4\x04oV@!\xa8m\xe3s(\x8b>]\xc3\x12a\xe6SG?'
p13
tp14
bg0
(g1
(I0
tp15
g3
tp16
Rp17
(I1
(I3
I2
tp18
g10
I00
S'_\xc8a4\x04oV@_\xc8a4\x04oV@!\xa8m\xe3s(\x8b>!\xa8m\xe3s(\x8b>]\xc3\x12a\xe6SG?]\xc3\x12a\xe6SG?'
p19
tp20
btp21
.