(cnumpy.core.multiarray
_reconstruct
p0
(cnumpy
ndarray
p1
(I0
tp2
S'b'
p3
tp4
Rp5
(I1
(I3
tp6
cnumpy
dtype
p7
(S'f8'
p8
I0
I1
tp9
Rp10
(I3
S'<'
p11
NNNI-1
I-1
I0
tp12
bI00
S'\xa6\xb9e8#%L@,4X\x83\xa3\x00y?n\xec$:B=\xa9?'
p13
tp14
bg0
(g1
(I0
tp15
g3
tp16
Rp17
(I1
(I3
I2
tp18
g10
I00
S'\xa6\xb9e8#%L@\xa6\xb9e8#%L@,4X\x83\xa3\x00y?,4X\x83\xa3\x00y?n\xec$:B=\xa9?n\xec$:B=\xa9?'
p19
tp20
btp21
.