(cnumpy.core.multiarray
_reconstruct
p0
(cnumpy
ndarray
p1
(I0
tp2
S'b'
p3
tp4
Rp5
(I1
(I4
tp6
cnumpy
dtype
p7
(S'f8'
p8
I0
I1
tp9
Rp10
(I3
S'<'
p11
NNNI-1
I-1
I0
tp12
bI00
S'\x0f\xecV\x8d\x93nT@\xa1P\xfba\xf6\xa5n?co\xc3\x0co}\xbe?icS\x1dBz\xe0?'
p13
tp14
b(lp15
(lp16
cnumpy.core.multiarray
scalar
p17
(g10
S'\xcee*\xe2=\xffR@'
p18
tp19
Rp20
ag17
(g10
S'Pr\x838\xe9\xddU@'
p21
tp22
Rp23
aa(lp24
g17
(g10
S'D\xa0\xdc\xb6\xf0Vh?'
p25
tp26
Rp27
ag17
(g10
S'\x7f\x00\x8d\x06~zr?'
p28
tp29
Rp30
aa(lp31
g17
(g10
S'\x8f3\x91x\x94\x9c\xb5?'
p32
tp33
Rp34
ag17
(g10
S'\x9c\xd5z\xd0$\xaf\xc3?'
p35
tp36
Rp37
aa(lp38
g17
(g10
S'\x9c\x88AN\xd0x\xe0?'
p39
tp40
Rp41
ag17
(g10
S'6>e\xec\xb3{\xe0?'
p42
tp43
Rp44
aatp45
.