(cnumpy.core.multiarray
_reconstruct
p0
(cnumpy
ndarray
p1
(I0
tp2
S'b'
p3
tp4
Rp5
(I1
(I4
tp6
cnumpy
dtype
p7
(S'f8'
p8
I0
I1
tp9
Rp10
(I3
S'<'
p11
NNNI-1
I-1
I0
tp12
bI00
S'\xa0\xabT\xbc\xbf\xb9U@?v\x01\xc7jOt?(\x1cA\x86~ \x9b?\x91P\xf67"q\xe0?'
p13
tp14
b(lp15
(lp16
cnumpy.core.multiarray
scalar
p17
(g10
S'8:\xefVy\xdbR@'
p18
tp19
Rp20
ag17
(g10
S'\x08\x1d\xba!\x06\x98X@'
p21
tp22
Rp23
aa(lp24
g17
(g10
S'6\xa7\x88{w\\k?'
p25
tp26
Rp27
ag17
(g10
S'\xe3\x98>\xd0\x99\xf0z?'
p28
tp29
Rp30
aa(lp31
g17
(g10
S'$\xc7\x01\x14:\xcc\x85?'
p32
tp33
Rp34
ag17
(g10
S'_\xaa@\x01p\xad\xa5?'
p35
tp36
Rp37
aa(lp38
g17
(g10
S'\x16\x99\xe8O$o\xe0?'
p39
tp40
Rp41
ag17
(g10
S'\x0c\x08\x04  s\xe0?'
p42
tp43
Rp44
aatp45
.