(cnumpy.core.multiarray
_reconstruct
p0
(cnumpy
ndarray
p1
(I0
tp2
S'b'
p3
tp4
Rp5
(I1
(I4
tp6
cnumpy
dtype
p7
(S'f8'
p8
I0
I1
tp9
Rp10
(I3
S'<'
p11
NNNI-1
I-1
I0
tp12
bI00
S'\x9dS\xcc\xb3.\xf8X@mt_\x1eg%T?*P\x9fd\xcbX\xa2?\xce\xdf9\xd0\xe1[\xe0?'
p13
tp14
b(lp15
(lp16
cnumpy.core.multiarray
scalar
p17
(g10
S'iK\xbb\xe9E\xc5V@'
p18
tp19
Rp20
ag17
(g10
S'\xd1[\xdd}\x17+[@'
p21
tp22
Rp23
aa(lp24
g17
(g10
S'\xdc\xcb\xa4\xc1\xb1mI?'
p25
tp26
Rp27
ag17
(g10
S'\xec\x82\xec[\xf5\x93[?'
p28
tp29
Rp30
aa(lp31
g17
(g10
S'(J\xd2\x18\x15\xbc\x9a?'
p32
tp33
Rp34
ag17
(g10
S'@{\xd5<\x8cS\xa7?'
p35
tp36
Rp37
aa(lp38
g17
(g10
S'\x08n9\xac\x80X\xe0?'
p39
tp40
Rp41
ag17
(g10
S'\x94Q:\xf4B_\xe0?'
p42
tp43
Rp44
aatp45
.