(cnumpy.core.multiarray
_reconstruct
p0
(cnumpy
ndarray
p1
(I0
tp2
S'b'
p3
tp4
Rp5
(I1
(I4
tp6
cnumpy
dtype
p7
(S'f8'
p8
I0
I1
tp9
Rp10
(I3
S'<'
p11
NNNI-1
I-1
I0
tp12
bI00
S'/\xa7\xfc\xcaV\xedT@\x15/\x0e}\xe76o?i\xb9\xeb\x19\x936\x9e?\xf9\xf7\xa6\xebxv\xe0?'
p13
tp14
b(lp15
(lp16
cnumpy.core.multiarray
scalar
p17
(g10
S'\xec\x80R]lzS@'
p18
tp19
Rp20
ag17
(g10
S'r\xcd\xa68A`V@'
p21
tp22
Rp23
aa(lp24
g17
(g10
S'O:oV\xe4fi?'
p25
tp26
Rp27
ag17
(g10
S'\xee\x91\xd6Qu\x83r?'
p28
tp29
Rp30
aa(lp31
g17
(g10
S'\xda;\x00(\xf1\xba\x95?'
p32
tp33
Rp34
ag17
(g10
S'|\x9b\xeb\x85\x1aY\xa3?'
p35
tp36
Rp37
aa(lp38
g17
(g10
S'D\x88\xf6\xaa&u\xe0?'
p39
tp40
Rp41
ag17
(g10
S'\xaegW,\xcbw\xe0?'
p42
tp43
Rp44
aatp45
.