(cnumpy.core.multiarray
_reconstruct
p0
(cnumpy
ndarray
p1
(I0
tp2
S'b'
p3
tp4
Rp5
(I1
(I4
tp6
cnumpy
dtype
p7
(S'f8'
p8
I0
I1
tp9
Rp10
(I3
S'<'
p11
NNNI-1
I-1
I0
tp12
bI00
S'\xee\r8\x13o\x85S@\xad_\x8e\x17\xad\xa8x?I9\x13d_\xb6\xac?d\xe1_\xcd\xe2\x99\xe0?'
p13
tp14
b(lp15
(lp16
cnumpy.core.multiarray
scalar
p17
(g10
S'h\xf5\xe5L\n\xf4P@'
p18
tp19
Rp20
ag17
(g10
S't&\x8a\xd9\xd3\x16V@'
p21
tp22
Rp23
aa(lp24
g17
(g10
S'\xf0S\xe2%^\xcap?'
p25
tp26
Rp27
ag17
(g10
S'\xb55\x9d\x04~C\x80?'
p28
tp29
Rp30
aa(lp31
g17
(g10
S'\xa1S\x08\xbd?\xc4\x9b?'
p32
tp33
Rp34
ag17
(g10
S'a$\xd1tO\xc5\xb5?'
p35
tp36
Rp37
aa(lp38
g17
(g10
S'QviN\xfe\x97\xe0?'
p39
tp40
Rp41
ag17
(g10
S'wLVL\xc7\x9b\xe0?'
p42
tp43
Rp44
aatp45
.