(cnumpy.core.multiarray
_reconstruct
p0
(cnumpy
ndarray
p1
(I0
tp2
S'b'
p3
tp4
Rp5
(I1
(I4
tp6
cnumpy
dtype
p7
(S'f8'
p8
I0
I1
tp9
Rp10
(I3
S'<'
p11
NNNI-1
I-1
I0
tp12
bI00
S'\x9a\xb5\x11;\x8d\xd6Q@$\x14\xd7!Sax?\xa9(\xf5\x8e\xb2\xc7\x86?Iw)mF\x96\xe0?'
p13
tp14
b(lp15
(lp16
cnumpy.core.multiarray
scalar
p17
(g10
S'm\xfa5+raP@'
p18
tp19
Rp20
ag17
(g10
S'\xc7p\xedJ\xa8KS@'
p21
tp22
Rp23
aa(lp24
g17
(g10
S'L\xf9V\x10\xbb\xd8s?'
p25
tp26
Rp27
ag17
(g10
S'\xfc.W3\xeb\xe9|?'
p28
tp29
Rp30
aa(lp31
g17
(g10
S'vzDC\x82\x0co?'
p32
tp33
Rp34
ag17
(g10
S'Z\x99\x8cF"\xe6\x92?'
p35
tp36
Rp37
aa(lp38
g17
(g10
S':\xcc\xfcz\xf9\x94\xe0?'
p39
tp40
Rp41
ag17
(g10
S'X"V_\x93\x97\xe0?'
p42
tp43
Rp44
aatp45
.