(cnumpy.core.multiarray
_reconstruct
p0
(cnumpy
ndarray
p1
(I0
tp2
S'b'
p3
tp4
Rp5
(I1
(I4
tp6
cnumpy
dtype
p7
(S'f8'
p8
I0
I1
tp9
Rp10
(I3
S'<'
p11
NNNI-1
I-1
I0
tp12
bI00
S'n\xa3z|\xfdMl@F\xf0n\x18qlX?F\xae\xfcm\x1dQa=|1-\xf1u~\xe0?'
p13
tp14
b(lp15
(lp16
cnumpy.core.multiarray
scalar
p17
(g10
S'\xf6\x7f7\xb1\xf9\xd3e@'
p18
tp19
Rp20
ag17
(g10
S's\xe3\xde\xa3\x00dq@'
p21
tp22
Rp23
aa(lp24
g17
(g10
S'4\x82\xa7\xb7\xfd<S?'
p25
tp26
Rp27
ag17
(g10
S'X^6y\xe4\x9b]?'
p28
tp29
Rp30
aa(lp31
g17
(g10
S'\xa9\xce`\xe8"\xb6\x81\xbf'
p32
tp33
Rp34
ag17
(g10
S'7wi\xe8"\xb6\x81?'
p35
tp36
Rp37
aa(lp38
g17
(g10
S'\x9d\x95\x95\xa2Y{\xe0?'
p39
tp40
Rp41
ag17
(g10
S'[\xcd\xc4?\x92\x81\xe0?'
p42
tp43
Rp44
aatp45
.