(cnumpy.core.multiarray
_reconstruct
p0
(cnumpy
ndarray
p1
(I0
tp2
S'b'
p3
tp4
Rp5
(I1
(I4
tp6
cnumpy
dtype
p7
(S'f8'
p8
I0
I1
tp9
Rp10
(I3
S'<'
p11
NNNI-1
I-1
I0
tp12
bI00
S'\xdd\xfe-*o|U@\xe9R$\xdd\r9b?i\x8a\xa5dX,\xa2?}\xef\xe6\x8b\x9d\xaf\xe0?'
p13
tp14
b(lp15
(lp16
cnumpy.core.multiarray
scalar
p17
(g10
S'h5~\x96\xb9/T@'
p18
tp19
Rp20
ag17
(g10
S'R\xc8\xdd\xbd$\xc9V@'
p21
tp22
Rp23
aa(lp24
g17
(g10
S'\x86J\xaf\x80\xee5]?'
p25
tp26
Rp27
ag17
(g10
S'\x8f\x00\xf1y$\xd7e?'
p28
tp29
Rp30
aa(lp31
g17
(g10
S'Z\x7f\x1b<<\xd2\x9c?'
p32
tp33
Rp34
ag17
(g10
S'%U=\xab\x92\xef\xa5?'
p35
tp36
Rp37
aa(lp38
g17
(g10
S'}\x9f\xab\xa5\xf0\xad\xe0?'
p39
tp40
Rp41
ag17
(g10
S'}?"rJ\xb1\xe0?'
p42
tp43
Rp44
aatp45
.