(cnumpy.core.multiarray
_reconstruct
p0
(cnumpy
ndarray
p1
(I0
tp2
S'b'
p3
tp4
Rp5
(I1
(I4
tp6
cnumpy
dtype
p7
(S'f8'
p8
I0
I1
tp9
Rp10
(I3
S'<'
p11
NNNI-1
I-1
I0
tp12
bI00
S'\xcd"\xd0\xed\xb2\x91S@\x944@\xd6\tbp?\x8b\\#\xb7$\xac\xa6?mn;\x82e\x96\xe0?'
p13
tp14
b(lp15
(lp16
cnumpy.core.multiarray
scalar
p17
(g10
S'M\xacU\xaf\x89HR@'
p18
tp19
Rp20
ag17
(g10
S'M\x99J,\xdc\xdaT@'
p21
tp22
Rp23
aa(lp24
g17
(g10
S'x]\xa6\xae\xd9\xebj?'
p25
tp26
Rp27
ag17
(g10
S'l:-\xd5&Ns?'
p28
tp29
Rp30
aa(lp31
g17
(g10
S'\xf2C\xc7\xf2\x03$\xa1?'
p32
tp33
Rp34
ag17
(g10
S'$u\x7f{E4\xac?'
p35
tp36
Rp37
aa(lp38
g17
(g10
S'eW\xda\xc2\x1a\x95\xe0?'
p39
tp40
Rp41
ag17
(g10
S'u\x85\x9cA\xb0\x97\xe0?'
p42
tp43
Rp44
aatp45
.