(cnumpy.core.multiarray
_reconstruct
p0
(cnumpy
ndarray
p1
(I0
tp2
S'b'
p3
tp4
Rp5
(I1
(I4
tp6
cnumpy
dtype
p7
(S'f8'
p8
I0
I1
tp9
Rp10
(I3
S'<'
p11
NNNI-1
I-1
I0
tp12
bI00
S'\x93,y\x97o\x01[@\x9d\xe1)RA\x00j?\x00\x1c\x05=\x03\xa8\xe6=\xc4\xbbN\x98\x8e`\xe1?'
p13
tp14
b(lp15
(lp16
cnumpy.core.multiarray
scalar
p17
(g10
S'o\xd8\x86\xba]xT@'
p18
tp19
Rp20
ag17
(g10
S'\\\xc05\xba@\xc5`@'
p21
tp22
Rp23
aa(lp24
g17
(g10
S'\x9ex\x933\xa3GS?'
p25
tp26
Rp27
ag17
(g10
S'v\x03E\x85X.u?'
p28
tp29
Rp30
aa(lp31
g17
(g10
S'g[jd<\x05\x87\xbf'
p32
tp33
Rp34
ag17
(g10
S'\x05]\xbeo<\x05\x87?'
p35
tp36
Rp37
aa(lp38
g17
(g10
S'\x07\xc5vEI\\\xe1?'
p39
tp40
Rp41
ag17
(g10
S'\x81\xb2&\xeb\xd3d\xe1?'
p42
tp43
Rp44
aatp45
.