(cnumpy.core.multiarray
_reconstruct
p0
(cnumpy
ndarray
p1
(I0
tp2
S'b'
p3
tp4
Rp5
(I1
(I4
tp6
cnumpy
dtype
p7
(S'f8'
p8
I0
I1
tp9
Rp10
(I3
S'<'
p11
NNNI-1
I-1
I0
tp12
bI00
S'\x7f7\xfdR\xe95V@\xc0\xefi\xa6\x90\xa8e?\xe0=\xb6\xf2\xf8U\x9b?_\xd7\xad5p\x8b\xe0?'
p13
tp14
b(lp15
(lp16
cnumpy.core.multiarray
scalar
p17
(g10
S'n\x02,\xafUKT@'
p18
tp19
Rp20
ag17
(g10
S'\x90l\xce\xf6| X@'
p21
tp22
Rp23
aa(lp24
g17
(g10
S'\xddai\xc8V\x07`?'
p25
tp26
Rp27
ag17
(g10
S'\xa3}j\x84\xcaIk?'
p28
tp29
Rp30
aa(lp31
g17
(g10
S'>\xb47\xb8\xefF\x92?'
p32
tp33
Rp34
ag17
(g10
S'\xc1c\x9a\x16\x812\xa2?'
p35
tp36
Rp37
aa(lp38
g17
(g10
S'\x9a%-\x11j\x89\xe0?'
p39
tp40
Rp41
ag17
(g10
S'$\x89.Zv\x8d\xe0?'
p42
tp43
Rp44
aatp45
.