(cnumpy.core.multiarray
_reconstruct
p0
(cnumpy
ndarray
p1
(I0
tp2
S'b'
p3
tp4
Rp5
(I1
(I4
tp6
cnumpy
dtype
p7
(S'f8'
p8
I0
I1
tp9
Rp10
(I3
S'<'
p11
NNNI-1
I-1
I0
tp12
bI00
S'^Rf\x84:\xcdP@/60\x9dD\xa6{?\xef\x860X\xefv\xa0?\x94f\xc0\x1eax\xe0?'
p13
tp14
b(lp15
(lp16
cnumpy.core.multiarray
scalar
p17
(g10
S'\x8b@j\t\x97\xf8N@'
p18
tp19
Rp20
ag17
(g10
S'v\x84\x17\x84)\x1eR@'
p21
tp22
Rp23
aa(lp24
g17
(g10
S'\xf9W\x98\x81\x9f\xaev?'
p25
tp26
Rp27
ag17
(g10
S'2\nd\xdc\xf4N\x80?'
p28
tp29
Rp30
aa(lp31
g17
(g10
S"\xfe\xcc\xc7W\xf1'\x95?"
p32
tp33
Rp34
ag17
(g10
S"_'}\x04\xe6Y\xa6?"
p35
tp36
Rp37
aa(lp38
g17
(g10
S'\t\xc8I\x18,w\xe0?'
p39
tp40
Rp41
ag17
(g10
S'\x1f\x057%\x96y\xe0?'
p42
tp43
Rp44
aatp45
.