(cnumpy.core.multiarray
_reconstruct
p0
(cnumpy
ndarray
p1
(I0
tp2
S'b'
p3
tp4
Rp5
(I1
(I4
tp6
cnumpy
dtype
p7
(S'f8'
p8
I0
I1
tp9
Rp10
(I3
S'<'
p11
NNNI-1
I-1
I0
tp12
bI00
S'y\xa5\xf5\xc6\x85\xb7g@\x05\x87\x80\x06&l)?P\xcf=\xb7I\x1a\x83>\x04\xb2\xd2e4X\xe0?'
p13
tp14
b(lp15
(lp16
cnumpy.core.multiarray
scalar
p17
(g10
S'z*\x96\xd2R\x9ca@'
p18
tp19
Rp20
ag17
(g10
S'x U\xbb\xb8\xd2m@'
p21
tp22
Rp23
aa(lp24
g17
(g10
S' \xfa,V\x80"\xdb>'
p25
tp26
Rp27
ag17
(g10
S"\x1c\xd3'\x05\x9c\xff8?"
p28
tp29
Rp30
aa(lp31
g17
(g10
S"'\x8an\x02r\x88`\xbf"
p32
tp33
Rp34
ag17
(g10
S'\x15D\xbc\xd4\n\x89`?'
p35
tp36
Rp37
aa(lp38
g17
(g10
S'\xa3\xefS\tGR\xe0?'
p39
tp40
Rp41
ag17
(g10
S'etQ\xc2!^\xe0?'
p42
tp43
Rp44
aatp45
.