(cnumpy.core.multiarray
_reconstruct
p0
(cnumpy
ndarray
p1
(I0
tp2
S'b'
p3
tp4
Rp5
(I1
(I4
tp6
cnumpy
dtype
p7
(S'f8'
p8
I0
I1
tp9
Rp10
(I3
S'<'
p11
NNNI-1
I-1
I0
tp12
bI00
S'}e\x07f:\xbdT@\xe0*\x12\x11#H>?\xbf{_W\xe9}\xc2?\xe3\x99\xe1\xb6]l\xe0?'
p13
tp14
b(lp15
(lp16
cnumpy.core.multiarray
scalar
p17
(g10
S'\x02\xa4\x9c\xd2\x12\xaaQ@'
p18
tp19
Rp20
ag17
(g10
S'\xf8&r\xf9a\xd0W@'
p21
tp22
Rp23
aa(lp24
g17
(g10
S'\xb0j\xb6w\x8e\xda\x13\xbf'
p25
tp26
Rp27
ag17
(g10
S'\x1b|\x04p\xbaaP?'
p28
tp29
Rp30
aa(lp31
g17
(g10
S'\x14\x11N>\xcc\xeb\xac?'
p32
tp33
Rp34
ag17
(g10
S'9s+\x9f\xdf\xc0\xcd?'
p35
tp36
Rp37
aa(lp38
g17
(g10
S'v4_ke[\xe0?'
p39
tp40
Rp41
ag17
(g10
S'P\xffc\x02V}\xe0?'
p42
tp43
Rp44
aatp45
.