(cnumpy.core.multiarray
_reconstruct
p0
(cnumpy
ndarray
p1
(I0
tp2
S'b'
p3
tp4
Rp5
(I1
(I4
tp6
cnumpy
dtype
p7
(S'f8'
p8
I0
I1
tp9
Rp10
(I3
S'<'
p11
NNNI-1
I-1
I0
tp12
bI00
S'=\xf4\xdc\xc9|\xeeS@\\+6ar%l?\xd0\\#\x0fY\x11\x9a?\x03z\x88,\xab\x8b\xe0?'
p13
tp14
b(lp15
(lp16
cnumpy.core.multiarray
scalar
p17
(g10
S'p8fin\x10S@'
p18
tp19
Rp20
ag17
(g10
S'\n\xb0S*\x8b\xccT@'
p21
tp22
Rp23
aa(lp24
g17
(g10
S'\xb8\x02\x10w.\x1cl?'
p25
tp26
Rp27
ag17
(g10
S'\x00T\\K\xb6.l?'
p28
tp29
Rp30
aa(lp31
g17
(g10
S'\xaa\x9a\xe9< \xb3\x91?'
p32
tp33
Rp34
ag17
(g10
S'{\x8f\xae\xf0\xc87\xa1?'
p35
tp36
Rp37
aa(lp38
g17
(g10
S'4\xb7e7\x91\x8a\xe0?'
p39
tp40
Rp41
ag17
(g10
S'\xd2<\xab!\xc5\x8c\xe0?'
p42
tp43
Rp44
aatp45
.