(cnumpy.core.multiarray
_reconstruct
p0
(cnumpy
ndarray
p1
(I0
tp2
S'b'
p3
tp4
Rp5
(I1
(I4
tp6
cnumpy
dtype
p7
(S'f8'
p8
I0
I1
tp9
Rp10
(I3
S'<'
p11
NNNI-1
I-1
I0
tp12
bI00
S'OtGqh\xc0T@Et\xd3\x7f\xf2\x0cT?m/4\x06\xfa\xc1\x85?t\xb8\xc0Tr[\xe0?'
p13
tp14
b(lp15
(lp16
cnumpy.core.multiarray
scalar
p17
(g10
S'6\xf7\x8e\xa5F\x04Q@'
p18
tp19
Rp20
ag17
(g10
S'h\xf1\xff<\x8a|X@'
p21
tp22
Rp23
aa(lp24
g17
(g10
S'\x92 \xd8}{X;?'
p25
tp26
Rp27
ag17
(g10
S'3p\x18\x10\xe3\xa1`?'
p28
tp29
Rp30
aa(lp31
g17
(g10
S'\xa0\xc19\xc4\xae;M?'
p32
tp33
Rp34
ag17
(g10
S'`a\x12\x90\x1c\xd8\x94?'
p35
tp36
Rp37
aa(lp38
g17
(g10
S'\x01l#\xcc\xd3S\xe0?'
p39
tp40
Rp41
ag17
(g10
S'\xe7\x04^\xdd\x10c\xe0?'
p42
tp43
Rp44
aatp45
.