(cnumpy.core.multiarray
_reconstruct
p0
(cnumpy
ndarray
p1
(I0
tp2
S'b'
p3
tp4
Rp5
(I1
(I4
tp6
cnumpy
dtype
p7
(S'f8'
p8
I0
I1
tp9
Rp10
(I3
S'<'
p11
NNNI-1
I-1
I0
tp12
bI00
S'$2@p\x0c_R@U\x10\xca\xbf.\xde|?\x80l\xd3\x9a\x99\xa21>e\x8aDs\x12\x8d\xe0?'
p13
tp14
b(lp15
(lp16
cnumpy.core.multiarray
scalar
p17
(g10
S'\xc6\x118z\x9f2O@'
p18
tp19
Rp20
ag17
(g10
S'e[d#\xc9$U@'
p21
tp22
Rp23
aa(lp24
g17
(g10
S'\xa2\xbe.wNts?'
p25
tp26
Rp27
ag17
(g10
S'\x04\xb12\x84\x07$\x83?'
p28
tp29
Rp30
aa(lp31
g17
(g10
S'\xac\xc0=(\x87+\x88\xbf'
p32
tp33
Rp34
ag17
(g10
S'ZZgB\x88+\x88?'
p35
tp36
Rp37
aa(lp38
g17
(g10
S'\x99\xac\xd9\xbc\xea\x8a\xe0?'
p39
tp40
Rp41
ag17
(g10
S'1h\xaf):\x8f\xe0?'
p42
tp43
Rp44
aatp45
.