(cnumpy.core.multiarray
_reconstruct
p0
(cnumpy
ndarray
p1
(I0
tp2
S'b'
p3
tp4
Rp5
(I1
(I4
tp6
cnumpy
dtype
p7
(S'f8'
p8
I0
I1
tp9
Rp10
(I3
S'<'
p11
NNNI-1
I-1
I0
tp12
bI00
S'_\xb4w\xd4[\x0fV@\xc8V5\xe2g\x83\x1e?6\x86\x9e3\xfb\xf5\xb6??\x14\r\x9e\xd2X\xe0?'
p13
tp14
b(lp15
(lp16
cnumpy.core.multiarray
scalar
p17
(g10
S'/^AD\xc2NT@'
p18
tp19
Rp20
ag17
(g10
S'\x8f\n\xaed\xf5\xcfW@'
p21
tp22
Rp23
aa(lp24
g17
(g10
S' \xabv\xe9\xa8r\x00\xbf'
p25
tp26
Rp27
ag17
(g10
S'\xc8\x80I\x0e\tP1?'
p28
tp29
Rp30
aa(lp31
g17
(g10
S'\x05_9n\xca\xdf\xb0?'
p32
tp33
Rp34
ag17
(g10
S'g\xad\x03\xf9+\x0c\xbd?'
p35
tp36
Rp37
aa(lp38
g17
(g10
S';\x97|C<B\xe0?'
p39
tp40
Rp41
ag17
(g10
S'C\x91\x9d\xf8ho\xe0?'
p42
tp43
Rp44
aatp45
.