(cnumpy.core.multiarray
_reconstruct
p0
(cnumpy
ndarray
p1
(I0
tp2
S'b'
p3
tp4
Rp5
(I1
(I4
tp6
cnumpy
dtype
p7
(S'f8'
p8
I0
I1
tp9
Rp10
(I3
S'<'
p11
NNNI-1
I-1
I0
tp12
bI00
S'\xb8\x02^V\xb8\xf0R@A\xc2{\xc3\xda\xc1u?\xad\x9bW\xb7/\xd8\x89?0(\xb0\x9aP\xcc\xe0?'
p13
tp14
b(lp15
(lp16
cnumpy.core.multiarray
scalar
p17
(g10
S'\xbe\x98\xae\xdb\xdd\xa0Q@'
p18
tp19
Rp20
ag17
(g10
S'\xb2l\r\xd1\x92@T@'
p21
tp22
Rp23
aa(lp24
g17
(g10
S'L;\xb6\xf2T7r?'
p25
tp26
Rp27
ag17
(g10
S'6IA\x94`Ly?'
p28
tp29
Rp30
aa(lp31
g17
(g10
S'\xfd\xe9\xa8\xe0,Yz?'
p32
tp33
Rp34
ag17
(g10
S'.a-\x7f\xe4A\x93?'
p35
tp36
Rp37
aa(lp38
g17
(g10
S');\x89\xb73\xcb\xe0?'
p39
tp40
Rp41
ag17
(g10
S'7\x15\xd7}m\xcd\xe0?'
p42
tp43
Rp44
aatp45
.