(cnumpy.core.multiarray
_reconstruct
p0
(cnumpy
ndarray
p1
(I0
tp2
S'b'
p3
tp4
Rp5
(I1
(I4
tp6
cnumpy
dtype
p7
(S'f8'
p8
I0
I1
tp9
Rp10
(I3
S'<'
p11
NNNI-1
I-1
I0
tp12
bI00
S"\xde \xb9\xa85\x9cY@\xba\xfdz7OKh?\xe2Sq\xdf\x98'\x90?{|b\x01\xf1\xc1\xe0?"
p13
tp14
b(lp15
(lp16
cnumpy.core.multiarray
scalar
p17
(g10
S'Nc\x0b\x7f\xfccX@'
p18
tp19
Rp20
ag17
(g10
S'n\xdef\xd2n\xd4Z@'
p21
tp22
Rp23
aa(lp24
g17
(g10
S'6\r\xfd\x1e\x06$g?'
p25
tp26
Rp27
ag17
(g10
S'>\xee\xf8O\x98ri?'
p28
tp29
Rp30
aa(lp31
g17
(g10
S'\x06\x92[q!2\x84?'
p32
tp33
Rp34
ag17
(g10
S'\xc1\xde4\x06!6\x96?'
p35
tp36
Rp37
aa(lp38
g17
(g10
S'>3\xa9\xcf\xf6\xc0\xe0?'
p39
tp40
Rp41
ag17
(g10
S'\xb8\xc5\x1b3\xeb\xc2\xe0?'
p42
tp43
Rp44
aatp45
.