(cnumpy.core.multiarray
_reconstruct
p0
(cnumpy
ndarray
p1
(I0
tp2
S'b'
p3
tp4
Rp5
(I1
(I4
tp6
cnumpy
dtype
p7
(S'f8'
p8
I0
I1
tp9
Rp10
(I3
S'<'
p11
NNNI-1
I-1
I0
tp12
bI00
S'\xf1\x99+\xd8c\xc9G@SI\xe34Ew\x04?\xe5V\xe5\xa1;I\xd1?\xf1<Qjq\xbb\xe0?'
p13
tp14
b(lp15
(lp16
cnumpy.core.multiarray
scalar
p17
(g10
S'\xa6\xba\xea\xca\xc83D@'
p18
tp19
Rp20
ag17
(g10
S'<yl\xe5\xfe^K@'
p21
tp22
Rp23
aa(lp24
g17
(g10
S'tl8!\xafq%\xbf'
p25
tp26
Rp27
ag17
(g10
S'\x1e\x11\xaa\xbbQ\xad/?'
p28
tp29
Rp30
aa(lp31
g17
(g10
S'\xef\xb7\x18d;\x0c\xcf?'
p32
tp33
Rp34
ag17
(g10
S'\xd2Q\xbe\x91Y\x0c\xd3?'
p35
tp36
Rp37
aa(lp38
g17
(g10
S'6K\x0c+X\xfb\xdf?'
p39
tp40
Rp41
ag17
(g10
S'GT\x1c\xbf6y\xe1?'
p42
tp43
Rp44
aatp45
.