(cnumpy.core.multiarray
_reconstruct
p0
(cnumpy
ndarray
p1
(I0
tp2
S'b'
p3
tp4
Rp5
(I1
(I4
tp6
cnumpy
dtype
p7
(S'f8'
p8
I0
I1
tp9
Rp10
(I3
S'<'
p11
NNNI-1
I-1
I0
tp12
bI00
S'B\xccE#sJV@\xb9\xcc\xf5B\tD`?\tX\xebc\x06\xce\xb7?\xd1\xdbY\xca\xa3\x87\xe0?'
p13
tp14
b(lp15
(lp16
cnumpy.core.multiarray
scalar
p17
(g10
S'p\xe7\x89?w\xb6S@'
p18
tp19
Rp20
ag17
(g10
S'\x14\xb1\x01\x07o\xdeX@'
p21
tp22
Rp23
aa(lp24
g17
(g10
S'x_\xbc\x0e8\x9aR?'
p25
tp26
Rp27
ag17
(g10
S'\xb6i\x8d~\xf6:g?'
p28
tp29
Rp30
aa(lp31
g17
(g10
S'w|\xd3\xaeP\xbb\xab?'
p32
tp33
Rp34
ag17
(g10
S'\xebx682\xdf\xc0?'
p35
tp36
Rp37
aa(lp38
g17
(g10
S'\xe9\x18N~\t\x84\xe0?'
p39
tp40
Rp41
ag17
(g10
S'\xb9\x9ee\x16>\x8b\xe0?'
p42
tp43
Rp44
aatp45
.