(cnumpy.core.multiarray
_reconstruct
p0
(cnumpy
ndarray
p1
(I0
tp2
S'b'
p3
tp4
Rp5
(I1
(I4
tp6
cnumpy
dtype
p7
(S'f8'
p8
I0
I1
tp9
Rp10
(I3
S'<'
p11
NNNI-1
I-1
I0
tp12
bI00
S'\x07EE\xd5I4K@\x06\xdaVqU\x8e\x8e?{N\x1e\xed=-\xc0?\x90\xb7\xc6\x021\xaa\xe0?'
p13
tp14
b(lp15
(lp16
cnumpy.core.multiarray
scalar
p17
(g10
S'\x9e\xd6{\xa7^\xabG@'
p18
tp19
Rp20
ag17
(g10
S'p\xb3\x0e\x035\xbdN@'
p21
tp22
Rp23
aa(lp24
g17
(g10
S'\x945M\xb7\xc8i\x87?'
p25
tp26
Rp27
ag17
(g10
S'<?\xb0\x15q\xd9\x92?'
p28
tp29
Rp30
aa(lp31
g17
(g10
S'H=G\x88\xc4 \x99?'
p32
tp33
Rp34
ag17
(g10
S'M\xb53Ic6\xcd?'
p35
tp36
Rp37
aa(lp38
g17
(g10
S'\xd18:)\xaa\xa8\xe0?'
p39
tp40
Rp41
ag17
(g10
S'O6S\xdc\xb7\xab\xe0?'
p42
tp43
Rp44
aatp45
.