(cnumpy.core.multiarray
_reconstruct
p0
(cnumpy
ndarray
p1
(I0
tp2
S'b'
p3
tp4
Rp5
(I1
(I4
tp6
cnumpy
dtype
p7
(S'f8'
p8
I0
I1
tp9
Rp10
(I3
S'<'
p11
NNNI-1
I-1
I0
tp12
bI00
S'\xd5\xb8\xf8_\x15\xd5D@\xc9!#\xdb\xdb\xb2\x97?&\x11||\xf0\xf5\xac?H7\x997\xabY\xe0?'
p13
tp14
b(lp15
(lp16
cnumpy.core.multiarray
scalar
p17
(g10
S'X?v\x13&zA@'
p18
tp19
Rp20
ag17
(g10
S'R2{\xac\x040H@'
p21
tp22
Rp23
aa(lp24
g17
(g10
S'\xf9\\a\xc2\xee\xf8\x90?'
p25
tp26
Rp27
ag17
(g10
S'\x99\xe6\xe4\xf3\xc8l\x9e?'
p28
tp29
Rp30
aa(lp31
g17
(g10
S'\xb8\x9d\x16hD\x1e\x84?'
p32
tp33
Rp34
ag17
(g10
S"o=y\xef'r\xba?"
p35
tp36
Rp37
aa(lp38
g17
(g10
S'\xd7\xa0(#*X\xe0?'
p39
tp40
Rp41
ag17
(g10
S'\xb9\xcd\tL,[\xe0?'
p42
tp43
Rp44
aatp45
.