(cnumpy.core.multiarray
_reconstruct
p0
(cnumpy
ndarray
p1
(I0
tp2
S'b'
p3
tp4
Rp5
(I1
(I4
tp6
cnumpy
dtype
p7
(S'f8'
p8
I0
I1
tp9
Rp10
(I3
S'<'
p11
NNNI-1
I-1
I0
tp12
bI00
S'+#[\xdf\xf2\xb2Q@*\xb4BOq\xfax?\xf9\x8c0\x86M`\x84?\x0644 \x91\x83\xe0?'
p13
tp14
b(lp15
(lp16
cnumpy.core.multiarray
scalar
p17
(g10
S'l:Z:i"P@'
p18
tp19
Rp20
ag17
(g10
S'\xea\x0b\\\x84|CS@'
p21
tp22
Rp23
aa(lp24
g17
(g10
S"\x06\xb4'\x96W\xffs?"
p25
tp26
Rp27
ag17
(g10
S'N\xb4]\x08\x8b\xf5}?'
p28
tp29
Rp30
aa(lp31
g17
(g10
S'\x1aF\xd5\x82\n\xb7a?'
p32
tp33
Rp34
ag17
(g10
S'6\xe4\xd55l)\x92?'
p35
tp36
Rp37
aa(lp38
g17
(g10
S'\xdb\xcc\x18\x8e*\x82\xe0?'
p39
tp40
Rp41
ag17
(g10
S'1\x9bO\xb2\xf7\x84\xe0?'
p42
tp43
Rp44
aatp45
.