ccopy_reg
_reconstructor
p1
(canalysis
Fit_class
p2
c__builtin__
object
p3
NtRp4
(dp5
S'std'
p6
cnumpy.core.multiarray
_reconstruct
p7
(cnumpy
ndarray
p8
(I0
tS'b'
tRp9
(I1
(I3
tcnumpy
dtype
p10
(S'f8'
I0
I1
tRp11
(I3
S'<'
NNNI-1
I-1
I0
tbI00
S'\xc0\xdf\xbb\xbe%\xa58@\x14\xcc[\x83\x83\xfdr?\xe3_ ?\xdf\x0f:?'
tbsS'params'
p12
g7
(g8
(I0
tS'b'
tRp13
(I1
(I3
tg11
I00
S"39\x0f\xfd+\nR@\xbd'\x80\xe6\xabMy?\xf3\xca\xdf|;\x9b\xe0?"
tbsb.