ccopy_reg
_reconstructor
p1
(canalysis
Fit_class
p2
c__builtin__
object
p3
NtRp4
(dp5
S'std'
p6
cnumpy.core.multiarray
_reconstruct
p7
(cnumpy
ndarray
p8
(I0
tS'b'
tRp9
(I1
(I3
tcnumpy
dtype
p10
(S'f8'
I0
I1
tRp11
(I3
S'<'
NNNI-1
I-1
I0
tbI00
S"\x0fYl\x83\x1e\xe2\xf3?\x9cZ\xe6!H\xcb\x9e>\x80\r\x08'\xc7;\x15?"
tbsS'params'
p12
g7
(g8
(I0
tS'b'
tRp13
(I1
(I3
tg11
I00
S'nI\xbec\x87AG@d:\x92\x13\xa2\xae{?\xa1\x8b\xef|\x91\x92\xe0?'
tbsb.