ccopy_reg
_reconstructor
p1
(canalysis
Fit_class
p2
c__builtin__
object
p3
NtRp4
(dp5
S'std'
p6
cnumpy.core.multiarray
_reconstruct
p7
(cnumpy
ndarray
p8
(I0
tS'b'
tRp9
(I1
(I3
tcnumpy
dtype
p10
(S'f8'
I0
I1
tRp11
(I3
S'<'
NNNI-1
I-1
I0
tbI00
S'\xb6\x02y\xbbd,0@(\xbc\\_e\xfa\x10?\xa0 \xdc\x99\xdb\xac\x83?'
tbsS'params'
p12
g7
(g8
(I0
tS'b'
tRp13
(I1
(I3
tg11
I00
S'4\xdd\x17\xd5\x0bXj@r8\xac\xc8W\xa8\xde>\x82#\xf2\xd5\x93\xb2\xe0?'
tbsb.