ccopy_reg
_reconstructor
p1
(canalysis
Fit_class
p2
c__builtin__
object
p3
NtRp4
(dp5
S'std'
p6
cnumpy.core.multiarray
_reconstruct
p7
(cnumpy
ndarray
p8
(I0
tS'b'
tRp9
(I1
(I3
tcnumpy
dtype
p10
(S'f8'
I0
I1
tRp11
(I3
S'<'
NNNI-1
I-1
I0
tbI00
S'BI\xf78M\x86.@\x9ff\x182\xf7DY?\xc9?\xe8\x95\xd5\xbe\x1a?'
tbsS'params'
p12
g7
(g8
(I0
tS'b'
tRp13
(I1
(I3
tg11
I00
S'\x1cO\xbd\x8d\xbd\xd5b@~~.D\xc1\xdcv?#a\xe9\xac\r\xe0\xe0?'
tbsb.