ccopy_reg
_reconstructor
p1
(canalysis
Fit_class
p2
c__builtin__
object
p3
NtRp4
(dp5
S'std'
p6
cnumpy.core.multiarray
_reconstruct
p7
(cnumpy
ndarray
p8
(I0
tS'b'
tRp9
(I1
(I3
tcnumpy
dtype
p10
(S'f8'
I0
I1
tRp11
(I3
S'<'
NNNI-1
I-1
I0
tbI00
S'\x9b\xcd\xbe\xc0#\xa68@T\x8c\xf5lk\xfcr?m)-\xf2r\x10:?'
tbsS'params'
p12
g7
(g8
(I0
tS'b'
tRp13
(I1
(I3
tg11
I00
S'\xe1\x15\xf0T\xdd\nR@(\x81\x1d\xef\xb5Ky?\xd3\xdd\x0fO;\x9b\xe0?'
tbsb.