ccopy_reg
_reconstructor
p1
(canalysis
Fit_class
p2
c__builtin__
object
p3
NtRp4
(dp5
S'std'
p6
cnumpy.core.multiarray
_reconstruct
p7
(cnumpy
ndarray
p8
(I0
tS'b'
tRp9
(I1
(I3
tcnumpy
dtype
p10
(S'f8'
I0
I1
tRp11
(I3
S'<'
NNNI-1
I-1
I0
tbI00
S',Wu\xe6\xfe\x14+@\x1d\x8b\xb0\xf4>\x89\x18?Tp\x0e\x97nAc?'
tbsS'params'
p12
g7
(g8
(I0
tS'b'
tRp13
(I1
(I3
tg11
I00
S'9\xe0\xd1\xb2JRk@\xc84\x00\x13\xa9\xf2\x03?\xf1*\xed\xcd5\xc2\xe0?'
tbsb.