ccopy_reg
_reconstructor
p1
(canalysis
Fit_class
p2
c__builtin__
object
p3
NtRp4
(dp5
S'std'
p6
cnumpy.core.multiarray
_reconstruct
p7
(cnumpy
ndarray
p8
(I0
tS'b'
tRp9
(I1
(I3
tcnumpy
dtype
p10
(S'f8'
I0
I1
tRp11
(I3
S'<'
NNNI-1
I-1
I0
tbI00
S"]\xcb\x9a\xcb\x1b\x98\x15@\x8esZ?\xa7'F?(\xf7}\xa8\xc0y!?"
tbsS'params'
p12
g7
(g8
(I0
tS'b'
tRp13
(I1
(I3
tg11
I00
S'\xa8\xb5O\xf2\xb0iR@z\x03~\xacnbm?\xce\xd6H\xfc\x9f\x8e\xe0?'
tbsb.