ccopy_reg
_reconstructor
p1
(canalysis
Fit_class
p2
c__builtin__
object
p3
NtRp4
(dp5
S'std'
p6
cnumpy.core.multiarray
_reconstruct
p7
(cnumpy
ndarray
p8
(I0
tS'b'
tRp9
(I1
(I3
tcnumpy
dtype
p10
(S'f8'
I0
I1
tRp11
(I3
S'<'
NNNI-1
I-1
I0
tbI00
S'\x82Q\xf6\x12\xb0\x0f\xc9?\x19t7\x00\xb7\x8a)?\xa7\x96\xf4`<h\x14?'
tbsS'params'
p12
g7
(g8
(I0
tS'b'
tRp13
(I1
(I3
tg11
I00
S'\xb0\xc7/\xd1O8-@\xf4K\xb5\xcb \x08{?\xfeHzH\x04\xa6\xe0?'
tbsb.