ccopy_reg
_reconstructor
p1
(canalysis
Fit_class
p2
c__builtin__
object
p3
NtRp4
(dp5
S'std'
p6
cnumpy.core.multiarray
_reconstruct
p7
(cnumpy
ndarray
p8
(I0
tS'b'
tRp9
(I1
(I3
tcnumpy
dtype
p10
(S'f8'
I0
I1
tRp11
(I3
S'<'
NNNI-1
I-1
I0
tbI00
S'\xda\xc4q:\x86$6@\x8c\xc2\xf6\xc8\xd0\x168?9\x8b\xe3\x94\\\xaaB?'
tbsS'params'
p12
g7
(g8
(I0
tS'b'
tRp13
(I1
(I3
tg11
I00
S'\x1e\xb52\x95\x0f\xf2i@\xdfi\xf0T\xec <?\xe6eO\xca*\xce\xe0?'
tbsb.