(cnumpy.core.multiarray
_reconstruct
p0
(cnumpy
ndarray
p1
(I0
tp2
S'b'
p3
tp4
Rp5
(I1
(I2
tp6
cnumpy
dtype
p7
(S'f8'
p8
I0
I1
tp9
Rp10
(I3
S'<'
p11
NNNI-1
I-1
I0
tp12
bI00
S'\xe6\xae\x98\x9dN\x1d\xfe?_\x00\x85\xe2?\x98\xe0?'
p13
tp14
b(lp15
(lp16
cnumpy.core.multiarray
scalar
p17
(g10
S'QIiS\xc0=\x0b\xc0'
p18
tp19
Rp20
ag17
(g10
S'\x1c\xfc\x80x\x87\xad\x1c@'
p21
tp22
Rp23
aa(lp24
g17
(g10
S'g\x01#\xe9\xa6\x97\xe0?'
p25
tp26
Rp27
ag17
(g10
S'W\xff\xe6\xdb\xd8\x98\xe0?'
p28
tp29
Rp30
aatp31
.