(cnumpy.core.multiarray
_reconstruct
p0
(cnumpy
ndarray
p1
(I0
tp2
S'b'
p3
tp4
Rp5
(I1
(I2
tp6
cnumpy
dtype
p7
(S'f8'
p8
I0
I1
tp9
Rp10
(I3
S'<'
p11
NNNI-1
I-1
I0
tp12
bI00
S'\xc7\x10r\xaa\xbcy\xab?b\x8a\xafM\x15\x91\xe0?'
p13
tp14
b(lp15
(lp16
cnumpy.core.multiarray
scalar
p17
(g10
S'\xa2Y\xc3g\x87$\xa5?'
p18
tp19
Rp20
ag17
(g10
S'\xf6c\x90\xf6x\xe7\xb0?'
p21
tp22
Rp23
aa(lp24
g17
(g10
S'x\x98\x90k\x8a\x90\xe0?'
p25
tp26
Rp27
ag17
(g10
S'L|\xce/\xa0\x91\xe0?'
p28
tp29
Rp30
aatp31
.