(cnumpy.core.multiarray
_reconstruct
p0
(cnumpy
ndarray
p1
(I0
tp2
S'b'
p3
tp4
Rp5
(I1
(I2
tp6
cnumpy
dtype
p7
(S'f8'
p8
I0
I1
tp9
Rp10
(I3
S'<'
p11
NNNI-1
I-1
I0
tp12
bI00
S'\x996<\xf7\xf1\xc5\xf7?\xe45\x98I=\x9c\xe0?'
p13
tp14
b(lp15
(lp16
cnumpy.core.multiarray
scalar
p17
(g10
S'go\x83y#\xb4\xf8\xbf'
p18
tp19
Rp20
ag17
(g10
S'&\xf7\xfe\xd9\x01\x10\x12@'
p21
tp22
Rp23
aa(lp24
g17
(g10
S'\xf20\xbfC\xa6\x9b\xe0?'
p25
tp26
Rp27
ag17
(g10
S'\xd6:qO\xd4\x9c\xe0?'
p28
tp29
Rp30
aatp31
.