(cnumpy.core.multiarray
_reconstruct
p0
(cnumpy
ndarray
p1
(I0
tp2
S'b'
p3
tp4
Rp5
(I1
(I2
tp6
cnumpy
dtype
p7
(S'f8'
p8
I0
I1
tp9
Rp10
(I3
S'<'
p11
NNNI-1
I-1
I0
tp12
bI00
S'$\x7f\xd5;\xafd\xcc?[\xca\xae\x8e\x83\x9e\xe0?'
p13
tp14
b(lp15
(lp16
cnumpy.core.multiarray
scalar
p17
(g10
S'\xfa\x8d!\xdc\x9f\xd2\xc1?'
p18
tp19
Rp20
ag17
(g10
S"'\xb8\xc4M_{\xd3?"
p21
tp22
Rp23
aa(lp24
g17
(g10
S')+\xb8\xad\xf2\x9d\xe0?'
p25
tp26
Rp27
ag17
(g10
S'\x8di\xa5o\x14\x9f\xe0?'
p28
tp29
Rp30
aatp31
.