(cnumpy.core.multiarray
_reconstruct
p0
(cnumpy
ndarray
p1
(I0
tp2
S'b'
p3
tp4
Rp5
(I1
(I2
tp6
cnumpy
dtype
p7
(S'f8'
p8
I0
I1
tp9
Rp10
(I3
S'<'
p11
NNNI-1
I-1
I0
tp12
bI00
S'0\xa3\xa1,\xaah\xe7?\xb2\x97Q\rD\x9b\xe0?'
p13
tp14
b(lp15
(lp16
cnumpy.core.multiarray
scalar
p17
(g10
S'@\x8eSp\xd2\xfc\xa9?'
p18
tp19
Rp20
ag17
(g10
S'\xbe\x06\x1f\x99\xc3\x98\xf6?'
p21
tp22
Rp23
aa(lp24
g17
(g10
S"'\xec\x08\x02\xdb\x9a\xe0?"
p25
tp26
Rp27
ag17
(g10
S'=C\x9a\x18\xad\x9b\xe0?'
p28
tp29
Rp30
aatp31
.