(cnumpy.core.multiarray
_reconstruct
p0
(cnumpy
ndarray
p1
(I0
tp2
S'b'
p3
tp4
Rp5
(I1
(I2
tp6
cnumpy
dtype
p7
(S'f8'
p8
I0
I1
tp9
Rp10
(I3
S'<'
p11
NNNI-1
I-1
I0
tp12
bI00
S'\x11>$bu9\xd5?E\x13\x91\xae*\x93\xe0?'
p13
tp14
b(lp15
(lp16
cnumpy.core.multiarray
scalar
p17
(g10
S'k\xe2\x08\x93U\x7f\xc5?'
p18
tp19
Rp20
ag17
(g10
S'\xec\n\xc4\xfa?\xb3\xdf?'
p21
tp22
Rp23
aa(lp24
g17
(g10
S'\xe9\x19g7\x95\x92\xe0?'
p25
tp26
Rp27
ag17
(g10
S'\xa1\x0c\xbb%\xc0\x93\xe0?'
p28
tp29
Rp30
aatp31
.