(cnumpy.core.multiarray
_reconstruct
p0
(cnumpy
ndarray
p1
(I0
tp2
S'b'
p3
tp4
Rp5
(I1
(I2
tp6
cnumpy
dtype
p7
(S'f8'
p8
I0
I1
tp9
Rp10
(I3
S'<'
p11
NNNI-1
I-1
I0
tp12
bI00
S'\'n"\x96U\xdb\x1d@\x83Ep\xab\xe2\xa6\xe0?'
p13
tp14
b(lp15
(lp16
cnumpy.core.multiarray
scalar
p17
(g10
S'\r\xde\xc2\xd4\xbf\xc6t\xc0'
p18
tp19
Rp20
ag17
(g10
S'\x7f\xf1s\x81\x9a\xb5u@'
p21
tp22
Rp23
aa(lp24
g17
(g10
S'\xb8M\xd8qT\xa6\xe0?'
p25
tp26
Rp27
ag17
(g10
S'N=\x08\xe5p\xa7\xe0?'
p28
tp29
Rp30
aatp31
.