(cnumpy.core.multiarray
_reconstruct
p0
(cnumpy
ndarray
p1
(I0
tp2
S'b'
p3
tp4
Rp5
(I1
(I2
tp6
cnumpy
dtype
p7
(S'f8'
p8
I0
I1
tp9
Rp10
(I3
S'<'
p11
NNNI-1
I-1
I0
tp12
bI00
S'f*\xb9\xebk\xb7\xe3?\xcc\x0bH\x87s\x8b\xe0?'
p13
tp14
b(lp15
(lp16
cnumpy.core.multiarray
scalar
p17
(g10
S'\x08[f\xb9~4\xb1\xbf'
p18
tp19
Rp20
ag17
(g10
S'\x16\x90O\xd7\xb3\xca\xf4?'
p21
tp22
Rp23
aa(lp24
g17
(g10
S'O\x0e\xe0$\xe2\x8a\xe0?'
p25
tp26
Rp27
ag17
(g10
S'I\t\xb0\xe9\x04\x8c\xe0?'
p28
tp29
Rp30
aatp31
.