(cnumpy.core.multiarray
_reconstruct
p0
(cnumpy
ndarray
p1
(I0
tp2
S'b'
p3
tp4
Rp5
(I1
(I2
tp6
cnumpy
dtype
p7
(S'f8'
p8
I0
I1
tp9
Rp10
(I3
S'<'
p11
NNNI-1
I-1
I0
tp12
bI00
S'\x11U\xdbys\x1b\xf1?\x95\x1b\xec\xa5|\x99\xe0?'
p13
tp14
b(lp15
(lp16
cnumpy.core.multiarray
scalar
p17
(g10
S'O)\xf7\x18)\x04\xf0\xbf'
p18
tp19
Rp20
ag17
(g10
S'\xb8\xe9V\x06\x88\x1d\t@'
p21
tp22
Rp23
aa(lp24
g17
(g10
S'\xc1\xf0\x86c\xe4\x98\xe0?'
p25
tp26
Rp27
ag17
(g10
S'iFQ\xe8\x14\x9a\xe0?'
p28
tp29
Rp30
aatp31
.