(cnumpy.core.multiarray
_reconstruct
p0
(cnumpy
ndarray
p1
(I0
tp2
S'b'
p3
tp4
Rp5
(I1
(I2
tp6
cnumpy
dtype
p7
(S'f8'
p8
I0
I1
tp9
Rp10
(I3
S'<'
p11
NNNI-1
I-1
I0
tp12
bI00
S'2\xcd\\\xda\xf0\x19 @\xd2g\x91\x8f\xd5\x89\xe0?'
p13
tp14
b(lp15
(lp16
cnumpy.core.multiarray
scalar
p17
(g10
S'\xf1h^!P\x92{\xc0'
p18
tp19
Rp20
ag17
(g10
S'\xc55\x04/\xef\x93|@'
p21
tp22
Rp23
aa(lp24
g17
(g10
S'\x1e\xe7|\xb4D\x89\xe0?'
p25
tp26
Rp27
ag17
(g10
S'\x86\xe8\xa5jf\x8a\xe0?'
p28
tp29
Rp30
aatp31
.