(cnumpy.core.multiarray
_reconstruct
p0
(cnumpy
ndarray
p1
(I0
tp2
S'b'
p3
tp4
Rp5
(I1
(I2
tp6
cnumpy
dtype
p7
(S'f8'
p8
I0
I1
tp9
Rp10
(I3
S'<'
p11
NNNI-1
I-1
I0
tp12
bI00
S'\x05\x87\x98\xa6\xcd\x8e\x0b@\xbd\xb8\xe5\xfd}\x97\xe0?'
p13
tp14
b(lp15
(lp16
cnumpy.core.multiarray
scalar
p17
(g10
S'kw\xc9\xb0Z\xf7;\xc0'
p18
tp19
Rp20
ag17
(g10
S'\x96\xcc7\r\x87mA@'
p21
tp22
Rp23
aa(lp24
g17
(g10
S'\xd5XIK\xe8\x96\xe0?'
p25
tp26
Rp27
ag17
(g10
S'\xa5\x18\x82\xb0\x13\x98\xe0?'
p28
tp29
Rp30
aatp31
.