(cnumpy.core.multiarray
_reconstruct
p0
(cnumpy
ndarray
p1
(I0
tp2
S'b'
p3
tp4
Rp5
(I1
(I2
tp6
cnumpy
dtype
p7
(S'f8'
p8
I0
I1
tp9
Rp10
(I3
S'<'
p11
NNNI-1
I-1
I0
tp12
bI00
S'\x16\xb4zX\x05\xba @\x8e\xdeNof\x8f\xe0?'
p13
tp14
b(lp15
(lp16
cnumpy.core.multiarray
scalar
p17
(g10
S'ax\x8c\xa9\xcb\x01\x81\xc0'
p18
tp19
Rp20
ag17
(g10
S'\x01NP\xd4\x9b\x87\x81@'
p21
tp22
Rp23
aa(lp24
g17
(g10
S'\xfb\x19\xc6:\xd1\x8e\xe0?'
p25
tp26
Rp27
ag17
(g10
S'!\xa3\xd7\xa3\xfb\x8f\xe0?'
p28
tp29
Rp30
aatp31
.