(cnumpy.core.multiarray
_reconstruct
p0
(cnumpy
ndarray
p1
(I0
tp2
S'b'
p3
tp4
Rp5
(I1
(I2
tp6
cnumpy
dtype
p7
(S'f8'
p8
I0
I1
tp9
Rp10
(I3
S'<'
p11
NNNI-1
I-1
I0
tp12
bI00
S'\xf0\x19I\xf7\x1dR\xa7?z\xc7\x11*\x8f\xa3\xe0?'
p13
tp14
b(lp15
(lp16
cnumpy.core.multiarray
scalar
p17
(g10
S'\x1eY+7K~\x9d?'
p18
tp19
Rp20
ag17
(g10
S'Q\x87\xfcR\x16\xe5\xaf?'
p21
tp22
Rp23
aa(lp24
g17
(g10
S'\x14\x1b\xd6\xd6\xfb\xa2\xe0?'
p25
tp26
Rp27
ag17
(g10
S'\xe0sM}"\xa4\xe0?'
p28
tp29
Rp30
aatp31
.