(cnumpy.core.multiarray
_reconstruct
p0
(cnumpy
ndarray
p1
(I0
tp2
S'b'
p3
tp4
Rp5
(I1
(I2
tp6
cnumpy
dtype
p7
(S'f8'
p8
I0
I1
tp9
Rp10
(I3
S'<'
p11
NNNI-1
I-1
I0
tp12
bI00
S'\x0cM$\xb9\xe8\xef\xc1?\xeb\xf3c\x05\xbd\xb8\xe0?'
p13
tp14
b(lp15
(lp16
cnumpy.core.multiarray
scalar
p17
(g10
S'\x14\x8a\xf2o\xe2\xa6\xb3?'
p18
tp19
Rp20
ag17
(g10
S'\x0eUO:`\x0c\xca?'
p21
tp22
Rp23
aa(lp24
g17
(g10
S"VZ)v'\xb8\xe0?"
p25
tp26
Rp27
ag17
(g10
S'\x80\x8d\x9e\x94R\xb9\xe0?'
p28
tp29
Rp30
aatp31
.