(cnumpy.core.multiarray
_reconstruct
p0
(cnumpy
ndarray
p1
(I0
tp2
S'b'
p3
tp4
Rp5
(I1
(I2
tp6
cnumpy
dtype
p7
(S'f8'
p8
I0
I1
tp9
Rp10
(I3
S'<'
p11
NNNI-1
I-1
I0
tp12
bI00
S'(\x86\x7f6\xad\x19\x1c@\xc4H\x16\xf0\x88\x8b\xe0?'
p13
tp14
b(lp15
(lp16
cnumpy.core.multiarray
scalar
p17
(g10
S'Y\x00\x0f\xd9:nn\xc0'
p18
tp19
Rp20
ag17
(g10
S'^|;\xd6\xea\x17p@'
p21
tp22
Rp23
aa(lp24
g17
(g10
S't\xa4\x7f\x89\xf9\x8a\xe0?'
p25
tp26
Rp27
ag17
(g10
S'\x14\xed\xacV\x18\x8c\xe0?'
p28
tp29
Rp30
aatp31
.