(cnumpy.core.multiarray
_reconstruct
p0
(cnumpy
ndarray
p1
(I0
tp2
S'b'
p3
tp4
Rp5
(I1
(I2
tp6
cnumpy
dtype
p7
(S'f8'
p8
I0
I1
tp9
Rp10
(I3
S'<'
p11
NNNI-1
I-1
I0
tp12
bI00
S'\x07\xb1\x8a\xab|\x8e\xd4?+\xfe\x871\xce\x8b\xe0?'
p13
tp14
b(lp15
(lp16
cnumpy.core.multiarray
scalar
p17
(g10
S'\x12\x12\x1b\xfb\x1a\x0e\xba?'
p18
tp19
Rp20
ag17
(g10
S"\xc5N'L\xb9L\xe1?"
p21
tp22
Rp23
aa(lp24
g17
(g10
S'Q\x7f%\xac<\x8b\xe0?'
p25
tp26
Rp27
ag17
(g10
S'\x05}\xea\xb6_\x8c\xe0?'
p28
tp29
Rp30
aatp31
.