(cnumpy.core.multiarray
_reconstruct
p0
(cnumpy
ndarray
p1
(I0
tp2
S'b'
p3
tp4
Rp5
(I1
(I2
tp6
cnumpy
dtype
p7
(S'f8'
p8
I0
I1
tp9
Rp10
(I3
S'<'
p11
NNNI-1
I-1
I0
tp12
bI00
S'\x04\x87\xa1\xa5C\xcc\x15@ \xbbc\\N\x9d\xe0?'
p13
tp14
b(lp15
(lp16
cnumpy.core.multiarray
scalar
p17
(g10
S'|\xc2B\x8fE\xebW\xc0'
p18
tp19
Rp20
ag17
(g10
S'\\\xf3\xf6\x03\xce\xa4Z@'
p21
tp22
Rp23
aa(lp24
g17
(g10
S'\x9c\xc6+j\xbd\x9c\xe0?'
p25
tp26
Rp27
ag17
(g10
S'\xa4\xaf\x9bN\xdf\x9d\xe0?'
p28
tp29
Rp30
aatp31
.