(cnumpy.core.multiarray
_reconstruct
p0
(cnumpy
ndarray
p1
(I0
tp2
S'b'
p3
tp4
Rp5
(I1
(I2
tp6
cnumpy
dtype
p7
(S'f8'
p8
I0
I1
tp9
Rp10
(I3
S'<'
p11
NNNI-1
I-1
I0
tp12
bI00
S'i\xaa\x10\xe2R\xf1\xfb?F\x0c\x85\xd1\x0b\xa2\xe0?'
p13
tp14
b(lp15
(lp16
cnumpy.core.multiarray
scalar
p17
(g10
S'\xdc\xf0\x97\xcf\x8b\xc0\r\xc0'
p18
tp19
Rp20
ag17
(g10
S'\xa2M\xd4X\xef\xd8\x1c@'
p21
tp22
Rp23
aa(lp24
g17
(g10
S'f\xcf\xe4?\x81\xa1\xe0?'
p25
tp26
Rp27
ag17
(g10
S'&I%c\x96\xa2\xe0?'
p28
tp29
Rp30
aatp31
.