(cnumpy.core.multiarray
_reconstruct
p0
(cnumpy
ndarray
p1
(I0
tp2
S'b'
p3
tp4
Rp5
(I1
(I2
tp6
cnumpy
dtype
p7
(S'f8'
p8
I0
I1
tp9
Rp10
(I3
S'<'
p11
NNNI-1
I-1
I0
tp12
bI00
S'\xbc\x94\xc5\xcas\xbe\xeb?q\x94vr\xce\x87\xe0?'
p13
tp14
b(lp15
(lp16
cnumpy.core.multiarray
scalar
p17
(g10
S'<N\x9e\xcdG\x97\xd8\xbf'
p18
tp19
Rp20
ag17
(g10
S'&\x94\x16\xdf"\xf2\x00@'
p21
tp22
Rp23
aa(lp24
g17
(g10
S'\xder\xa1!B\x87\xe0?'
p25
tp26
Rp27
ag17
(g10
S'\x04\xb6K\xc3Z\x88\xe0?'
p28
tp29
Rp30
aatp31
.