(cnumpy.core.multiarray
_reconstruct
p0
(cnumpy
ndarray
p1
(I0
tp2
S'b'
p3
tp4
Rp5
(I1
(I2
tp6
cnumpy
dtype
p7
(S'f8'
p8
I0
I1
tp9
Rp10
(I3
S'<'
p11
NNNI-1
I-1
I0
tp12
bI00
S'\x12,X\x91\xc2\x90\xa4?\x91\x97\xd0\xf3\xd3\x9e\xe0?'
p13
tp14
b(lp15
(lp16
cnumpy.core.multiarray
scalar
p17
(g10
S'\x00K\n\xb0\xbac\x9e?'
p18
tp19
Rp20
ag17
(g10
S'\xa42\xab\xca\xa7\xef\xa9?'
p21
tp22
Rp23
aa(lp24
g17
(g10
S'\xbc\x90?_:\x9e\xe0?'
p25
tp26
Rp27
ag17
(g10
S'f\x9ea\x88m\x9f\xe0?'
p28
tp29
Rp30
aatp31
.