(cnumpy.core.multiarray
_reconstruct
p0
(cnumpy
ndarray
p1
(I0
tp2
S'b'
p3
tp4
Rp5
(I1
(I2
tp6
cnumpy
dtype
p7
(S'f8'
p8
I0
I1
tp9
Rp10
(I3
S'<'
p11
NNNI-1
I-1
I0
tp12
bI00
S'\x9ct<W\xb8/!@ \x14\x05\xb4\xe1\xb7\xe0?'
p13
tp14
b(lp15
(lp16
cnumpy.core.multiarray
scalar
p17
(g10
S'\x93\xabA\x81?\xe9\x83\xc0'
p18
tp19
Rp20
ag17
(g10
S'7\x8f\xfbC\xbdr\x84@'
p21
tp22
Rp23
aa(lp24
g17
(g10
S'vQ\x8bNJ\xb7\xe0?'
p25
tp26
Rp27
ag17
(g10
S'\xca\xd6~\x19y\xb8\xe0?'
p28
tp29
Rp30
aatp31
.