(cnumpy.core.multiarray
_reconstruct
p0
(cnumpy
ndarray
p1
(I0
tp2
S'b'
p3
tp4
Rp5
(I1
(I2
tp6
cnumpy
dtype
p7
(S'f8'
p8
I0
I1
tp9
Rp10
(I3
S'<'
p11
NNNI-1
I-1
I0
tp12
bI00
S'\xb0\xb3\x0b\xd3N\x0e\x1f@dk?\\\r\x95\xe0?'
p13
tp14
b(lp15
(lp16
cnumpy.core.multiarray
scalar
p17
(g10
S'\xff\x14Gh\xb7cw\xc0'
p18
tp19
Rp20
ag17
(g10
S'\x9dr\xdf\xde)\\x@'
p21
tp22
Rp23
aa(lp24
g17
(g10
S'b\xef\xba\x1e}\x94\xe0?'
p25
tp26
Rp27
ag17
(g10
S'f\xe7\xc3\x99\x9d\x95\xe0?'
p28
tp29
Rp30
aatp31
.