(cnumpy.core.multiarray
_reconstruct
p0
(cnumpy
ndarray
p1
(I0
tp2
S'b'
p3
tp4
Rp5
(I1
(I2
tp6
cnumpy
dtype
p7
(S'f8'
p8
I0
I1
tp9
Rp10
(I3
S'<'
p11
NNNI-1
I-1
I0
tp12
bI00
S'f\n\xa3\xda\x8b\n)@r|O\xea\x81\x8f\xe0?'
p13
tp14
b(lp15
(lp16
cnumpy.core.multiarray
scalar
p17
(g10
S'f\n\xa3\xda\x8b\n)@'
p18
tp19
Rp20
ag17
(g10
S'f\n\xa3\xda\x8b\n)@'
p21
tp22
Rp23
aa(lp24
g17
(g10
S'v\x96[7\xef\x8e\xe0?'
p25
tp26
Rp27
ag17
(g10
S'nbC\x9d\x14\x90\xe0?'
p28
tp29
Rp30
aatp31
.