(cnumpy.core.multiarray
_reconstruct
p0
(cnumpy
ndarray
p1
(I0
tp2
S'b'
p3
tp4
Rp5
(I1
(I2
tp6
cnumpy
dtype
p7
(S'f8'
p8
I0
I1
tp9
Rp10
(I3
S'<'
p11
NNNI-1
I-1
I0
tp12
bI00
S'\x8a\xad\xe2\xaa8\xfa\x01@\xab\x17&\xdc>\x94\xe0?'
p13
tp14
b(lp15
(lp16
cnumpy.core.multiarray
scalar
p17
(g10
S'\xdb\x1dp@]\xa8\x16\xc0'
p18
tp19
Rp20
ag17
(g10
S'\xb2e\xa9\xf5JQ$@'
p21
tp22
Rp23
aa(lp24
g17
(g10
S'\xee\xc44\x83\xac\x93\xe0?'
p25
tp26
Rp27
ag17
(g10
S'hj\x175\xd1\x94\xe0?'
p28
tp29
Rp30
aatp31
.