(cnumpy.core.multiarray
_reconstruct
p0
(cnumpy
ndarray
p1
(I0
tp2
S'b'
p3
tp4
Rp5
(I1
(I2
tp6
cnumpy
dtype
p7
(S'f8'
p8
I0
I1
tp9
Rp10
(I3
S'<'
p11
NNNI-1
I-1
I0
tp12
bI00
S'R\xff\x82\xb3\x7f\x99\xf4?\xebm)\x1eJ\x94\xe0?'
p13
tp14
b(lp15
(lp16
cnumpy.core.multiarray
scalar
p17
(g10
S'\xec2\xef\xbd&(\xe9\xbf'
p18
tp19
Rp20
ag17
(g10
S'\r\xcc\xfeb\x89\xe3\n@'
p21
tp22
Rp23
aa(lp24
g17
(g10
S'\xe7_\xc8\xda\xbb\x93\xe0?'
p25
tp26
Rp27
ag17
(g10
S'\xef{\x8aa\xd8\x94\xe0?'
p28
tp29
Rp30
aatp31
.