(cnumpy.core.multiarray
_reconstruct
p0
(cnumpy
ndarray
p1
(I0
tp2
S'b'
p3
tp4
Rp5
(I1
(I2
tp6
cnumpy
dtype
p7
(S'f8'
p8
I0
I1
tp9
Rp10
(I3
S'<'
p11
NNNI-1
I-1
I0
tp12
bI00
S'\x90\xc2\xc3\x7f\x86\n)@\x8b\x17\x069n\x9c\xe0?'
p13
tp14
b(lp15
(lp16
cnumpy.core.multiarray
scalar
p17
(g10
S'\x90\xc2\xc3\x7f\x86\n)@'
p18
tp19
Rp20
ag17
(g10
S'\x90\xc2\xc3\x7f\x86\n)@'
p21
tp22
Rp23
aa(lp24
g17
(g10
S'\xc4[\xf1\x06\xd4\x9b\xe0?'
p25
tp26
Rp27
ag17
(g10
S'R\xd3\x1ak\x08\x9d\xe0?'
p28
tp29
Rp30
aatp31
.