(cnumpy.core.multiarray
_reconstruct
p0
(cnumpy
ndarray
p1
(I0
tp2
S'b'
p3
tp4
Rp5
(I1
(I2
tp6
cnumpy
dtype
p7
(S'f8'
p8
I0
I1
tp9
Rp10
(I3
S'<'
p11
NNNI-1
I-1
I0
tp12
bI00
S'\x06\xa6\x11\x9ah\xb0\xdb?\xc9MT}\x97\x89\xe0?'
p13
tp14
b(lp15
(lp16
cnumpy.core.multiarray
scalar
p17
(g10
S'{c\xaf\xb7<\x8e\xc7?'
p18
tp19
Rp20
ag17
(g10
S"'\xcd%l\xd9\xcc\xe5?"
p21
tp22
Rp23
aa(lp24
g17
(g10
S'\x0b\x9e\x1cJ\x07\x89\xe0?'
p25
tp26
Rp27
ag17
(g10
S"\x87\xfd\x8b\xb0'\x8a\xe0?"
p28
tp29
Rp30
aatp31
.