(cnumpy.core.multiarray
_reconstruct
p0
(cnumpy
ndarray
p1
(I0
tp2
S'b'
p3
tp4
Rp5
(I1
(I2
tp6
cnumpy
dtype
p7
(S'f8'
p8
I0
I1
tp9
Rp10
(I3
S'<'
p11
NNNI-1
I-1
I0
tp12
bI00
S'n\x80\x10\x15\xae=\xc4?\xfe\xa7{m\x10\xb3\xe0?'
p13
tp14
b(lp15
(lp16
cnumpy.core.multiarray
scalar
p17
(g10
S'\xf8\x9b\xd5!*\x84\xb4?'
p18
tp19
Rp20
ag17
(g10
S'\xe026\x19G9\xce?'
p21
tp22
Rp23
aa(lp24
g17
(g10
S'\x14\xc7\xa0Eu\xb2\xe0?'
p25
tp26
Rp27
ag17
(g10
S'\xe8\x88V\x95\xab\xb3\xe0?'
p28
tp29
Rp30
aatp31
.