(cnumpy.core.multiarray
_reconstruct
p0
(cnumpy
ndarray
p1
(I0
tp2
S'b'
p3
tp4
Rp5
(I1
(I2
tp6
cnumpy
dtype
p7
(S'f8'
p8
I0
I1
tp9
Rp10
(I3
S'<'
p11
NNNI-1
I-1
I0
tp12
bI00
S'\xea\xa4@;\x89H\x05@\xbfg\x9f\x9f\x10\x9b\xe0?'
p13
tp14
b(lp15
(lp16
cnumpy.core.multiarray
scalar
p17
(g10
S'\xb0\xd4c\x8dT\xbe"\xc0'
p18
tp19
Rp20
ag17
(g10
S"$'\x04+\x99b-@"
p21
tp22
Rp23
aa(lp24
g17
(g10
S'\x92\xe8\xa3D\x81\x9a\xe0?'
p25
tp26
Rp27
ag17
(g10
S'\xec\xe6\x9a\xfa\x9f\x9b\xe0?'
p28
tp29
Rp30
aatp31
.