(cnumpy.core.multiarray
_reconstruct
p0
(cnumpy
ndarray
p1
(I0
tp2
S'b'
p3
tp4
Rp5
(I1
(I2
tp6
cnumpy
dtype
p7
(S'f8'
p8
I0
I1
tp9
Rp10
(I3
S'<'
p11
NNNI-1
I-1
I0
tp12
bI00
S"Q\xc2\xb0Y=\xa8\x1f@W\xa4'\x1f\x7f\x88\xe0?"
p13
tp14
b(lp15
(lp16
cnumpy.core.multiarray
scalar
p17
(g10
S'\xd2\xb4)\xfam\x89y\xc0'
p18
tp19
Rp20
ag17
(g10
S'\xe4:\xf7\xe4\xaf\x86z@'
p21
tp22
Rp23
aa(lp24
g17
(g10
S'm\xcdR\x14\xee\x87\xe0?'
p25
tp26
Rp27
ag17
(g10
S'A{\xfc)\x10\x89\xe0?'
p28
tp29
Rp30
aatp31
.