(cnumpy.core.multiarray
_reconstruct
p0
(cnumpy
ndarray
p1
(I0
tp2
S'b'
p3
tp4
Rp5
(I1
(I2
tp6
cnumpy
dtype
p7
(S'f8'
p8
I0
I1
tp9
Rp10
(I3
S'<'
p11
NNNI-1
I-1
I0
tp12
bI00
S'lNo\xba\x86w\xff?\xddp\xc8\xe5\x1f\x8b\xe0?'
p13
tp14
b(lp15
(lp16
cnumpy.core.multiarray
scalar
p17
(g10
S'\x042\xad\x10l0\r\xc0'
p18
tp19
Rp20
ag17
(g10
S'8@\x8ee\xf9S\x1e@'
p21
tp22
Rp23
aa(lp24
g17
(g10
S':\xf5\xcf\xb3\x8e\x8a\xe0?'
p25
tp26
Rp27
ag17
(g10
S'\x80\xec\xc0\x17\xb1\x8b\xe0?'
p28
tp29
Rp30
aatp31
.