(cnumpy.core.multiarray
_reconstruct
p0
(cnumpy
ndarray
p1
(I0
tp2
S'b'
p3
tp4
Rp5
(I1
(I2
tp6
cnumpy
dtype
p7
(S'f8'
p8
I0
I1
tp9
Rp10
(I3
S'<'
p11
NNNI-1
I-1
I0
tp12
bI00
S'\xc7{s>@\x98\xd6?\xc1W\x15\xd1s\x89\xe0?'
p13
tp14
b(lp15
(lp16
cnumpy.core.multiarray
scalar
p17
(g10
S'`\x99\x1a9j\xb3\xb8?'
p18
tp19
Rp20
ag17
(g10
S'\x9b(P\xf7\xd2\x81\xe3?'
p21
tp22
Rp23
aa(lp24
g17
(g10
S'F\xe7\xda\x91\xe2\x88\xe0?'
p25
tp26
Rp27
ag17
(g10
S'<\xc8O\x10\x05\x8a\xe0?'
p28
tp29
Rp30
aatp31
.