(cnumpy.core.multiarray
_reconstruct
p0
(cnumpy
ndarray
p1
(I0
tp2
S'b'
p3
tp4
Rp5
(I1
(I2
tp6
cnumpy
dtype
p7
(S'f8'
p8
I0
I1
tp9
Rp10
(I3
S'<'
p11
NNNI-1
I-1
I0
tp12
bI00
S'8\xc6\xf45\x83\n)@@\x8ex\xb2\xdc\xa3\xe0?'
p13
tp14
b(lp15
(lp16
cnumpy.core.multiarray
scalar
p17
(g10
S'8\xc6\xf45\x83\n)@'
p18
tp19
Rp20
ag17
(g10
S'8\xc6\xf45\x83\n)@'
p21
tp22
Rp23
aa(lp24
g17
(g10
S'\xf2\x9c\x84+J\xa3\xe0?'
p25
tp26
Rp27
ag17
(g10
S'\x8e\x7fl9o\xa4\xe0?'
p28
tp29
Rp30
aatp31
.