(cnumpy.core.multiarray
_reconstruct
p0
(cnumpy
ndarray
p1
(I0
tp2
S'b'
p3
tp4
Rp5
(I1
(I2
tp6
cnumpy
dtype
p7
(S'f8'
p8
I0
I1
tp9
Rp10
(I3
S'<'
p11
NNNI-1
I-1
I0
tp12
bI00
S'v\xbe\x1f\x9d\x89e\x1e@\xdb\xdcae\x9f\xa0\xe0?'
p13
tp14
b(lp15
(lp16
cnumpy.core.multiarray
scalar
p17
(g10
S'S\x1b\xb8\x19\xb7\x8ev\xc0'
p18
tp19
Rp20
ag17
(g10
S'G\x19\xa1f\xe3\x81w@'
p21
tp22
Rp23
aa(lp24
g17
(g10
S'g\xa8AD\x07\xa0\xe0?'
p25
tp26
Rp27
ag17
(g10
S'O\x11\x82\x867\xa1\xe0?'
p28
tp29
Rp30
aatp31
.