(cnumpy.core.multiarray
_reconstruct
p0
(cnumpy
ndarray
p1
(I0
tp2
S'b'
p3
tp4
Rp5
(I1
(I2
tp6
cnumpy
dtype
p7
(S'f8'
p8
I0
I1
tp9
Rp10
(I3
S'<'
p11
NNNI-1
I-1
I0
tp12
bI00
S'\x97\x8fS0\xa4\x1b\xff?8F\x0b\rK\xa8\xe0?'
p13
tp14
b(lp15
(lp16
cnumpy.core.multiarray
scalar
p17
(g10
S'\xa28X\x06\xf4\xa4\x0c\xc0'
p18
tp19
Rp20
ag17
(g10
S'\x1d\xe4U\x1bL\xe0\x1d@'
p21
tp22
Rp23
aa(lp24
g17
(g10
S'\x8d\x1715\xb8\xa7\xe0?'
p25
tp26
Rp27
ag17
(g10
S'\xe3t\xe5\xe4\xdd\xa8\xe0?'
p28
tp29
Rp30
aatp31
.