(cnumpy.core.multiarray
_reconstruct
p0
(cnumpy
ndarray
p1
(I0
tp2
S'b'
p3
tp4
Rp5
(I1
(I2
tp6
cnumpy
dtype
p7
(S'f8'
p8
I0
I1
tp9
Rp10
(I3
S'<'
p11
NNNI-1
I-1
I0
tp12
bI00
S'\xaa\xe7B\xb0\x17\x91\x18@\xd4\x0f\xda-y\x92\xe0?'
p13
tp14
b(lp15
(lp16
cnumpy.core.multiarray
scalar
p17
(g10
S'\xa7#\xff\xed\xb2Zb\xc0'
p18
tp19
Rp20
ag17
(g10
S'!R\x03i\xc4\xe3c@'
p21
tp22
Rp23
aa(lp24
g17
(g10
S'\x8b\x85\xed\x17\xe8\x91\xe0?'
p25
tp26
Rp27
ag17
(g10
S'\x1d\x9a\xc6C\n\x93\xe0?'
p28
tp29
Rp30
aatp31
.