(cnumpy.core.multiarray
_reconstruct
p0
(cnumpy
ndarray
p1
(I0
tp2
S'b'
p3
tp4
Rp5
(I1
(I2
tp6
cnumpy
dtype
p7
(S'f8'
p8
I0
I1
tp9
Rp10
(I3
S'<'
p11
NNNI-1
I-1
I0
tp12
bI00
S'\xf5\x90\xfb\x01\x82\xd8\xa1?C[\x1el\xf1\x82\xe0?'
p13
tp14
b(lp15
(lp16
cnumpy.core.multiarray
scalar
p17
(g10
S'>[\x9a\x90\x8d\xf3\x9a?'
p18
tp19
Rp20
ag17
(g10
S'K\xf4\xa9;=7\xa6?'
p21
tp22
Rp23
aa(lp24
g17
(g10
S"'\xfa|\xe7c\x82\xe0?"
p25
tp26
Rp27
ag17
(g10
S'_\xbc\xbf\xf0~\x83\xe0?'
p28
tp29
Rp30
aatp31
.