(cnumpy.core.multiarray
_reconstruct
p0
(cnumpy
ndarray
p1
(I0
tp2
S'b'
p3
tp4
Rp5
(I1
(I2
tp6
cnumpy
dtype
p7
(S'f8'
p8
I0
I1
tp9
Rp10
(I3
S'<'
p11
NNNI-1
I-1
I0
tp12
bI00
S'\xea\xd5\xfdD\xf3*\x14@a\x82\x9bK\xb1\xa9\xe0?'
p13
tp14
b(lp15
(lp16
cnumpy.core.multiarray
scalar
p17
(g10
S';+\xce1\xcf\xb0R\xc0'
p18
tp19
Rp20
ag17
(g10
S'\xf9\xe5m\x9a-6U@'
p21
tp22
Rp23
aa(lp24
g17
(g10
S'\xb2\xf9\xbc\xe0\x1d\xa9\xe0?'
p25
tp26
Rp27
ag17
(g10
S'\x10\x0bz\xb6D\xaa\xe0?'
p28
tp29
Rp30
aatp31
.