(cnumpy.core.multiarray
_reconstruct
p0
(cnumpy
ndarray
p1
(I0
tp2
S'b'
p3
tp4
Rp5
(I1
(I2
tp6
cnumpy
dtype
p7
(S'f8'
p8
I0
I1
tp9
Rp10
(I3
S'<'
p11
NNNI-1
I-1
I0
tp12
bI00
S'\xedCn6\xb6\xab\xff?\\R\x91B_\x8d\xe0?'
p13
tp14
b(lp15
(lp16
cnumpy.core.multiarray
scalar
p17
(g10
S'\xa4\x904\xbd\xf8\x1d\x0f\xc0'
p18
tp19
Rp20
ag17
(g10
S'Hj\xd1y\xd7d\x1f@'
p21
tp22
Rp23
aa(lp24
g17
(g10
S'\x9b\xc1\x8f\xf8\xc9\x8c\xe0?'
p25
tp26
Rp27
ag17
(g10
S'\x1d\xe3\x92\x8c\xf4\x8d\xe0?'
p28
tp29
Rp30
aatp31
.