(cnumpy.core.multiarray
_reconstruct
p0
(cnumpy
ndarray
p1
(I0
tp2
S'b'
p3
tp4
Rp5
(I1
(I2
tp6
cnumpy
dtype
p7
(S'f8'
p8
I0
I1
tp9
Rp10
(I3
S'<'
p11
NNNI-1
I-1
I0
tp12
bI00
S'v\xcd\xe9\x80d\xfd\x04@\xaa\xf6o\x8ea\x96\xe0?'
p13
tp14
b(lp15
(lp16
cnumpy.core.multiarray
scalar
p17
(g10
S'\x98\xc1csY1"\xc0'
p18
tp19
Rp20
ag17
(g10
S'T\xa8\xd8\xb3\x0b\xb0,@'
p21
tp22
Rp23
aa(lp24
g17
(g10
S'W\xc9\xa1L\xd0\x95\xe0?'
p25
tp26
Rp27
ag17
(g10
S'\xfd#>\xd0\xf2\x96\xe0?'
p28
tp29
Rp30
aatp31
.