(cnumpy.core.multiarray
_reconstruct
p0
(cnumpy
ndarray
p1
(I0
tp2
S'b'
p3
tp4
Rp5
(I1
(I2
tp6
cnumpy
dtype
p7
(S'f8'
p8
I0
I1
tp9
Rp10
(I3
S'<'
p11
NNNI-1
I-1
I0
tp12
bI00
S"\x17]\xb5\x8c\x8d\x01\xf7?^\x184v'\x8f\xe0?"
p13
tp14
b(lp15
(lp16
cnumpy.core.multiarray
scalar
p17
(g10
S'\xbfQ\x12\xcb\n\xc1\xf8\xbf'
p18
tp19
Rp20
ag17
(g10
S'\xfbB\x1fy\t\xb1\x11@'
p21
tp22
Rp23
aa(lp24
g17
(g10
S'\x96\xf7\xc9\x1e\x90\x8e\xe0?'
p25
tp26
Rp27
ag17
(g10
S'&9\x9e\xcd\xbe\x8f\xe0?'
p28
tp29
Rp30
aatp31
.