(cnumpy.core.multiarray
_reconstruct
p0
(cnumpy
ndarray
p1
(I0
tp2
S'b'
p3
tp4
Rp5
(I1
(I2
tp6
cnumpy
dtype
p7
(S'f8'
p8
I0
I1
tp9
Rp10
(I3
S'<'
p11
NNNI-1
I-1
I0
tp12
bI00
S"4\t\xf6\xfc\xca'\x0b@\xdd\x0b\xc0\xe0v\x9e\xe0?"
p13
tp14
b(lp15
(lp16
cnumpy.core.multiarray
scalar
p17
(g10
S'J"\x07g[\x064\xc0'
p18
tp19
Rp20
ag17
(g10
S'\x96\xa4D&N\xd0:@'
p21
tp22
Rp23
aa(lp24
g17
(g10
S'\xf9\xe4j\xcc\xe7\x9d\xe0?'
p25
tp26
Rp27
ag17
(g10
S'\xc12\x15\xf5\x05\x9f\xe0?'
p28
tp29
Rp30
aatp31
.