(cnumpy.core.multiarray
_reconstruct
p0
(cnumpy
ndarray
p1
(I0
tp2
S'b'
p3
tp4
Rp5
(I1
(I2
tp6
cnumpy
dtype
p7
(S'f8'
p8
I0
I1
tp9
Rp10
(I3
S'<'
p11
NNNI-1
I-1
I0
tp12
bI00
S'\xea\xbe9\x04\xf9%\xfb?b\xfcW\x87\xca\x9c\xe0?'
p13
tp14
b(lp15
(lp16
cnumpy.core.multiarray
scalar
p17
(g10
S'\xad\x01m\xf3!Y\x02\xc0'
p18
tp19
Rp20
ag17
(g10
S'L`\xd3{\x8d\xbf\x16@'
p21
tp22
Rp23
aa(lp24
g17
(g10
S'\xc3\xb8\xaa\x8c6\x9c\xe0?'
p25
tp26
Rp27
ag17
(g10
S'\x01@\x05\x82^\x9d\xe0?'
p28
tp29
Rp30
aatp31
.