(cnumpy.core.multiarray
_reconstruct
p0
(cnumpy
ndarray
p1
(I0
tp2
S'b'
p3
tp4
Rp5
(I1
(I2
tp6
cnumpy
dtype
p7
(S'f8'
p8
I0
I1
tp9
Rp10
(I3
S'<'
p11
NNNI-1
I-1
I0
tp12
bI00
S'\xb1\xc80,O/\x1f@\xbc!\x15,\x82\xa4\xe0?'
p13
tp14
b(lp15
(lp16
cnumpy.core.multiarray
scalar
p17
(g10
S'\x1e\x14\xdd\xf4q\x99w\xc0'
p18
tp19
Rp20
ag17
(g10
S'd\x9a>n\xec\x92x@'
p21
tp22
Rp23
aa(lp24
g17
(g10
S'\x16\xa3\x15\xd0\xf3\xa3\xe0?'
p25
tp26
Rp27
ag17
(g10
S'b\xa0\x14\x88\x10\xa5\xe0?'
p28
tp29
Rp30
aatp31
.