(cnumpy.core.multiarray
_reconstruct
p0
(cnumpy
ndarray
p1
(I0
tp2
S'b'
p3
tp4
Rp5
(I1
(I2
tp6
cnumpy
dtype
p7
(S'f8'
p8
I0
I1
tp9
Rp10
(I3
S'<'
p11
NNNI-1
I-1
I0
tp12
bI00
S'!Ck\x0e\xe8\xfe\x9a?g\xe0\xbf_\xd2\x8e\xe0?'
p13
tp14
b(lp15
(lp16
cnumpy.core.multiarray
scalar
p17
(g10
S'\x17\\vE\xdd\xad\x93?'
p18
tp19
Rp20
ag17
(g10
S"\x15\x15\xb0k\xf9'\xa1?"
p21
tp22
Rp23
aa(lp24
g17
(g10
S'6\xfe\x8d}A\x8e\xe0?'
p25
tp26
Rp27
ag17
(g10
S'\x98\xc2\xf1Ac\x8f\xe0?'
p28
tp29
Rp30
aatp31
.