(cnumpy.core.multiarray
_reconstruct
p0
(cnumpy
ndarray
p1
(I0
tp2
S'b'
p3
tp4
Rp5
(I1
(I2
tp6
cnumpy
dtype
p7
(S'f8'
p8
I0
I1
tp9
Rp10
(I3
S'<'
p11
NNNI-1
I-1
I0
tp12
bI00
S'\xd3\x88\xbf\xdc\xaa\x8c\xa1?\xc7}7\xd8!\x8f\xe0?'
p13
tp14
b(lp15
(lp16
cnumpy.core.multiarray
scalar
p17
(g10
S':c\x8f\x8c\xfc\xd9\x99?'
p18
tp19
Rp20
ag17
(g10
S'\t`7sW,\xa6?'
p21
tp22
Rp23
aa(lp24
g17
(g10
S'Jc>\x95\x8a\x8e\xe0?'
p25
tp26
Rp27
ag17
(g10
S'D\x980\x1b\xb9\x8f\xe0?'
p28
tp29
Rp30
aatp31
.