(cnumpy.core.multiarray
_reconstruct
p0
(cnumpy
ndarray
p1
(I0
tp2
S'b'
p3
tp4
Rp5
(I1
(I2
tp6
cnumpy
dtype
p7
(S'f8'
p8
I0
I1
tp9
Rp10
(I3
S'<'
p11
NNNI-1
I-1
I0
tp12
bI00
S'\xc0\xaca\xb8v\xfd\xd4?\xebC\x08\xf0\xde\xa6\xe0?'
p13
tp14
b(lp15
(lp16
cnumpy.core.multiarray
scalar
p17
(g10
S'+\x97\x860q\xa2\xc4?'
p18
tp19
Rp20
ag17
(g10
S'\xea\r\x80\xd8\xb4\xa9\xdf?'
p21
tp22
Rp23
aa(lp24
g17
(g10
S't2(tL\xa6\xe0?'
p25
tp26
Rp27
ag17
(g10
S'bU\xe8kq\xa7\xe0?'
p28
tp29
Rp30
aatp31
.