(cnumpy.core.multiarray
_reconstruct
p0
(cnumpy
ndarray
p1
(I0
tp2
S'b'
p3
tp4
Rp5
(I1
(I2
tp6
cnumpy
dtype
p7
(S'f8'
p8
I0
I1
tp9
Rp10
(I3
S'<'
p11
NNNI-1
I-1
I0
tp12
bI00
S'\x15\xb8[oZ\xcb\x15@a\x1ckiQ\x9b\xe0?'
p13
tp14
b(lp15
(lp16
cnumpy.core.multiarray
scalar
p17
(g10
S'\xaf.[0Z\xd4P\xc0'
p18
tp19
Rp20
ag17
(g10
S'\xb1\xa5F~\xc5\x8dS@'
p21
tp22
Rp23
aa(lp24
g17
(g10
S'Q32\x01\xe9\x9a\xe0?'
p25
tp26
Rp27
ag17
(g10
S'q\x05\xa4\xd1\xb9\x9b\xe0?'
p28
tp29
Rp30
aatp31
.