(cnumpy.core.multiarray
_reconstruct
p0
(cnumpy
ndarray
p1
(I0
tp2
S'b'
p3
tp4
Rp5
(I1
(I2
tp6
cnumpy
dtype
p7
(S'f8'
p8
I0
I1
tp9
Rp10
(I3
S'<'
p11
NNNI-1
I-1
I0
tp12
bI00
S'Y\x03\xab{\xf3\xb2\xe0?\xef\xc3\xa2}>\xb2\xe0?'
p13
tp14
b(lp15
(lp16
cnumpy.core.multiarray
scalar
p17
(g10
S'\xb0\xa1\xb0.=0\xc4?'
p18
tp19
Rp20
ag17
(g10
S'F\xde\xa9\xab\xd7Y\xec?'
p21
tp22
Rp23
aa(lp24
g17
(g10
S'\xb2^A\xc9\xaf\xb1\xe0?'
p25
tp26
Rp27
ag17
(g10
S',)\x042\xcd\xb2\xe0?'
p28
tp29
Rp30
aatp31
.