(cnumpy.core.multiarray
_reconstruct
p0
(cnumpy
ndarray
p1
(I0
tp2
S'b'
p3
tp4
Rp5
(I1
(I2
tp6
cnumpy
dtype
p7
(S'f8'
p8
I0
I1
tp9
Rp10
(I3
S'<'
p11
NNNI-1
I-1
I0
tp12
bI00
S"\xe8\x85`\xea\x13\xf3\xf4?'C&\xa5h\xc2\xe0?"
p13
tp14
b(lp15
(lp16
cnumpy.core.multiarray
scalar
p17
(g10
S'\x08\xecJv\x19P\xee\xbf'
p18
tp19
Rp20
ag17
(g10
S'\xea@\xf3G\x1a\x87\x0c@'
p21
tp22
Rp23
aa(lp24
g17
(g10
S'\x98\xac2Q\xd2\xc1\xe0?'
p25
tp26
Rp27
ag17
(g10
S'\xb6\xd9\x19\xf9\xfe\xc2\xe0?'
p28
tp29
Rp30
aatp31
.