(cnumpy.core.multiarray
_reconstruct
p0
(cnumpy
ndarray
p1
(I0
tp2
S'b'
p3
tp4
Rp5
(I1
(I2
tp6
cnumpy
dtype
p7
(S'f8'
p8
I0
I1
tp9
Rp10
(I3
S'<'
p11
NNNI-1
I-1
I0
tp12
bI00
S'\xddwAoQa\xa4?\xebH\x06E\xf9\x94\xe0?'
p13
tp14
b(lp15
(lp16
cnumpy.core.multiarray
scalar
p17
(g10
S"'u\x9e6\x10\x88\x9e?"
p18
tp19
Rp20
ag17
(g10
S'&\xb53\xc3\x9a~\xa9?'
p21
tp22
Rp23
aa(lp24
g17
(g10
S'\x83\x00E\x82e\x94\xe0?'
p25
tp26
Rp27
ag17
(g10
S'S\x91\xc7\x07\x8d\x95\xe0?'
p28
tp29
Rp30
aatp31
.