(cnumpy.core.multiarray
_reconstruct
p0
(cnumpy
ndarray
p1
(I0
tp2
S'b'
p3
tp4
Rp5
(I1
(I2
tp6
cnumpy
dtype
p7
(S'f8'
p8
I0
I1
tp9
Rp10
(I3
S'<'
p11
NNNI-1
I-1
I0
tp12
bI00
S'*\xa4\xdd\xab\xd0\x8b\xf0?\xb6\xab\x1d\x9f\x03\x8c\xe0?'
p13
tp14
b(lp15
(lp16
cnumpy.core.multiarray
scalar
p17
(g10
S'@\x9a:\xc9I,\xd1\xbf'
p18
tp19
Rp20
ag17
(g10
S'r\xf7\x04\xe5Y\xb1\x02@'
p21
tp22
Rp23
aa(lp24
g17
(g10
S'|\x06\xeeTp\x8b\xe0?'
p25
tp26
Rp27
ag17
(g10
S'\xf0PM\xe9\x96\x8c\xe0?'
p28
tp29
Rp30
aatp31
.