(cnumpy.core.multiarray
_reconstruct
p0
(cnumpy
ndarray
p1
(I0
tp2
S'b'
p3
tp4
Rp5
(I1
(I2
tp6
cnumpy
dtype
p7
(S'f8'
p8
I0
I1
tp9
Rp10
(I3
S'<'
p11
NNNI-1
I-1
I0
tp12
bI00
S'\x84e\xdf\x1cz6&@\xa8mA\xdb\xb2\x86\xe0?'
p13
tp14
b(lp15
(lp16
cnumpy.core.multiarray
scalar
p17
(g10
S'BN\x08\xe2\x8f\xd2\xaa\xc0'
p18
tp19
Rp20
ag17
(g10
S'\x0e\rB\xd6\xfc\xfe\xaa@'
p21
tp22
Rp23
aa(lp24
g17
(g10
S'%fm\x0c#\x86\xe0?'
p25
tp26
Rp27
ag17
(g10
S'+u\x15\xaaB\x87\xe0?'
p28
tp29
Rp30
aatp31
.