(cnumpy.core.multiarray
_reconstruct
p0
(cnumpy
ndarray
p1
(I0
tp2
S'b'
p3
tp4
Rp5
(I1
(I2
tp6
cnumpy
dtype
p7
(S'f8'
p8
I0
I1
tp9
Rp10
(I3
S'<'
p11
NNNI-1
I-1
I0
tp12
bI00
S'\x14\xb9V\xc7G\xf7\x1c@\x81\x97\x06l\xb7\x8c\xe0?'
p13
tp14
b(lp15
(lp16
cnumpy.core.multiarray
scalar
p17
(g10
S'\x1d\x97\x069+1q\xc0'
p18
tp19
Rp20
ag17
(g10
S'\xe5LAw\xe5\x18r@'
p21
tp22
Rp23
aa(lp24
g17
(g10
S'\xb4\xd0\x9fW(\x8c\xe0?'
p25
tp26
Rp27
ag17
(g10
S'N^m\x80F\x8d\xe0?'
p28
tp29
Rp30
aatp31
.