(cnumpy.core.multiarray
_reconstruct
p0
(cnumpy
ndarray
p1
(I0
tp2
S'b'
p3
tp4
Rp5
(I1
(I2
tp6
cnumpy
dtype
p7
(S'f8'
p8
I0
I1
tp9
Rp10
(I3
S'<'
p11
NNNI-1
I-1
I0
tp12
bI00
S'\xd74\xa2\xe7D\xf1+@+\xf5\x85\xad\x96\x89\xe0?'
p13
tp14
b(lp15
(lp16
cnumpy.core.multiarray
scalar
p17
(g10
S'\xd74\xa2\xe7D\xf1+@'
p18
tp19
Rp20
ag17
(g10
S'\xd74\xa2\xe7D\xf1+@'
p21
tp22
Rp23
aa(lp24
g17
(g10
S'\xaa\xa1\xc0\x15\x02\x89\xe0?'
p25
tp26
Rp27
ag17
(g10
S'\xacHKE+\x8a\xe0?'
p28
tp29
Rp30
aatp31
.