(cnumpy.core.multiarray
_reconstruct
p0
(cnumpy
ndarray
p1
(I0
tp2
S'b'
p3
tp4
Rp5
(I1
(I2
tp6
cnumpy
dtype
p7
(S'f8'
p8
I0
I1
tp9
Rp10
(I3
S'<'
p11
NNNI-1
I-1
I0
tp12
bI00
S'm\xf4\x85nY\xa5\xa2?7\xaf\x8b\xd3\x93\x9f\xe0?'
p13
tp14
b(lp15
(lp16
cnumpy.core.multiarray
scalar
p17
(g10
S'Pv\xcb\xd8\xe3\xaa\x9b?'
p18
tp19
Rp20
ag17
(g10
S'\xb2-\xa6\xf0@u\xa7?'
p21
tp22
Rp23
aa(lp24
g17
(g10
S':\xa52{\xfe\x9e\xe0?'
p25
tp26
Rp27
ag17
(g10
S'4\xb9\xe4+)\xa0\xe0?'
p28
tp29
Rp30
aatp31
.