(cnumpy.core.multiarray
_reconstruct
p0
(cnumpy
ndarray
p1
(I0
tp2
S'b'
p3
tp4
Rp5
(I1
(I2
tp6
cnumpy
dtype
p7
(S'f8'
p8
I0
I1
tp9
Rp10
(I3
S'<'
p11
NNNI-1
I-1
I0
tp12
bI00
S'\xaf\x1dsY\xc9>\xe6?\x81\x08(!\x1f\x8a\xe0?'
p13
tp14
b(lp15
(lp16
cnumpy.core.multiarray
scalar
p17
(g10
S'\xf0\xa8M\x02`6\xba?'
p18
tp19
Rp20
ag17
(g10
S' CNYc\x9b\xf4?'
p21
tp22
Rp23
aa(lp24
g17
(g10
S'4\xb9\x03\xcb\x8c\x89\xe0?'
p25
tp26
Rp27
ag17
(g10
S'\xceWLw\xb1\x8a\xe0?'
p28
tp29
Rp30
aatp31
.