(cnumpy.core.multiarray
_reconstruct
p0
(cnumpy
ndarray
p1
(I0
tp2
S'b'
p3
tp4
Rp5
(I1
(I4
tp6
cnumpy
dtype
p7
(S'f8'
p8
I0
I1
tp9
Rp10
(I3
S'<'
p11
NNNI-1
I-1
I0
tp12
bI00
S'Y4i\x06\xf1\xcef@\x9b\xf8z\xf7V\xe4U?\x13\x0b*\xf3)r8@P\xbb5c\x15\xd8\xe0?'
p13
tp14
b(lp15
(lp16
cnumpy.core.multiarray
scalar
p17
(g10
S'\xd6\xd0\xf6kZUb@'
p18
tp19
Rp20
ag17
(g10
S'\xdc\x97\xdb\xa0\x87Hk@'
p21
tp22
Rp23
aa(lp24
g17
(g10
S'\x14\x1e\x9cx\xe3\x0e7\xbf'
p25
tp26
Rp27
ag17
(g10
S'^|\x8ef3\xc6h?'
p28
tp29
Rp30
aa(lp31
g17
(g10
S'\x13\x0b*\xf3)r8@'
p32
tp33
Rp34
ag17
(g10
S'\x13\x0b*\xf3)r8@'
p35
tp36
Rp37
aa(lp38
g17
(g10
S'.J|*8\xd1\xe0?'
p39
tp40
Rp41
ag17
(g10
S'r,\xef\x9b\xf2\xde\xe0?'
p42
tp43
Rp44
aatp45
.