(cnumpy.core.multiarray
_reconstruct
p0
(cnumpy
ndarray
p1
(I0
tp2
S'b'
p3
tp4
Rp5
(I1
(I4
tp6
cnumpy
dtype
p7
(S'f8'
p8
I0
I1
tp9
Rp10
(I3
S'<'
p11
NNNI-1
I-1
I0
tp12
bI00
S'K\xac\x020\xebfg@\tu\xac\x0f_\x84/?\xf9o\xc2g\xd9\x12\x11@\x96\xc3P\x054\xc1\xe0?'
p13
tp14
b(lp15
(lp16
cnumpy.core.multiarray
scalar
p17
(g10
S'*\xad\x96(;\xa4b@'
p18
tp19
Rp20
ag17
(g10
S'l\xabn7\x9b)l@'
p21
tp22
Rp23
aa(lp24
g17
(g10
S'^\x13\xf5\xd8p\x1eE\xbf'
p25
tp26
Rp27
ag17
(g10
S'\xf1\xa6e0PpR?'
p28
tp29
Rp30
aa(lp31
g17
(g10
S'g&\xe5 <wk\xc0'
p32
tp33
Rp34
ag17
(g10
S'gMa\xb7i\x88l@'
p35
tp36
Rp37
aa(lp38
g17
(g10
S'k\xa5\xc1\xf8\xe9\xa3\xe0?'
p39
tp40
Rp41
ag17
(g10
S'\xc1\xe1\xdf\x11~\xde\xe0?'
p42
tp43
Rp44
aatp45
.