(cnumpy.core.multiarray
_reconstruct
p0
(cnumpy
ndarray
p1
(I0
tp2
S'b'
p3
tp4
Rp5
(I1
(I4
tp6
cnumpy
dtype
p7
(S'f8'
p8
I0
I1
tp9
Rp10
(I3
S'<'
p11
NNNI-1
I-1
I0
tp12
bI00
S'\x97\x96\xab\xce\x19\ra@x\t\xaeg\xad\xdbv?\na\xd6x\xf6\x02\x04@x\xd1\xb7\xf4Z\xeb\xe0?'
p13
tp14
b(lp15
(lp16
cnumpy.core.multiarray
scalar
p17
(g10
S'D\xba3\x1av%Y@'
p18
tp19
Rp20
ag17
(g10
S'\x0cP=\x90x\x87e@'
p21
tp22
Rp23
aa(lp24
g17
(g10
S'\x00 \x9e\xc3~\xcdH?'
p25
tp26
Rp27
ag17
(g10
S"x't{\xd5N\x85?"
p28
tp29
Rp30
aa(lp31
g17
(g10
S'\xe52\x81B\x1d\xc3@\xc0'
p32
tp33
Rp34
ag17
(g10
S'\x07\xff\x9b\x11|CC@'
p35
tp36
Rp37
aa(lp38
g17
(g10
S';D.p\xd2\xe7\xe0?'
p39
tp40
Rp41
ag17
(g10
S'\xb5^Ay\xe3\xee\xe0?'
p42
tp43
Rp44
aatp45
.