(cnumpy.core.multiarray
_reconstruct
p0
(cnumpy
ndarray
p1
(I0
tp2
S'b'
p3
tp4
Rp5
(I1
(I4
tp6
cnumpy
dtype
p7
(S'f8'
p8
I0
I1
tp9
Rp10
(I3
S'<'
p11
NNNI-1
I-1
I0
tp12
bI00
S'k7By1Cc@\xb8E\x00\x88i\x83s?\xc9ph\xd7Y[<@`S\x8b|\xe4\xd1\xe0?'
p13
tp14
b(lp15
(lp16
cnumpy.core.multiarray
scalar
p17
(g10
S'\xde\x9a\x00 \x87!]@'
p18
tp19
Rp20
ag17
(g10
S'g!\x84b\x9f\xf5g@'
p21
tp22
Rp23
aa(lp24
g17
(g10
S'\xf8\xec\xad\x82\xa9UF?'
p25
tp26
Rp27
ag17
(g10
S'\xe8f\xd5\xef\x0e\x1e\x82?'
p28
tp29
Rp30
aa(lp31
g17
(g10
S'\xc9ph\xd7Y[<@'
p32
tp33
Rp34
ag17
(g10
S'\xc9ph\xd7Y[<@'
p35
tp36
Rp37
aa(lp38
g17
(g10
S'\xe4\t\xc9\xec\x86\xce\xe0?'
p39
tp40
Rp41
ag17
(g10
S'\xdc\x9cM\x0cB\xd5\xe0?'
p42
tp43
Rp44
aatp45
.