(cnumpy.core.multiarray
_reconstruct
p0
(cnumpy
ndarray
p1
(I0
tp2
S'b'
p3
tp4
Rp5
(I1
(I4
tp6
cnumpy
dtype
p7
(S'f8'
p8
I0
I1
tp9
Rp10
(I3
S'<'
p11
NNNI-1
I-1
I0
tp12
bI00
S'\xcdP\x03vB\xf0f@\xf6\x05\x82@1\x84P?H\xf3_\tZ\x0f1@\xcc\xa2\xb5\xc1@\xa7\xe0?'
p13
tp14
b(lp15
(lp16
cnumpy.core.multiarray
scalar
p17
(g10
S'_%\x08\x1e\xefQb@'
p18
tp19
Rp20
ag17
(g10
S';|\xfe\xcd\x95\x8ek@'
p21
tp22
Rp23
aa(lp24
g17
(g10
S'\xc2\xa3KB@\xfa@\xbf'
p25
tp26
Rp27
ag17
(g10
S'\xe6\xee\x14Q\xc1\xc2d?'
p28
tp29
Rp30
aa(lp31
g17
(g10
S'H\xf3_\tZ\x0f1@'
p32
tp33
Rp34
ag17
(g10
S'H\xf3_\tZ\x0f1@'
p35
tp36
Rp37
aa(lp38
g17
(g10
S')1\xfc.9\x9e\xe0?'
p39
tp40
Rp41
ag17
(g10
S'o\x14oTH\xb0\xe0?'
p42
tp43
Rp44
aatp45
.