(cnumpy.core.multiarray
_reconstruct
p0
(cnumpy
ndarray
p1
(I0
tp2
S'b'
p3
tp4
Rp5
(I1
(I4
tp6
cnumpy
dtype
p7
(S'f8'
p8
I0
I1
tp9
Rp10
(I3
S'<'
p11
NNNI-1
I-1
I0
tp12
bI00
S'D\xee\xf6\xddw\xb7g@\r<\xf7\xc8y2R?\xd3\rVu\xe8N\xc0?*\r8\xda\xb1\xfb\xe0?'
p13
tp14
b(lp15
(lp16
cnumpy.core.multiarray
scalar
p17
(g10
S'\x87\x1f#\\"\x11e@'
p18
tp19
Rp20
ag17
(g10
S'\x01\xbd\xca_\xcd]j@'
p21
tp22
Rp23
aa(lp24
g17
(g10
S'\x15Tqc\x1c\xbfQ?'
p25
tp26
Rp27
ag17
(g10
S'\x05$}.\xd7\xa5R?'
p28
tp29
Rp30
aa(lp31
g17
(g10
S'\x90sOX\x17\xd1\xae\xbf'
p32
tp33
Rp34
ag17
(g10
S'E\xfc_`\x0b)\xd4?'
p35
tp36
Rp37
aa(lp38
g17
(g10
S'\xfe\r_\xd1b\xf9\xe0?'
p39
tp40
Rp41
ag17
(g10
S'V\x0c\x11\xe3\x00\xfe\xe0?'
p42
tp43
Rp44
aatp45
.