(cnumpy.core.multiarray
_reconstruct
p0
(cnumpy
ndarray
p1
(I0
tp2
S'b'
p3
tp4
Rp5
(I1
(I4
tp6
cnumpy
dtype
p7
(S'f8'
p8
I0
I1
tp9
Rp10
(I3
S'<'
p11
NNNI-1
I-1
I0
tp12
bI00
S'.2\xc9\x89/va@&\xf6%;\x7fbf?\xaa\x9a#6l\x0fE@\x10\xc2c\x0b\xf1\xcf\xe0?'
p13
tp14
b(lp15
(lp16
cnumpy.core.multiarray
scalar
p17
(g10
S'\x18F\xdd=z&\\@'
p18
tp19
Rp20
ag17
(g10
S'P\xc1\xa3\xf4!\xd9d@'
p21
tp22
Rp23
aa(lp24
g17
(g10
S'\x10\xd3[?O[7?'
p25
tp26
Rp27
ag17
(g10
S'\xf580G\xca\xect?'
p28
tp29
Rp30
aa(lp31
g17
(g10
S'\xaa\x9a#6l\x0fE@'
p32
tp33
Rp34
ag17
(g10
S'\xaa\x9a#6l\x0fE@'
p35
tp36
Rp37
aa(lp38
g17
(g10
S'\x00zn8*\xcb\xe0?'
p39
tp40
Rp41
ag17
(g10
S' \nY\xde\xb7\xd4\xe0?'
p42
tp43
Rp44
aatp45
.