(cnumpy.core.multiarray
_reconstruct
p0
(cnumpy
ndarray
p1
(I0
tp2
S'b'
p3
tp4
Rp5
(I1
(I4
tp6
cnumpy
dtype
p7
(S'f8'
p8
I0
I1
tp9
Rp10
(I3
S'<'
p11
NNNI-1
I-1
I0
tp12
bI00
S'\nU\xa7y\x92\xc0a@\xd0cr\xed\xd2\x7fe?c{\x00\x1a\x99\xe9\x01@\xf7\xb2\xaa\xf6A\xc8\xe0?'
p13
tp14
b(lp15
(lp16
cnumpy.core.multiarray
scalar
p17
(g10
S'\xb5\xb9C]}o\\@'
p18
tp19
Rp20
ag17
(g10
S'9\xcd\xacDfIe@'
p21
tp22
Rp23
aa(lp24
g17
(g10
S'\x90u\x1b\xf46\x99/?'
p25
tp26
Rp27
ag17
(g10
S'$\x88\xd15\t\x83t?'
p28
tp29
Rp30
aa(lp31
g17
(g10
S'\x90\xad#]\xf7T6\xc0'
p32
tp33
Rp34
ag17
(g10
S'h\xcc\xa3\xa3]\xcf:@'
p35
tp36
Rp37
aa(lp38
g17
(g10
S']R-\xc6E\xc3\xe0?'
p39
tp40
Rp41
ag17
(g10
S"\x91\x13('>\xcd\xe0?"
p42
tp43
Rp44
aatp45
.