(cnumpy.core.multiarray
_reconstruct
p0
(cnumpy
ndarray
p1
(I0
tp2
S'b'
p3
tp4
Rp5
(I1
(I4
tp6
cnumpy
dtype
p7
(S'f8'
p8
I0
I1
tp9
Rp10
(I3
S'<'
p11
NNNI-1
I-1
I0
tp12
bI00
S'\x84z_nhKg@|\xb3\xa5\xe7\x99rQ?\\A\xc4\xdca\x1b.@\xa8\xe6!\x9e_\xda\xe0?'
p13
tp14
b(lp15
(lp16
cnumpy.core.multiarray
scalar
p17
(g10
S'\xd7\x83Qtg3c@'
p18
tp19
Rp20
ag17
(g10
S'1qmhick@'
p21
tp22
Rp23
aa(lp24
g17
(g10
S'\x00=5\xce\xff\xa73\xbf'
p25
tp26
Rp27
ag17
(g10
S'\x1c[l\xe1\x99\xe7c?'
p28
tp29
Rp30
aa(lp31
g17
(g10
S'\\A\xc4\xdca\x1b.@'
p32
tp33
Rp34
ag17
(g10
S'\\A\xc4\xdca\x1b.@'
p35
tp36
Rp37
aa(lp38
g17
(g10
S'bt\xc1.\x10\xd3\xe0?'
p39
tp40
Rp41
ag17
(g10
S'\xeeX\x82\r\xaf\xe1\xe0?'
p42
tp43
Rp44
aatp45
.