(cnumpy.core.multiarray
_reconstruct
p0
(cnumpy
ndarray
p1
(I0
tp2
S'b'
p3
tp4
Rp5
(I1
(I4
tp6
cnumpy
dtype
p7
(S'f8'
p8
I0
I1
tp9
Rp10
(I3
S'<'
p11
NNNI-1
I-1
I0
tp12
bI00
S'\x92-\x8d2\\)j@\xc1\x8c\r\xdd\x13PE?\xceCV\x0e\x88B*@\xf0s\x136\xf5\xdb\xe0?'
p13
tp14
b(lp15
(lp16
cnumpy.core.multiarray
scalar
p17
(g10
S'l^\x98\xa5\x94\x85c@'
p18
tp19
Rp20
ag17
(g10
S'\\\xfe\xc0\xdf\x91fp@'
p21
tp22
Rp23
aa(lp24
g17
(g10
S'\xcf\xd5\x0f\xa2m4O\xbf'
p25
tp26
Rp27
ag17
(g10
S'\xd4\xbb\nW%ub?'
p28
tp29
Rp30
aa(lp31
g17
(g10
S'\xceCV\x0e\x88B*@'
p32
tp33
Rp34
ag17
(g10
S'\xceCV\x0e\x88B*@'
p35
tp36
Rp37
aa(lp38
g17
(g10
S'l#\x1e!\xa9\xcd\xe0?'
p39
tp40
Rp41
ag17
(g10
S't\xc4\x08KA\xea\xe0?'
p42
tp43
Rp44
aatp45
.