(cnumpy.core.multiarray
_reconstruct
p0
(cnumpy
ndarray
p1
(I0
tp2
S'b'
p3
tp4
Rp5
(I1
(I4
tp6
cnumpy
dtype
p7
(S'f8'
p8
I0
I1
tp9
Rp10
(I3
S'<'
p11
NNNI-1
I-1
I0
tp12
bI00
S'\x95z\xe5q\x0f6]@\xec\xa3\xcc\xcd\xd4\x94x?|6\xc5xa6D@\x0f#a\x0c\xdb.\xe1?'
p13
tp14
b(lp15
(lp16
cnumpy.core.multiarray
scalar
p17
(g10
S'\xa2\x81@\xe3\xbbOU@'
p18
tp19
Rp20
ag17
(g10
S'\xc49E\x801\x8eb@'
p21
tp22
Rp23
aa(lp24
g17
(g10
S'\xe0W\x9e\xe1i9J?'
p25
tp26
Rp27
ag17
(g10
S'n\xbe\xb2/>\xf1\x86?'
p28
tp29
Rp30
aa(lp31
g17
(g10
S'|6\xc5xa6D@'
p32
tp33
Rp34
ag17
(g10
S'|6\xc5xa6D@'
p35
tp36
Rp37
aa(lp38
g17
(g10
S'\x06\x1e\x05\xaf\xea*\xe1?'
p39
tp40
Rp41
ag17
(g10
S'\x18(\xbdi\xcb2\xe1?'
p42
tp43
Rp44
aatp45
.