(cnumpy.core.multiarray
_reconstruct
p0
(cnumpy
ndarray
p1
(I0
tp2
S'b'
p3
tp4
Rp5
(I1
(I4
tp6
cnumpy
dtype
p7
(S'f8'
p8
I0
I1
tp9
Rp10
(I3
S'<'
p11
NNNI-1
I-1
I0
tp12
bI00
S'\xccT\x03\x8c\xb9\xf6n@e\x80L\xcbb\x87"?\x0e5sMy\x9b\xec?\'*)\xec\x1d!\xe1?'
p13
tp14
b(lp15
(lp16
cnumpy.core.multiarray
scalar
p17
(g10
S'\xa6{\x9aI@^d@'
p18
tp19
Rp20
ag17
(g10
S'\xf9\x166g\x99\xc7t@'
p21
tp22
Rp23
aa(lp24
g17
(g10
S'.-9\xb0\x1a&R\xbf'
p25
tp26
Rp27
ag17
(g10
S'HM\x0cc\xf3\xc7V?'
p28
tp29
Rp30
aa(lp31
g17
(g10
S'\xc4\n\xe4m\xbav\x18\xc0'
p32
tp33
Rp34
ag17
(g10
S'\x08\xd8@\xc1\x98\x9d\x1f@'
p35
tp36
Rp37
aa(lp38
g17
(g10
S'<,(jc\xe9\xe0?'
p39
tp40
Rp41
ag17
(g10
S'\x12(*n\xd8X\xe1?'
p42
tp43
Rp44
aatp45
.