(cnumpy.core.multiarray
_reconstruct
p0
(cnumpy
ndarray
p1
(I0
tp2
S'b'
p3
tp4
Rp5
(I1
(I4
tp6
cnumpy
dtype
p7
(S'f8'
p8
I0
I1
tp9
Rp10
(I3
S'<'
p11
NNNI-1
I-1
I0
tp12
bI00
S'#\x1a\xac\xfe\xd88a@6B]\x86\xad\rv?\x94m\x10[\xact)@\x8b\nj@\xdb\xe1\xe0?'
p13
tp14
b(lp15
(lp16
cnumpy.core.multiarray
scalar
p17
(g10
S' \xd8\x17c\xd5;Y@'
p18
tp19
Rp20
ag17
(g10
S'6H\xccK\xc7\xd3e@'
p21
tp22
Rp23
aa(lp24
g17
(g10
S'\xb0\xcb]ar\xa5B?'
p25
tp26
Rp27
ag17
(g10
S'{eG`V\xe3\x84?'
p28
tp29
Rp30
aa(lp31
g17
(g10
S'\x94m\x10[\xact)@'
p32
tp33
Rp34
ag17
(g10
S'\x94m\x10[\xact)@'
p35
tp36
Rp37
aa(lp38
g17
(g10
S'/\xbe\xb7%(\xde\xe0?'
p39
tp40
Rp41
ag17
(g10
S'\xe7V\x1c[\x8e\xe5\xe0?'
p42
tp43
Rp44
aatp45
.