(cnumpy.core.multiarray
_reconstruct
p0
(cnumpy
ndarray
p1
(I0
tp2
S'b'
p3
tp4
Rp5
(I1
(I4
tp6
cnumpy
dtype
p7
(S'f8'
p8
I0
I1
tp9
Rp10
(I3
S'<'
p11
NNNI-1
I-1
I0
tp12
bI00
S'\xa4+\x16"{+g@m1\xbf\x921\xc1_?\xc3VJ\xca<L2@\x1e\xf7v;\xd6\xc7\xe0?'
p13
tp14
b(lp15
(lp16
cnumpy.core.multiarray
scalar
p17
(g10
S'\x8e\x9c\xf1Sd;b@'
p18
tp19
Rp20
ag17
(g10
S'\xba\xba:\xf0\x91\x1bl@'
p21
tp22
Rp23
aa(lp24
g17
(g10
S'TlB\x19\x91\x960\xbf'
p25
tp26
Rp27
ag17
(g10
S'|\xbf\xf3\xda\x01\xeap?'
p28
tp29
Rp30
aa(lp31
g17
(g10
S'vjI\xca<L2@'
p32
tp33
Rp34
ag17
(g10
S'\x10CK\xca<L2@'
p35
tp36
Rp37
aa(lp38
g17
(g10
S'\xadv\xdc\x97}\xc2\xe0?'
p39
tp40
Rp41
ag17
(g10
S'\x8fw\x11\xdf.\xcd\xe0?'
p42
tp43
Rp44
aatp45
.