(cnumpy.core.multiarray
_reconstruct
p0
(cnumpy
ndarray
p1
(I0
tp2
S'b'
p3
tp4
Rp5
(I1
(I4
tp6
cnumpy
dtype
p7
(S'f8'
p8
I0
I1
tp9
Rp10
(I3
S'<'
p11
NNNI-1
I-1
I0
tp12
bI00
S'\x96F\xf77D\xb9e@\x9d\x1e\xc2\xa6\xbb\xc3P?L:-s\x95\x83*@Q\xdfC\xdeg\x92\xe0?'
p13
tp14
b(lp15
(lp16
cnumpy.core.multiarray
scalar
p17
(g10
S's\xf99_\x87\x8ca@'
p18
tp19
Rp20
ag17
(g10
S'\xb9\x93\xb4\x10\x01\xe6i@'
p21
tp22
Rp23
aa(lp24
g17
(g10
S'\xb8$\xac\x15\xc6\xfc<\xbf'
p25
tp26
Rp27
ag17
(g10
S'4\xa3wiTcd?'
p28
tp29
Rp30
aa(lp31
g17
(g10
S'L:-s\x95\x83*@'
p32
tp33
Rp34
ag17
(g10
S'L:-s\x95\x83*@'
p35
tp36
Rp37
aa(lp38
g17
(g10
S'@aK\x91`\x89\xe0?'
p39
tp40
Rp41
ag17
(g10
S'b]<+o\x9b\xe0?'
p42
tp43
Rp44
aatp45
.