(cnumpy.core.multiarray
_reconstruct
p0
(cnumpy
ndarray
p1
(I0
tp2
S'b'
p3
tp4
Rp5
(I1
(I4
tp6
cnumpy
dtype
p7
(S'f8'
p8
I0
I1
tp9
Rp10
(I3
S'<'
p11
NNNI-1
I-1
I0
tp12
bI00
S'o\xda\x08}\xc4\xe3]@\x9e\x1diqp\x8cz?t\xc8\x94<2<\t@Cq=\xd2\xb0\xc7\xe0?'
p13
tp14
b(lp15
(lp16
cnumpy.core.multiarray
scalar
p17
(g10
S'\xcc\xcc\x1d\xa9\xde7V@'
p18
tp19
Rp20
ag17
(g10
S'\t\xf4y(\xd5\xc7b@'
p21
tp22
Rp23
aa(lp24
g17
(g10
S'<G-a\x81dU?'
p25
tp26
Rp27
ag17
(g10
S'\xb6tCE\xe0\xdf\x87?'
p28
tp29
Rp30
aa(lp31
g17
(g10
S'\xa0\xf5\x10~\xa6_L\xc0'
p32
tp33
Rp34
ag17
(g10
S'\xae\x8e\xa3\xc5,\x87O@'
p35
tp36
Rp37
aa(lp38
g17
(g10
S'\xab\x9b\x077.\xc4\xe0?'
p39
tp40
Rp41
ag17
(g10
S'\xdbFsm3\xcb\xe0?'
p42
tp43
Rp44
aatp45
.