(cnumpy.core.multiarray
_reconstruct
p0
(cnumpy
ndarray
p1
(I0
tp2
S'b'
p3
tp4
Rp5
(I1
(I4
tp6
cnumpy
dtype
p7
(S'f8'
p8
I0
I1
tp9
Rp10
(I3
S'<'
p11
NNNI-1
I-1
I0
tp12
bI00
S'Q^\xfd>pPj@\x9d0\xcal\xbb\x8c*?\xa9\x80\x00,\no\xb5?M\xaf~\xc3\xe2\xce\xe0?'
p13
tp14
b(lp15
(lp16
cnumpy.core.multiarray
scalar
p17
(g10
S'\xb2g\x18\\_@h@'
p18
tp19
Rp20
ag17
(g10
S'\xf0T\xe2!\x81`l@'
p21
tp22
Rp23
aa(lp24
g17
(g10
S'Q\xe0_Q\x8fY*?'
p25
tp26
Rp27
ag17
(g10
S'\xe9\x804\x88\xe7\xbf*?'
p28
tp29
Rp30
aa(lp31
g17
(g10
S'\x18\xed\xac\xfc\xdc\x91\xa4?'
p32
tp33
Rp34
ag17
(g10
S'cE\xd5\xec\x92J\xc0?'
p35
tp36
Rp37
aa(lp38
g17
(g10
S'-z>Yw\xcc\xe0?'
p39
tp40
Rp41
ag17
(g10
S'm\xe4\xbe-N\xd1\xe0?'
p42
tp43
Rp44
aatp45
.