(cnumpy.core.multiarray
_reconstruct
p0
(cnumpy
ndarray
p1
(I0
tp2
S'b'
p3
tp4
Rp5
(I1
(I4
tp6
cnumpy
dtype
p7
(S'f8'
p8
I0
I1
tp9
Rp10
(I3
S'<'
p11
NNNI-1
I-1
I0
tp12
bI00
S'$\xc1.z\xfb\x0fb@\xec\x19\xa1\x12 \xceq?U2\xbe\x07\xe7\xf7C@p\x88>\x95+\xff\xe0?'
p13
tp14
b(lp15
(lp16
cnumpy.core.multiarray
scalar
p17
(g10
S'x\xb5\x96\x819\xefZ@'
p18
tp19
Rp20
ag17
(g10
S"\x8c'\x923Z\xa8f@"
p21
tp22
Rp23
aa(lp24
g17
(g10
S'\xc029\xf5N`4?'
p25
tp26
Rp27
ag17
(g10
S'VP\xf7\x9a\x1d+\x81?'
p28
tp29
Rp30
aa(lp31
g17
(g10
S'U2\xbe\x07\xe7\xf7C@'
p32
tp33
Rp34
ag17
(g10
S'U2\xbe\x07\xe7\xf7C@'
p35
tp36
Rp37
aa(lp38
g17
(g10
S'Q\t9{*\xfb\xe0?'
p39
tp40
Rp41
ag17
(g10
S'\x8f\x07D\xaf,\x03\xe1?'
p42
tp43
Rp44
aatp45
.