(cnumpy.core.multiarray
_reconstruct
p0
(cnumpy
ndarray
p1
(I0
tp2
S'b'
p3
tp4
Rp5
(I1
(I4
tp6
cnumpy
dtype
p7
(S'f8'
p8
I0
I1
tp9
Rp10
(I3
S'<'
p11
NNNI-1
I-1
I0
tp12
bI00
S'Uzf,V\xef`@M\xe4\xdd\xa0\xc6Tn?\n\xbc\xb1A\x0b\x17\xf1?\xd9\x1d\xbf"D\x9d\xe0?'
p13
tp14
b(lp15
(lp16
cnumpy.core.multiarray
scalar
p17
(g10
S'\n=\xb3\xe4upZ@'
p18
tp19
Rp20
ag17
(g10
S'%Vsfq\xa6d@'
p21
tp22
Rp23
aa(lp24
g17
(g10
S'\xecX\x9cmpEB?'
p25
tp26
Rp27
ag17
(g10
S'0Y*\x93\x18\x0c|?'
p28
tp29
Rp30
aa(lp31
g17
(g10
S'R\x9c\xb5\x03U\xe8\x10\xc0'
p32
tp33
Rp34
ag17
(g10
S'Vz\x8e\xa4\xdas\x19@'
p35
tp36
Rp37
aa(lp38
g17
(g10
S'mNV\x1b\xfe\x98\xe0?'
p39
tp40
Rp41
ag17
(g10
S"E\xed'*\x8a\xa1\xe0?"
p42
tp43
Rp44
aatp45
.