(cnumpy.core.multiarray
_reconstruct
p0
(cnumpy
ndarray
p1
(I0
tp2
S'b'
p3
tp4
Rp5
(I1
(I4
tp6
cnumpy
dtype
p7
(S'f8'
p8
I0
I1
tp9
Rp10
(I3
S'<'
p11
NNNI-1
I-1
I0
tp12
bI00
S'TE0\x1a\xe9&f@\xeb\x9e/$\x9elj?\x064"\n_\xcaE@M\xf3\x02\xc1\xddT\xe1?'
p13
tp14
b(lp15
(lp16
cnumpy.core.multiarray
scalar
p17
(g10
S"\xcad'\xfb\xfdk]@"
p18
tp19
Rp20
ag17
(g10
S'C\xd8\xcc6\xd3\x97m@'
p21
tp22
Rp23
aa(lp24
g17
(g10
S'\xce\x01\xb3\x87\x11\xf8T\xbf'
p25
tp26
Rp27
ag17
(g10
S'^_\x1c\x86\xa2\xaa\x7f?'
p28
tp29
Rp30
aa(lp31
g17
(g10
S'\x064"\n_\xcaE@'
p32
tp33
Rp34
ag17
(g10
S'\x064"\n_\xcaE@'
p35
tp36
Rp37
aa(lp38
g17
(g10
S'\xd2\x7f2!hO\xe1?'
p39
tp40
Rp41
ag17
(g10
S'\xc8f\xd3`SZ\xe1?'
p42
tp43
Rp44
aatp45
.