(cnumpy.core.multiarray
_reconstruct
p0
(cnumpy
ndarray
p1
(I0
tp2
S'b'
p3
tp4
Rp5
(I1
(I4
tp6
cnumpy
dtype
p7
(S'f8'
p8
I0
I1
tp9
Rp10
(I3
S'<'
p11
NNNI-1
I-1
I0
tp12
bI00
S'\xf2\xc2^m\x049h@3~\xc5\xcac.??\x1c;\xfd\xb2|E\xca?\xfb&\xd6\xaa[\x8c\xe0?'
p13
tp14
b(lp15
(lp16
cnumpy.core.multiarray
scalar
p17
(g10
S'c_\x80\x0eg.e@'
p18
tp19
Rp20
ag17
(g10
S'\x81&=\xcc\xa1Ck@'
p21
tp22
Rp23
aa(lp24
g17
(g10
S' \xf8}\xdeV\x7f\xe8>'
p25
tp26
Rp27
ag17
(g10
S'R\x86Kof\xccN?'
p28
tp29
Rp30
aa(lp31
g17
(g10
S'\xb0}OO\xdb\xed\x9e\xbf'
p32
tp33
Rp34
ag17
(g10
S'\xf72\xf2gZ4\xdc?'
p35
tp36
Rp37
aa(lp38
g17
(g10
S'q8\x93\xa5I\x85\xe0?'
p39
tp40
Rp41
ag17
(g10
S'\x85\x15\x19\xb0m\x93\xe0?'
p42
tp43
Rp44
aatp45
.