(cnumpy.core.multiarray
_reconstruct
p0
(cnumpy
ndarray
p1
(I0
tp2
S'b'
p3
tp4
Rp5
(I1
(I4
tp6
cnumpy
dtype
p7
(S'f8'
p8
I0
I1
tp9
Rp10
(I3
S'<'
p11
NNNI-1
I-1
I0
tp12
bI00
S'\xad\xbc\xeeJ\xaf\xc3h@]\xb9\x19)H\x8b:?q\x81V\xd3\xd9Q)@\xff[\xc6A\xbc\x9c\xe0?'
p13
tp14
b(lp15
(lp16
cnumpy.core.multiarray
scalar
p17
(g10
S'e\x0c\xc8{8Zf@'
p18
tp19
Rp20
ag17
(g10
S'\xf5l\x15\x1a&-k@'
p21
tp22
Rp23
aa(lp24
g17
(g10
S'\t(l\xd8\xd0\x1e:?'
p25
tp26
Rp27
ag17
(g10
S'\xb1J\xc7y\xbf\xf7:?'
p28
tp29
Rp30
aa(lp31
g17
(g10
S'q\x81V\xd3\xd9Q)@'
p32
tp33
Rp34
ag17
(g10
S'q\x81V\xd3\xd9Q)@'
p35
tp36
Rp37
aa(lp38
g17
(g10
S'\xd9~N\xf2\xfd\x99\xe0?'
p39
tp40
Rp41
ag17
(g10
S'%9>\x91z\x9f\xe0?'
p42
tp43
Rp44
aatp45
.