(cnumpy.core.multiarray
_reconstruct
p0
(cnumpy
ndarray
p1
(I0
tp2
S'b'
p3
tp4
Rp5
(I1
(I4
tp6
cnumpy
dtype
p7
(S'f8'
p8
I0
I1
tp9
Rp10
(I3
S'<'
p11
NNNI-1
I-1
I0
tp12
bI00
S'L\x18~XB k@\x10e\x99\r\x82R@?m\xa9\xec\x90\x9ae\x93?\xd3\x08eQ\r\xfd\xe0?'
p13
tp14
b(lp15
(lp16
cnumpy.core.multiarray
scalar
p17
(g10
S'N \xf7\x92ihf@'
p18
tp19
Rp20
ag17
(g10
S'J\x10\x05\x1e\x1b\xd8o@'
p21
tp22
Rp23
aa(lp24
g17
(g10
S'x\xe8S\xb4\xdc\xa8?\xbf'
p25
tp26
Rp27
ag17
(g10
S'._\xae:\xb9<X?'
p28
tp29
Rp30
aa(lp31
g17
(g10
S'@\xb1\xcf\x8f\xa4\x0ff?'
p32
tp33
Rp34
ag17
(g10
S'Y\xae\xefG\xa0\x04\xa2?'
p35
tp36
Rp37
aa(lp38
g17
(g10
S'HK\xb8M\xbc\xef\xe0?'
p39
tp40
Rp41
ag17
(g10
S'^\xc6\x11U^\n\xe1?'
p42
tp43
Rp44
aatp45
.