(cnumpy.core.multiarray
_reconstruct
p0
(cnumpy
ndarray
p1
(I0
tp2
S'b'
p3
tp4
Rp5
(I1
(I4
tp6
cnumpy
dtype
p7
(S'f8'
p8
I0
I1
tp9
Rp10
(I3
S'<'
p11
NNNI-1
I-1
I0
tp12
bI00
S'[\xa4\x18\xce \xa4g@6\xb7\xd66X\xa6]?u{\xff+`\t*@\x06\xd7\xf56+\xd7\xe0?'
p13
tp14
b(lp15
(lp16
cnumpy.core.multiarray
scalar
p17
(g10
S'\xe1.\xbb\xb2l\x80`@'
p18
tp19
Rp20
ag17
(g10
S'\xd5\x19v\xe9\xd4\xc7n@'
p21
tp22
Rp23
aa(lp24
g17
(g10
S'\x94\xc6\xf6\xab^\xabV\xbf'
p25
tp26
Rp27
ag17
(g10
S'@\ri\xc6\x03~t?'
p28
tp29
Rp30
aa(lp31
g17
(g10
S'u{\xff+`\t*@'
p32
tp33
Rp34
ag17
(g10
S'u{\xff+`\t*@'
p35
tp36
Rp37
aa(lp38
g17
(g10
S'\xf6\x01\xb4\xb9s\xce\xe0?'
p39
tp40
Rp41
ag17
(g10
S'\x16\xac7\xb4\xe2\xdf\xe0?'
p42
tp43
Rp44
aatp45
.