(cnumpy.core.multiarray
_reconstruct
p0
(cnumpy
ndarray
p1
(I0
tp2
S'b'
p3
tp4
Rp5
(I1
(I4
tp6
cnumpy
dtype
p7
(S'f8'
p8
I0
I1
tp9
Rp10
(I3
S'<'
p11
NNNI-1
I-1
I0
tp12
bI00
S">w\x06\x1d]\tp@\xd2\reD\x0b\xcb\xf5>NU\xa4X\x95\xa0\x07@\x14{\xe8\xbc'\xed\xe0?"
p13
tp14
b(lp15
(lp16
cnumpy.core.multiarray
scalar
p17
(g10
S'n\xedl\x99\x1eGW@'
p18
tp19
Rp20
ag17
(g10
S' \xb3\xb1\x93\xf2@z@'
p21
tp22
Rp23
aa(lp24
g17
(g10
S':t \xa5\x1egV\xbf'
p25
tp26
Rp27
ag17
(g10
S'\xa8\x9cC\xffv\x15W?'
p28
tp29
Rp30
aa(lp31
g17
(g10
S'\xcd\xc415`{|\xc0'
p32
tp33
Rp34
ag17
(g10
S'#V\x94\x8a\xe2\xd9|@'
p35
tp36
Rp37
aa(lp38
g17
(g10
S'@\x17\xf7@k!\xde?'
p39
tp40
Rp41
ag17
(g10
S'\x88jU\xd9\x99\xc9\xe2?'
p42
tp43
Rp44
aatp45
.