(cnumpy.core.multiarray
_reconstruct
p0
(cnumpy
ndarray
p1
(I0
tp2
S'b'
p3
tp4
Rp5
(I1
(I4
tp6
cnumpy
dtype
p7
(S'f8'
p8
I0
I1
tp9
Rp10
(I3
S'<'
p11
NNNI-1
I-1
I0
tp12
bI00
S'=t;\x88X\xe8f@=j#\x08;\xa5\xc9>k:^\xe9\x86\x9e\xa6?\x171\x9dsC\xc9\xe0?'
p13
tp14
b(lp15
(lp16
cnumpy.core.multiarray
scalar
p17
(g10
S'^\xf55\xa4{,\\@'
p18
tp19
Rp20
ag17
(g10
S'\xcb\xed[>s\xbao@'
p21
tp22
Rp23
aa(lp24
g17
(g10
S'/K\x1b@\xe2\xfa0\xbf'
p25
tp26
Rp27
ag17
(g10
S'\xd7\xd8;,wa1?'
p28
tp29
Rp30
aa(lp31
g17
(g10
S'_*-\x04!\xf5\x95?'
p32
tp33
Rp34
ag17
(g10
S'\xd3\xefR\xa8>!\xb1?'
p35
tp36
Rp37
aa(lp38
g17
(g10
S'^\xcf\xb9Q\xf1\x8e\xda?'
p39
tp40
Rp41
ag17
(g10
S'\x7fz]>\x0eK\xe4?'
p42
tp43
Rp44
aatp45
.