(cnumpy.core.multiarray
_reconstruct
p0
(cnumpy
ndarray
p1
(I0
tp2
S'b'
p3
tp4
Rp5
(I1
(I4
tp6
cnumpy
dtype
p7
(S'f8'
p8
I0
I1
tp9
Rp10
(I3
S'<'
p11
NNNI-1
I-1
I0
tp12
bI00
S'e\xd4\x1e\xa5\x8dvd@d\xf2G>#Xs?\xf6-\xbd$dl\xf5?N\xd4\xaa\x8fp)\xe1?'
p13
tp14
b(lp15
(lp16
cnumpy.core.multiarray
scalar
p17
(g10
S'\x941\xb4\x15\xaa8`@'
p18
tp19
Rp20
ag17
(g10
S'6w\x894q\xb4h@'
p21
tp22
Rp23
aa(lp24
g17
(g10
S'(\x00\xe0\x01\x1fGr?'
p25
tp26
Rp27
ag17
(g10
S"\xa0\xe4\xafz'it?"
p28
tp29
Rp30
aa(lp31
g17
(g10
S'\xea\xf1\xf7\x82Kn0\xc0'
p32
tp33
Rp34
ag17
(g10
S'\xa8\x97\x8f\x07\xd8\x1b3@'
p35
tp36
Rp37
aa(lp38
g17
(g10
S'y\xeb\xdb\xe6u&\xe1?'
p39
tp40
Rp41
ag17
(g10
S'#\xbdy8k,\xe1?'
p42
tp43
Rp44
aatp45
.