(cnumpy.core.multiarray
_reconstruct
p0
(cnumpy
ndarray
p1
(I0
tp2
S'b'
p3
tp4
Rp5
(I1
(I4
tp6
cnumpy
dtype
p7
(S'f8'
p8
I0
I1
tp9
Rp10
(I3
S'<'
p11
NNNI-1
I-1
I0
tp12
bI00
S'\xdaB?\xe6\xf4Ab@z\xae{\xc1\x86`x?\x8fzN\xcc"Q<@\xe6\xc5\xc2\xaa,\xd4\xe0?'
p13
tp14
b(lp15
(lp16
cnumpy.core.multiarray
scalar
p17
(g10
S'_\xad\xda\xb4\x06\xe3U@'
p18
tp19
Rp20
ag17
(g10
S'\x04/\x11rf\x92i@'
p21
tp22
Rp23
aa(lp24
g17
(g10
S'(\x0eV\x97\xbd(a\xbf'
p25
tp26
Rp27
ag17
(g10
S"\x042Q'\xb6\xaa\x8c?"
p28
tp29
Rp30
aa(lp31
g17
(g10
S'\x8fzN\xcc"Q<@'
p32
tp33
Rp34
ag17
(g10
S'\x8fzN\xcc"Q<@'
p35
tp36
Rp37
aa(lp38
g17
(g10
S'n+>\x1d\xd6\xce\xe0?'
p39
tp40
Rp41
ag17
(g10
S'^`G8\x83\xd9\xe0?'
p42
tp43
Rp44
aatp45
.