(cnumpy.core.multiarray
_reconstruct
p0
(cnumpy
ndarray
p1
(I0
tp2
S'b'
p3
tp4
Rp5
(I1
(I4
tp6
cnumpy
dtype
p7
(S'f8'
p8
I0
I1
tp9
Rp10
(I3
S'<'
p11
NNNI-1
I-1
I0
tp12
bI00
S'Y\xbc: \n\xe6b@.\x8f\xf7c0^o?%d}s\xb3\xb6\xc9?\xc9\xd5`\x84(\xe0\xe0?'
p13
tp14
b(lp15
(lp16
cnumpy.core.multiarray
scalar
p17
(g10
S'\xd1P\xfe\x1eD\xfeU@'
p18
tp19
Rp20
ag17
(g10
S'JP\xf60\xf2\xccj@'
p21
tp22
Rp23
aa(lp24
g17
(g10
S'\x84\xa1\xf9\xed8Xc\xbf'
p25
tp26
Rp27
ag17
(g10
S'\xf8/zm&\x85\x84?'
p28
tp29
Rp30
aa(lp31
g17
(g10
S'5\x0c\x88G=W\xc5\xbf'
p32
tp33
Rp34
ag17
(g10
S' \xb5\xa0\x0b)1\xe2?'
p35
tp36
Rp37
aa(lp38
g17
(g10
S'4j&:\xa8\xd8\xe0?'
p39
tp40
Rp41
ag17
(g10
S'^A\x9b\xce\xa8\xe7\xe0?'
p42
tp43
Rp44
aatp45
.