(cnumpy.core.multiarray
_reconstruct
p0
(cnumpy
ndarray
p1
(I0
tp2
S'b'
p3
tp4
Rp5
(I1
(I4
tp6
cnumpy
dtype
p7
(S'f8'
p8
I0
I1
tp9
Rp10
(I3
S'<'
p11
NNNI-1
I-1
I0
tp12
bI00
S'\xbb\xf4\x0b\x82Qqj@c\x7fE\x85\xc5 G?YKx\x1f2=c@\xb25\xacWf\xaf\xe0?'
p13
tp14
b(lp15
(lp16
cnumpy.core.multiarray
scalar
p17
(g10
S'2\x1ej&\xf9Ja@'
p18
tp19
Rp20
ag17
(g10
S'\xa2\xe5\xd6\xee\xd4\xcbq@'
p21
tp22
Rp23
aa(lp24
g17
(g10
S'\xc4\xcf.\xdd\xcc!\\\xbf'
p25
tp26
Rp27
ag17
(g10
S"\x94':1I\xa1i?"
p28
tp29
Rp30
aa(lp31
g17
(g10
S'f\xfcw\x1f2=c@'
p32
tp33
Rp34
ag17
(g10
S'L\x9ax\x1f2=c@'
p35
tp36
Rp37
aa(lp38
g17
(g10
S'\x81\x07&DD\x9b\xe0?'
p39
tp40
Rp41
ag17
(g10
S'\xe3c2k\x88\xc3\xe0?'
p42
tp43
Rp44
aatp45
.