(cnumpy.core.multiarray
_reconstruct
p0
(cnumpy
ndarray
p1
(I0
tp2
S'b'
p3
tp4
Rp5
(I1
(I4
tp6
cnumpy
dtype
p7
(S'f8'
p8
I0
I1
tp9
Rp10
(I3
S'<'
p11
NNNI-1
I-1
I0
tp12
bI00
S'\xdc6\xfaZ\x1d\nd@\x00X+<\xc9JJ?|={\x83,Y\xbd?p\x14\xcb\xd2\xc93\xe1?'
p13
tp14
b(lp15
(lp16
cnumpy.core.multiarray
scalar
p17
(g10
S'\x87\x0f\x0b\x977o`@'
p18
tp19
Rp20
ag17
(g10
S'1^\xe9\x1e\x03\xa5g@'
p21
tp22
Rp23
aa(lp24
g17
(g10
S'\xafK\x9dl(\xe9I?'
p25
tp26
Rp27
ag17
(g10
S'Qd\xb9\x0bj\xacJ?'
p28
tp29
Rp30
aa(lp31
g17
(g10
S'\xe8G\xc7!\xf3\xdb\x93\xbf'
p32
tp33
Rp34
ag17
(g10
S'y&\xb4\xe7\xaa\xd4\xcf?'
p35
tp36
Rp37
aa(lp38
g17
(g10
S'\x7f\x9b$r\xd8.\xe1?'
p39
tp40
Rp41
ag17
(g10
S'a\x8dq3\xbb8\xe1?'
p42
tp43
Rp44
aatp45
.