(cnumpy.core.multiarray
_reconstruct
p0
(cnumpy
ndarray
p1
(I0
tp2
S'b'
p3
tp4
Rp5
(I1
(I4
tp6
cnumpy
dtype
p7
(S'f8'
p8
I0
I1
tp9
Rp10
(I3
S'<'
p11
NNNI-1
I-1
I0
tp12
bI00
S'\xec\x9bo\x02pqc@Z\xednAp9}?\xfe\t\x1e\xaej5\x0f@;\x07\x8bH\x81\xe3\xe0?'
p13
tp14
b(lp15
(lp16
cnumpy.core.multiarray
scalar
p17
(g10
S'tkK\\t}S@'
p18
tp19
Rp20
ag17
(g10
S'\x1e\x82\xb9\xd6%$m@'
p21
tp22
Rp23
aa(lp24
g17
(g10
S"\x10'P\xb6_\xa1p\xbf"
p25
tp26
Rp27
ag17
(g10
S'q\x80K\x0e\x10\xc5\x92?'
p28
tp29
Rp30
aa(lp31
g17
(g10
S'4\x12\x14\xddCfj\xc0'
p32
tp33
Rp34
ag17
(g10
S'\x84\x02\x852\xef_k@'
p35
tp36
Rp37
aa(lp38
g17
(g10
S"'\xbe\xee%0\xde\xe0?"
p39
tp40
Rp41
ag17
(g10
S"OP'k\xd2\xe8\xe0?"
p42
tp43
Rp44
aatp45
.