(cnumpy.core.multiarray
_reconstruct
p0
(cnumpy
ndarray
p1
(I0
tp2
S'b'
p3
tp4
Rp5
(I1
(I4
tp6
cnumpy
dtype
p7
(S'f8'
p8
I0
I1
tp9
Rp10
(I3
S'<'
p11
NNNI-1
I-1
I0
tp12
bI00
S'\xce\x82\x8b\xc9\xc3\xca^@\xb4\xf3aSi\x02\x95?\xc6TgEf;3@#Q\x95\x14\xd1\xc1\xe0?'
p13
tp14
b(lp15
(lp16
cnumpy.core.multiarray
scalar
p17
(g10
S'\xba?\x9d\x89\x03\\H@'
p18
tp19
Rp20
ag17
(g10
S'\xe02$\xe7\xc2\xb3h@'
p21
tp22
Rp23
aa(lp24
g17
(g10
S'D7\x9a>\x15\xb6|\xbf'
p25
tp26
Rp27
ag17
(g10
S'\x9c:5\xfb+\x99\xa8?'
p28
tp29
Rp30
aa(lp31
g17
(g10
S'\xc6TgEf;3@'
p32
tp33
Rp34
ag17
(g10
S'\xc6TgEf;3@'
p35
tp36
Rp37
aa(lp38
g17
(g10
S'\x87EY\xcc}\xbe\xe0?'
p39
tp40
Rp41
ag17
(g10
S'\xbf\\\xd1\\$\xc5\xe0?'
p42
tp43
Rp44
aatp45
.