(cnumpy.core.multiarray
_reconstruct
p0
(cnumpy
ndarray
p1
(I0
tp2
S'b'
p3
tp4
Rp5
(I1
(I3
tp6
cnumpy
dtype
p7
(S'f8'
p8
I0
I1
tp9
Rp10
(I3
S'<'
p11
NNNI-1
I-1
I0
tp12
bI00
S'\xb3t0)\x1eIX@\xd7\x1e.\xad\x14FH?\xcd2\x94\xaa\x7f\x99\xe0?'
p13
tp14
b(lp15
(lp16
cnumpy.core.multiarray
scalar
p17
(g10
S'\x06\xb6e\xe6\xfd\xaeU@'
p18
tp19
Rp20
ag17
(g10
S'`3\xfbk>\xe3Z@'
p21
tp22
Rp23
aa(lp24
g17
(g10
S'qn\x94n\x95\x039?'
p25
tp26
Rp27
ag17
(g10
S';\x03\x89Q/\x05R?'
p28
tp29
Rp30
aa(lp31
g17
(g10
S'Bq[\tl\x95\xe0?'
p32
tp33
Rp34
ag17
(g10
S'X\xf4\xccK\x93\x9d\xe0?'
p35
tp36
Rp37
aatp38
.