(cnumpy.core.multiarray
_reconstruct
p0
(cnumpy
ndarray
p1
(I0
tp2
S'b'
p3
tp4
Rp5
(I1
(I3
tp6
cnumpy
dtype
p7
(S'f8'
p8
I0
I1
tp9
Rp10
(I3
S'<'
p11
NNNI-1
I-1
I0
tp12
bI00
S'"m4.]?N@\x17\xe4\xed\xc0\xca\x9b\x82?\xbam\x87Bz\xa9\xe0?'
p13
tp14
b(lp15
(lp16
cnumpy.core.multiarray
scalar
p17
(g10
S'\x88U\xab`T\x0cJ@'
p18
tp19
Rp20
ag17
(g10
S'^\xc2\xde\xfd29Q@'
p21
tp22
Rp23
aa(lp24
g17
(g10
S'cjM\x9d\xfe\x94z?'
p25
tp26
Rp27
ag17
(g10
S'\xfc\x1253\x16\xed\x87?'
p28
tp29
Rp30
aa(lp31
g17
(g10
S']t\xc0\xb18\xa8\xe0?'
p32
tp33
Rp34
ag17
(g10
S'\x17gN\xd3\xbb\xaa\xe0?'
p35
tp36
Rp37
aatp38
.