(cnumpy.core.multiarray
_reconstruct
p0
(cnumpy
ndarray
p1
(I0
tp2
S'b'
p3
tp4
Rp5
(I1
(I3
tp6
cnumpy
dtype
p7
(S'f8'
p8
I0
I1
tp9
Rp10
(I3
S'<'
p11
NNNI-1
I-1
I0
tp12
bI00
S'6ij\x8f4nQ@s\r\x97%\xe9\xb0v?\x01\xb72\xb6\xc0\x99\xe0?'
p13
tp14
b(lp15
(lp16
cnumpy.core.multiarray
scalar
p17
(g10
S'\x0cz{\xc3M\xb0O@'
p18
tp19
Rp20
ag17
(g10
S'f\x15\x17=B\x04S@'
p21
tp22
Rp23
aa(lp24
g17
(g10
S'\xb4\x01\x14N\x16\xf2q?'
p25
tp26
Rp27
ag17
(g10
S'2\x19\x1a\xfd\xbbo{?'
p28
tp29
Rp30
aa(lp31
g17
(g10
S'S[\x92\xf4\xb7\x98\xe0?'
p32
tp33
Rp34
ag17
(g10
S'\xaf\x12\xd3w\xc9\x9a\xe0?'
p35
tp36
Rp37
aatp38
.