(cnumpy.core.multiarray
_reconstruct
p0
(cnumpy
ndarray
p1
(I0
tp2
S'b'
p3
tp4
Rp5
(I1
(I3
tp6
cnumpy
dtype
p7
(S'f8'
p8
I0
I1
tp9
Rp10
(I3
S'<'
p11
NNNI-1
I-1
I0
tp12
bI00
S'i\x86:\x85\x9b;Q@\xf4r\x1c\xe7)\x91y?+\xdd\xa7\xde$\x9d\xe0?'
p13
tp14
b(lp15
(lp16
cnumpy.core.multiarray
scalar
p17
(g10
S'|\xdc\xc7E\xa1\x7fN@'
p18
tp19
Rp20
ag17
(g10
S'\x94\x1e\x91gf7S@'
p21
tp22
Rp23
aa(lp24
g17
(g10
S'c\xdf\\\xd4\xb8\xfdr?'
p25
tp26
Rp27
ag17
(g10
S'C\x03\xee|M\x12\x80?'
p28
tp29
Rp30
aa(lp31
g17
(g10
S'0cl\xfa\xee\x9b\xe0?'
p32
tp33
Rp34
ag17
(g10
S'&W\xe3\xc2Z\x9e\xe0?'
p35
tp36
Rp37
aatp38
.