(cnumpy.core.multiarray
_reconstruct
p0
(cnumpy
ndarray
p1
(I0
tp2
S'b'
p3
tp4
Rp5
(I1
(I3
tp6
cnumpy
dtype
p7
(S'f8'
p8
I0
I1
tp9
Rp10
(I3
S'<'
p11
NNNI-1
I-1
I0
tp12
bI00
S'\x1c\x0bXW\x92\xa9U@L\xb0K\xa5@\xa9o?B\x8a\xbf\x8fd\xbf\xe0?'
p13
tp14
b(lp15
(lp16
cnumpy.core.multiarray
scalar
p17
(g10
S'~a\xef\xf3fFR@'
p18
tp19
Rp20
ag17
(g10
S'\xba\xb4\xc0\xba\xbd\x0cY@'
p21
tp22
Rp23
aa(lp24
g17
(g10
S')6\xb5\xff\xa13c?'
p25
tp26
Rp27
ag17
(g10
S'8\x15q\xa5o\x0fv?'
p28
tp29
Rp30
aa(lp31
g17
(g10
S'\x0c%g\x92\x8b\xbd\xe0?'
p32
tp33
Rp34
ag17
(g10
S'x\xef\x17\x8d=\xc1\xe0?'
p35
tp36
Rp37
aatp38
.