(cnumpy.core.multiarray
_reconstruct
p0
(cnumpy
ndarray
p1
(I0
tp2
S'b'
p3
tp4
Rp5
(I1
(I3
tp6
cnumpy
dtype
p7
(S'f8'
p8
I0
I1
tp9
Rp10
(I3
S'<'
p11
NNNI-1
I-1
I0
tp12
bI00
S'i9PIB\tM@\xf9\xed\xad\x07P6{?\x9a\xa73\xe1\x8c\xa1\xe0?'
p13
tp14
b(lp15
(lp16
cnumpy.core.multiarray
scalar
p17
(g10
S'*.\xf7\xc8\x9a.G@'
p18
tp19
Rp20
ag17
(g10
S'T\xa2\xd4\xe4\xf4qQ@'
p21
tp22
Rp23
aa(lp24
g17
(g10
S'u\x16pv\xf1An?'
p25
tp26
Rp27
ag17
(g10
S'\\\xe8\x11\xaa\xd3\xa5\x83?'
p28
tp29
Rp30
aa(lp31
g17
(g10
S'\xef#\xf0c&\x9f\xe0?'
p32
tp33
Rp34
ag17
(g10
S'E+w^\xf3\xa3\xe0?'
p35
tp36
Rp37
aatp38
.