(cnumpy.core.multiarray
_reconstruct
p0
(cnumpy
ndarray
p1
(I0
tp2
S'b'
p3
tp4
Rp5
(I1
(I3
tp6
cnumpy
dtype
p7
(S'f8'
p8
I0
I1
tp9
Rp10
(I3
S'<'
p11
NNNI-1
I-1
I0
tp12
bI00
S'\x0b\x0fj\x16-\xc6P@[\x19\x8a1\xc3w{?\x00\x92[9J\xaa\xe0?'
p13
tp14
b(lp15
(lp16
cnumpy.core.multiarray
scalar
p17
(g10
S'`\xb66\xb2OJM@'
p18
tp19
Rp20
ag17
(g10
S'\xe6\xc2\xb8S2\xe7R@'
p21
tp22
Rp23
aa(lp24
g17
(g10
S'G\xa8YC\xef\xcds?'
p25
tp26
Rp27
ag17
(g10
S'8E\xdd\x8f\xcb\x90\x81?'
p28
tp29
Rp30
aa(lp31
g17
(g10
S'\xa3\xff%f\xfe\xa8\xe0?'
p32
tp33
Rp34
ag17
(g10
S']$\x91\x0c\x96\xab\xe0?'
p35
tp36
Rp37
aatp38
.