(cnumpy.core.multiarray
_reconstruct
p0
(cnumpy
ndarray
p1
(I0
tp2
S'b'
p3
tp4
Rp5
(I1
(I3
tp6
cnumpy
dtype
p7
(S'f8'
p8
I0
I1
tp9
Rp10
(I3
S'<'
p11
NNNI-1
I-1
I0
tp12
bI00
S'\xfa\x0f.\x08\xa5\xdcQ@\x81>-o\xcbJv?\xfe]w\xba\xef\xc2\xe0?'
p13
tp14
b(lp15
(lp16
cnumpy.core.multiarray
scalar
p17
(g10
S'\x86\x0fQ&\x9f\xa2O@'
p18
tp19
Rp20
ag17
(g10
S'1\x983}\xfa\xe7S@'
p21
tp22
Rp23
aa(lp24
g17
(g10
S'\x05\x14\x05BNgp?'
p25
tp26
Rp27
ag17
(g10
S'\xfdhU\x9cH.|?'
p28
tp29
Rp30
aa(lp31
g17
(g10
S'\x81\xe4.\xee\xa9\xc1\xe0?'
p32
tp33
Rp34
ag17
(g10
S'{\xd7\xbf\x865\xc4\xe0?'
p35
tp36
Rp37
aatp38
.