(cnumpy.core.multiarray
_reconstruct
p0
(cnumpy
ndarray
p1
(I0
tp2
S'b'
p3
tp4
Rp5
(I1
(I3
tp6
cnumpy
dtype
p7
(S'f8'
p8
I0
I1
tp9
Rp10
(I3
S'<'
p11
NNNI-1
I-1
I0
tp12
bI00
S'Y\xa4g)"jP@\x04\xa77\'y\xf6w?\x0e\t\x8a\xbbF\xbd\xe0?'
p13
tp14
b(lp15
(lp16
cnumpy.core.multiarray
scalar
p17
(g10
S'+\x04\xe8\xda^\xaeK@'
p18
tp19
Rp20
ag17
(g10
S'\x9dF[\xe5\x14\xfdR@'
p21
tp22
Rp23
aa(lp24
g17
(g10
S'\xbd\x991\xec\xa9\xe0n?'
p25
tp26
Rp27
ag17
(g10
S'\x95@+\xacN>\x80?'
p28
tp29
Rp30
aa(lp31
g17
(g10
S'\x8c\x15g\x9by\xbb\xe0?'
p32
tp33
Rp34
ag17
(g10
S'\x90\xfc\xac\xdb\x13\xbf\xe0?'
p35
tp36
Rp37
aatp38
.