(cnumpy.core.multiarray
_reconstruct
p0
(cnumpy
ndarray
p1
(I0
tp2
S'b'
p3
tp4
Rp5
(I1
(I3
tp6
cnumpy
dtype
p7
(S'f8'
p8
I0
I1
tp9
Rp10
(I3
S'<'
p11
NNNI-1
I-1
I0
tp12
bI00
S'\xfd\xa3/\xb0\x18VS@\x80+\x9d\xfc3^t?Z8\x0f\xf9\xe3\xa0\xe0?'
p13
tp14
b(lp15
(lp16
cnumpy.core.multiarray
scalar
p17
(g10
S'6p\xc8@\xfa\xb1P@'
p18
tp19
Rp20
ag17
(g10
S'\xc4\xd7\x96\x1f7\xfaU@'
p21
tp22
Rp23
aa(lp24
g17
(g10
S'\xfd\x08\x9c\x98\n\x9bk?'
p25
tp26
Rp27
ag17
(g10
S'\x82R\xec\xac\xe2\xeez?'
p28
tp29
Rp30
aa(lp31
g17
(g10
S'\xac\r\x15\xa2`\x9f\xe0?'
p32
tp33
Rp34
ag17
(g10
S'\x08c\tPg\xa2\xe0?'
p35
tp36
Rp37
aatp38
.