(cnumpy.core.multiarray
_reconstruct
p0
(cnumpy
ndarray
p1
(I0
tp2
S'b'
p3
tp4
Rp5
(I1
(I3
tp6
cnumpy
dtype
p7
(S'f8'
p8
I0
I1
tp9
Rp10
(I3
S'<'
p11
NNNI-1
I-1
I0
tp12
bI00
S'\xc8j\x859\x19\xa5O@\x9b\n\x0eM\x8d\xa7x?\x0e?\x82\xee\x07x\xe0?'
p13
tp14
b(lp15
(lp16
cnumpy.core.multiarray
scalar
p17
(g10
S'\x86\xf6\r8\t\x03K@'
p18
tp19
Rp20
ag17
(g10
S'\x85o~\x9d\x94#R@'
p21
tp22
Rp23
aa(lp24
g17
(g10
S'0\xda\xe7\xf4p\x85p?'
p25
tp26
Rp27
ag17
(g10
S'\x83\x1d\x9a\xd2\xd4d\x80?'
p28
tp29
Rp30
aa(lp31
g17
(g10
S'\x86Xc\xd8Jv\xe0?'
p32
tp33
Rp34
ag17
(g10
S'\x96%\xa1\x04\xc5y\xe0?'
p35
tp36
Rp37
aatp38
.