(cnumpy.core.multiarray
_reconstruct
p0
(cnumpy
ndarray
p1
(I0
tp2
S'b'
p3
tp4
Rp5
(I1
(I3
tp6
cnumpy
dtype
p7
(S'f8'
p8
I0
I1
tp9
Rp10
(I3
S'<'
p11
NNNI-1
I-1
I0
tp12
bI00
S',\x98\xc0l\xad#W@Vf%&\xdc5b?\xdc>&@\xb3\xb8\xe0?'
p13
tp14
b(lp15
(lp16
cnumpy.core.multiarray
scalar
p17
(g10
S'p\xec\xc7\xda+\xa1T@'
p18
tp19
Rp20
ag17
(g10
S'\xe8C\xb9\xfe.\xa6Y@'
p21
tp22
Rp23
aa(lp24
g17
(g10
S"\x84\x9e'\x9fh\xb1X?"
p25
tp26
Rp27
ag17
(g10
S'j\xfd\xb6\xfc\x03\x13h?'
p28
tp29
Rp30
aa(lp31
g17
(g10
S'\xf9O\x0f\x94\xe0\xb6\xe0?'
p32
tp33
Rp34
ag17
(g10
S'\xbf-=\xec\x85\xba\xe0?'
p35
tp36
Rp37
aatp38
.