(cnumpy.core.multiarray
_reconstruct
p0
(cnumpy
ndarray
p1
(I0
tp2
S'b'
p3
tp4
Rp5
(I1
(I3
tp6
cnumpy
dtype
p7
(S'f8'
p8
I0
I1
tp9
Rp10
(I3
S'<'
p11
NNNI-1
I-1
I0
tp12
bI00
S'\xd3q\xd7\x97\xc8oY@\xf9\xa7W\xb87"_?*\xc9\xdb\x07\xf4t\xe0?'
p13
tp14
b(lp15
(lp16
cnumpy.core.multiarray
scalar
p17
(g10
S'Vkr\x05\xd4\xcfS@'
p18
tp19
Rp20
ag17
(g10
S'Px<*\xbd\x0f_@'
p21
tp22
Rp23
aa(lp24
g17
(g10
S'\xe8s9\xec\x8b0C?'
p25
tp26
Rp27
ag17
(g10
S'\xffJI\xbd\x14Vj?'
p28
tp29
Rp30
aa(lp31
g17
(g10
S'\xe3\x0b\t]\x13q\xe0?'
p32
tp33
Rp34
ag17
(g10
S'q\x86\xae\xb2\xd4x\xe0?'
p35
tp36
Rp37
aatp38
.