(cnumpy.core.multiarray
_reconstruct
p0
(cnumpy
ndarray
p1
(I0
tp2
S'b'
p3
tp4
Rp5
(I1
(I3
tp6
cnumpy
dtype
p7
(S'f8'
p8
I0
I1
tp9
Rp10
(I3
S'<'
p11
NNNI-1
I-1
I0
tp12
bI00
S'\x16p\x0f\xdc\xc5_O@\xf9\xca5z \xb6\x80?\xae7\xf54S\xb7\xe0?'
p13
tp14
b(lp15
(lp16
cnumpy.core.multiarray
scalar
p17
(g10
S'\xc05~\xb5\xa8?L@'
p18
tp19
Rp20
ag17
(g10
S'6UP\x81\xf1?Q@'
p21
tp22
Rp23
aa(lp24
g17
(g10
S'\x91\xb0\x80\xf8\xadiz?'
p25
tp26
Rp27
ag17
(g10
S'\xaa=+\xf8i7\x84?'
p28
tp29
Rp30
aa(lp31
g17
(g10
S'c\xcc\xa3"c\xb6\xe0?'
p32
tp33
Rp34
ag17
(g10
S'\xf9\xa2FGC\xb8\xe0?'
p35
tp36
Rp37
aatp38
.