(cnumpy.core.multiarray
_reconstruct
p0
(cnumpy
ndarray
p1
(I0
tp2
S'b'
p3
tp4
Rp5
(I1
(I3
tp6
cnumpy
dtype
p7
(S'f8'
p8
I0
I1
tp9
Rp10
(I3
S'<'
p11
NNNI-1
I-1
I0
tp12
bI00
S'\xbd\xaaB+PIO@#J*\x93\xa12|?R\xa4f\xd6t\xb6\xe0?'
p13
tp14
b(lp15
(lp16
cnumpy.core.multiarray
scalar
p17
(g10
S'*\xa8\x82=6yL@'
p18
tp19
Rp20
ag17
(g10
S'\xa8V\x81\x0c\xb5\x0cQ@'
p21
tp22
Rp23
aa(lp24
g17
(g10
S'PzD\xdc}\xa8v?'
p25
tp26
Rp27
ag17
(g10
S'\xfb\x0c\x08\xa5b\xde\x80?'
p28
tp29
Rp30
aa(lp31
g17
(g10
S'bonh~\xb5\xe0?'
p32
tp33
Rp34
ag17
(g10
S'B\xd9^Dk\xb7\xe0?'
p35
tp36
Rp37
aatp38
.