(cnumpy.core.multiarray
_reconstruct
p0
(cnumpy
ndarray
p1
(I0
tp2
S'b'
p3
tp4
Rp5
(I1
(I3
tp6
cnumpy
dtype
p7
(S'f8'
p8
I0
I1
tp9
Rp10
(I3
S'<'
p11
NNNI-1
I-1
I0
tp12
bI00
S'\xe6\x9e\xda\x8c\xf5\x99Q@f\xfda\xdac\x7fx?\xcc\x0ef(\x9d\xb0\xe0?'
p13
tp14
b(lp15
(lp16
cnumpy.core.multiarray
scalar
p17
(g10
S'\x10\xb8\x01\xdb\x83\x8bL@'
p18
tp19
Rp20
ag17
(g10
S'\xc4a4,)\xeeT@'
p21
tp22
Rp23
aa(lp24
g17
(g10
S'}\xa0f]\xfe\x14l?'
p25
tp26
Rp27
ag17
(g10
S'GU\x08C$z\x81?'
p28
tp29
Rp30
aa(lp31
g17
(g10
S'\xdbM#0\x9d\xae\xe0?'
p32
tp33
Rp34
ag17
(g10
S'\xbd\xcf\xa8 \x9d\xb2\xe0?'
p35
tp36
Rp37
aatp38
.