(cnumpy.core.multiarray
_reconstruct
p0
(cnumpy
ndarray
p1
(I0
tp2
S'b'
p3
tp4
Rp5
(I1
(I3
tp6
cnumpy
dtype
p7
(S'f8'
p8
I0
I1
tp9
Rp10
(I3
S'<'
p11
NNNI-1
I-1
I0
tp12
bI00
S'J\x89s\t\xa7yO@\x98\xfb\xf59y\xa4\x7f?\xbc-Jx\x90\x9b\xe0?'
p13
tp14
b(lp15
(lp16
cnumpy.core.multiarray
scalar
p17
(g10
S't\xed\xcc\xd0\x99\x81L@'
p18
tp19
Rp20
ag17
(g10
S'\x90\x12\r!\xda8Q@'
p21
tp22
Rp23
aa(lp24
g17
(g10
S'u\xeeT8\xb6Hy?'
p25
tp26
Rp27
ag17
(g10
S'^\x84\xcb\x1d\x1e\x00\x83?'
p28
tp29
Rp30
aa(lp31
g17
(g10
S'\x8d\x897\xd7\xa2\x9a\xe0?'
p32
tp33
Rp34
ag17
(g10
S'\xeb\xd1\\\x19~\x9c\xe0?'
p35
tp36
Rp37
aatp38
.