(cnumpy.core.multiarray
_reconstruct
p0
(cnumpy
ndarray
p1
(I0
tp2
S'b'
p3
tp4
Rp5
(I1
(I3
tp6
cnumpy
dtype
p7
(S'f8'
p8
I0
I1
tp9
Rp10
(I3
S'<'
p11
NNNI-1
I-1
I0
tp12
bI00
S'-\x9a\x18\xb4\t\x18S@cx\x1b\xa2`pu?/E\x91\xff\xda\x9f\xe0?'
p13
tp14
b(lp15
(lp16
cnumpy.core.multiarray
scalar
p17
(g10
S'fP\xc0&#\xebP@'
p18
tp19
Rp20
ag17
(g10
S'\xf4\xe3pA\xf0DU@'
p21
tp22
Rp23
aa(lp24
g17
(g10
S'\xce\xcd\xb0u\x90~o?'
p25
tp26
Rp27
ag17
(g10
S'\xdf\x89^\ty!{?'
p28
tp29
Rp30
aa(lp31
g17
(g10
S'\xbc\x0c\xb6\xe3\x9f\x9e\xe0?'
p32
tp33
Rp34
ag17
(g10
S'\xa2}l\x1b\x16\xa1\xe0?'
p35
tp36
Rp37
aatp38
.