(cnumpy.core.multiarray
_reconstruct
p0
(cnumpy
ndarray
p1
(I0
tp2
S'b'
p3
tp4
Rp5
(I1
(I3
tp6
cnumpy
dtype
p7
(S'f8'
p8
I0
I1
tp9
Rp10
(I3
S'<'
p11
NNNI-1
I-1
I0
tp12
bI00
S'L\x96\x85rv\xdfO@\x90\xce\xc4\x1c\x19~w?O\x84\xa0\x11\x9c\xc1\xe0?'
p13
tp14
b(lp15
(lp16
cnumpy.core.multiarray
scalar
p17
(g10
S'EaS\\n@L@'
p18
tp19
Rp20
ag17
(g10
S'\xa9\xe5[D?\xbfQ@'
p21
tp22
Rp23
aa(lp24
g17
(g10
S'(\xdd\x015\xd7hq?'
p25
tp26
Rp27
ag17
(g10
S'\xf8\xbf\x87\x04[\x93}?'
p28
tp29
Rp30
aa(lp31
g17
(g10
S'`\xf6\xa9B?\xc0\xe0?'
p32
tp33
Rp34
ag17
(g10
S'>\x12\x97\xe0\xf8\xc2\xe0?'
p35
tp36
Rp37
aatp38
.