(cnumpy.core.multiarray
_reconstruct
p0
(cnumpy
ndarray
p1
(I0
tp2
S'b'
p3
tp4
Rp5
(I1
(I3
tp6
cnumpy
dtype
p7
(S'f8'
p8
I0
I1
tp9
Rp10
(I3
S'<'
p11
NNNI-1
I-1
I0
tp12
bI00
S'D\x02\xb5}\xd5UQ@[\xbf\xce>\xe9\xe8v?\x9c2l\xb3$\x98\xe0?'
p13
tp14
b(lp15
(lp16
cnumpy.core.multiarray
scalar
p17
(g10
S'\xb9.z\x9c\x1dbO@'
p18
tp19
Rp20
ag17
(g10
S'+\xed,-\x9c\xfaR@'
p21
tp22
Rp23
aa(lp24
g17
(g10
S'.\x96\x17b\xdd\xedq?'
p25
tp26
Rp27
ag17
(g10
S'\x88\xe8\x85\x1b\xf5\xe3{?'
p28
tp29
Rp30
aa(lp31
g17
(g10
S'\x1c\xee\xd6+\x11\x97\xe0?'
p32
tp33
Rp34
ag17
(g10
S'\x1cw\x01;8\x99\xe0?'
p35
tp36
Rp37
aatp38
.