(cnumpy.core.multiarray
_reconstruct
p0
(cnumpy
ndarray
p1
(I0
tp2
S'b'
p3
tp4
Rp5
(I1
(I3
tp6
cnumpy
dtype
p7
(S'f8'
p8
I0
I1
tp9
Rp10
(I3
S'<'
p11
NNNI-1
I-1
I0
tp12
bI00
S'\x04\xa5\xf7\xaf\xe4\xaaT@\xa4\xb7\xc9\rQ\xbah?\xff\x85a\x7f\x84\xa5\xe0?'
p13
tp14
b(lp15
(lp16
cnumpy.core.multiarray
scalar
p17
(g10
S'3vz~\x10\xdfR@'
p18
tp19
Rp20
ag17
(g10
S'\xd5\xd3t\xe1\xb8vV@'
p21
tp22
Rp23
aa(lp24
g17
(g10
S'\x94krD}\xecb?'
p25
tp26
Rp27
ag17
(g10
S'\xb4\x03!\xd7$\x88n?'
p28
tp29
Rp30
aa(lp31
g17
(g10
S'M\x80K\x9b6\xa4\xe0?'
p32
tp33
Rp34
ag17
(g10
S'\xb1\x8bwc\xd2\xa6\xe0?'
p35
tp36
Rp37
aatp38
.