(cnumpy.core.multiarray
_reconstruct
p0
(cnumpy
ndarray
p1
(I0
tp2
S'b'
p3
tp4
Rp5
(I1
(I3
tp6
cnumpy
dtype
p7
(S'f8'
p8
I0
I1
tp9
Rp10
(I3
S'<'
p11
NNNI-1
I-1
I0
tp12
bI00
S'\xff1\xec\xa3j\xaeT@;A\x14`d\xf2p?l5*O\x82\x98\xe0?'
p13
tp14
b(lp15
(lp16
cnumpy.core.multiarray
scalar
p17
(g10
S'\x02\xb0\xb0\x1bR\tQ@'
p18
tp19
Rp20
ag17
(g10
S"\xfc\xb3',\x83SX@"
p21
tp22
Rp23
aa(lp24
g17
(g10
S'\xf2\r\xcf\x83\xc0\x1dc?'
p25
tp26
Rp27
ag17
(g10
S'}\xfb@~\xe8Ux?'
p28
tp29
Rp30
aa(lp31
g17
(g10
S'<\x92E\xa6i\x96\xe0?'
p32
tp33
Rp34
ag17
(g10
S'\x9c\xd8\x0e\xf8\x9a\x9a\xe0?'
p35
tp36
Rp37
aatp38
.