(cnumpy.core.multiarray
_reconstruct
p0
(cnumpy
ndarray
p1
(I0
tp2
S'b'
p3
tp4
Rp5
(I1
(I3
tp6
cnumpy
dtype
p7
(S'f8'
p8
I0
I1
tp9
Rp10
(I3
S'<'
p11
NNNI-1
I-1
I0
tp12
bI00
S'qn\x92\x9c|#P@y\x11\xd4\xda\xd39x?#\xc0\xb5\x1d^\xa4\xe0?'
p13
tp14
b(lp15
(lp16
cnumpy.core.multiarray
scalar
p17
(g10
S'\x9f\t!K)\xfaL@'
p18
tp19
Rp20
ag17
(g10
S'\x12X\x94\x93\xe4\xc9Q@'
p21
tp22
Rp23
aa(lp24
g17
(g10
S'\x86\x1d/\x1a1\x9fr?'
p25
tp26
Rp27
ag17
(g10
S'l\x05y\x9bv\xd4}?'
p28
tp29
Rp30
aa(lp31
g17
(g10
S'\x1cy\x0c\xda,\xa3\xe0?'
p32
tp33
Rp34
ag17
(g10
S'*\x07_a\x8f\xa5\xe0?'
p35
tp36
Rp37
aatp38
.