(cnumpy.core.multiarray
_reconstruct
p0
(cnumpy
ndarray
p1
(I0
tp2
S'b'
p3
tp4
Rp5
(I1
(I3
tp6
cnumpy
dtype
p7
(S'f8'
p8
I0
I1
tp9
Rp10
(I3
S'<'
p11
NNNI-1
I-1
I0
tp12
bI00
S'\x01\x19`\x1e\xdb6N@\xe0\xba\xe4\x1aG\x0e\x81?D\xb7\xd9\x1f\xcc\x8a\xe0?'
p13
tp14
b(lp15
(lp16
cnumpy.core.multiarray
scalar
p17
(g10
S'w\xb7?\xff_\xb7I@'
p18
tp19
Rp20
ag17
(g10
S'E=\xc0\x1e+[Q@'
p21
tp22
Rp23
aa(lp24
g17
(g10
S'T\x1c&tvww?'
p25
tp26
Rp27
ag17
(g10
S'\x96g\xb6\xfb\xd2`\x86?'
p28
tp29
Rp30
aa(lp31
g17
(g10
S'\x8b<k\x04Y\x89\xe0?'
p32
tp33
Rp34
ag17
(g10
S'\xfd1H;?\x8c\xe0?'
p35
tp36
Rp37
aatp38
.