(cnumpy.core.multiarray
_reconstruct
p0
(cnumpy
ndarray
p1
(I0
tp2
S'b'
p3
tp4
Rp5
(I1
(I3
tp6
cnumpy
dtype
p7
(S'f8'
p8
I0
I1
tp9
Rp10
(I3
S'<'
p11
NNNI-1
I-1
I0
tp12
bI00
S'\xba\x07\x1c\xaa\xc4\x9dS@\xc3\xeb\xac\xfb\x0e\xean?\x01\xdbr%|\xa1\xe0?'
p13
tp14
b(lp15
(lp16
cnumpy.core.multiarray
scalar
p17
(g10
S'-\xb1\xb5\n-\xc2Q@'
p18
tp19
Rp20
ag17
(g10
S'G^\x82I\\yU@'
p21
tp22
Rp23
aa(lp24
g17
(g10
S'\x84\xbb\x1ej\xc9}g?'
p25
tp26
Rp27
ag17
(g10
S'\x01\x8e\x9dF*+s?'
p28
tp29
Rp30
aa(lp31
g17
(g10
S'=)U^7\xa0\xe0?'
p32
tp33
Rp34
ag17
(g10
S'\xc5\x8c\x90\xec\xc0\xa2\xe0?'
p35
tp36
Rp37
aatp38
.