(cnumpy.core.multiarray
_reconstruct
p0
(cnumpy
ndarray
p1
(I0
tp2
S'b'
p3
tp4
Rp5
(I1
(I3
tp6
cnumpy
dtype
p7
(S'f8'
p8
I0
I1
tp9
Rp10
(I3
S'<'
p11
NNNI-1
I-1
I0
tp12
bI00
S'\xc2[\x99\x91\x928W@S|\xbc\xb5s\xd9^?X=\xed\xf6+\x91\xe0?'
p13
tp14
b(lp15
(lp16
cnumpy.core.multiarray
scalar
p17
(g10
S'.\xa6\x9f|j5U@'
p18
tp19
Rp20
ag17
(g10
S'V\x11\x93\xa6\xba;Y@'
p21
tp22
Rp23
aa(lp24
g17
(g10
S'\xf0\x9c\xc3\xe7\x19vV?'
p25
tp26
Rp27
ag17
(g10
S'\xdb\xad\xda\xc1f\x9ec?'
p28
tp29
Rp30
aa(lp31
g17
(g10
S'\xfa$m\xf7\x81\x8f\xe0?'
p32
tp33
Rp34
ag17
(g10
S'\xb6Um\xf6\xd5\x92\xe0?'
p35
tp36
Rp37
aatp38
.