(cnumpy.core.multiarray
_reconstruct
p0
(cnumpy
ndarray
p1
(I0
tp2
S'b'
p3
tp4
Rp5
(I1
(I3
tp6
cnumpy
dtype
p7
(S'f8'
p8
I0
I1
tp9
Rp10
(I3
S'<'
p11
NNNI-1
I-1
I0
tp12
bI00
S'\xe7\xb8\xd3/\xb6\x8fP@\xd2:B\x8f\xc5\x05z?"0\xe5\xed4\xa9\xe0?'
p13
tp14
b(lp15
(lp16
cnumpy.core.multiarray
scalar
p17
(g10
S'\x02\x7f\x0b\xdcq\nN@'
p18
tp19
Rp20
ag17
(g10
S'M\xb2\xa1q3\x1aR@'
p21
tp22
Rp23
aa(lp24
g17
(g10
S'\xa6\xde\xf6>_\xa2t?'
p25
tp26
Rp27
ag17
(g10
S'\xfe\x96\x8d\xdf+i\x7f?'
p28
tp29
Rp30
aa(lp31
g17
(g10
S'\xa5\xaaXq4\xa8\xe0?'
p32
tp33
Rp34
ag17
(g10
S'\x9f\xb5qj5\xaa\xe0?'
p35
tp36
Rp37
aatp38
.