(cnumpy.core.multiarray
_reconstruct
p0
(cnumpy
ndarray
p1
(I0
tp2
S'b'
p3
tp4
Rp5
(I1
(I3
tp6
cnumpy
dtype
p7
(S'f8'
p8
I0
I1
tp9
Rp10
(I3
S'<'
p11
NNNI-1
I-1
I0
tp12
bI00
S"8:^?F\x9dS@CV\x0e\x99k'p?W-\x98\xa4k\x92\xe0?"
p13
tp14
b(lp15
(lp16
cnumpy.core.multiarray
scalar
p17
(g10
S'6\xff:\x04\x97\xa1Q@'
p18
tp19
Rp20
ag17
(g10
S':u\x81z\xf5\x98U@'
p21
tp22
Rp23
aa(lp24
g17
(g10
S"@l'\xd3\xc2\x1fh?"
p25
tp26
Rp27
ag17
(g10
S'f\xf6\x88\xc8\xf5>t?'
p28
tp29
Rp30
aa(lp31
g17
(g10
S'\x1f\x86\x88\xc6\x1a\x91\xe0?'
p32
tp33
Rp34
ag17
(g10
S'\x8f\xd4\xa7\x82\xbc\x93\xe0?'
p35
tp36
Rp37
aatp38
.