(cnumpy.core.multiarray
_reconstruct
p0
(cnumpy
ndarray
p1
(I0
tp2
S'b'
p3
tp4
Rp5
(I1
(I3
tp6
cnumpy
dtype
p7
(S'f8'
p8
I0
I1
tp9
Rp10
(I3
S'<'
p11
NNNI-1
I-1
I0
tp12
bI00
S'\x06\x01\xf5\xa8j\x03M@\xf2~\x10{"\x05\x84?>\xec\xfde\x01\xa5\xe0?'
p13
tp14
b(lp15
(lp16
cnumpy.core.multiarray
scalar
p17
(g10
S'G]\xc9\xab\x15PI@'
p18
tp19
Rp20
ag17
(g10
S'bR\x10\xd3_[P@'
p21
tp22
Rp23
aa(lp24
g17
(g10
S'\x1e\xf9\x0bn{\xaf}?'
p25
tp26
Rp27
ag17
(g10
S'U\x01\x1b?\x872\x89?'
p28
tp29
Rp30
aa(lp31
g17
(g10
S'B\xd63a\xdd\xa3\xe0?'
p32
tp33
Rp34
ag17
(g10
S':\x02\xc8j%\xa6\xe0?'
p35
tp36
Rp37
aatp38
.