(cnumpy.core.multiarray
_reconstruct
p0
(cnumpy
ndarray
p1
(I0
tp2
S'b'
p3
tp4
Rp5
(I1
(I3
tp6
cnumpy
dtype
p7
(S'f8'
p8
I0
I1
tp9
Rp10
(I3
S'<'
p11
NNNI-1
I-1
I0
tp12
bI00
S'%\x07\x10,\xecnQ@\x9f\x0f\x98c|lt?\xc5%,^5\x9d\xe0?'
p13
tp14
b(lp15
(lp16
cnumpy.core.multiarray
scalar
p17
(g10
S'\xceT\xcb\x10W\xc2O@'
p18
tp19
Rp20
ag17
(g10
S'\xe3c\xba\xcf\xac\xfcR@'
p21
tp22
Rp23
aa(lp24
g17
(g10
S'\xc0\xaf\xa6\x1f\xbc!p?'
p25
tp26
Rp27
ag17
(g10
S'~o\x89\xa7<\xb7x?'
p28
tp29
Rp30
aa(lp31
g17
(g10
S'!_\x06b\x1d\x9c\xe0?'
p32
tp33
Rp34
ag17
(g10
S'i\xecQZM\x9e\xe0?'
p35
tp36
Rp37
aatp38
.