(cnumpy.core.multiarray
_reconstruct
p0
(cnumpy
ndarray
p1
(I0
tp2
S'b'
p3
tp4
Rp5
(I1
(I3
tp6
cnumpy
dtype
p7
(S'f8'
p8
I0
I1
tp9
Rp10
(I3
S'<'
p11
NNNI-1
I-1
I0
tp12
bI00
S'\'Wb\x10\x14"T@4\xb8,\x8dq\x1di?Ky\xd3\x1b\xbe\x95\xe0?'
p13
tp14
b(lp15
(lp16
cnumpy.core.multiarray
scalar
p17
(g10
S'\xfd<\xc5\xfc\xbc\xbbQ@'
p18
tp19
Rp20
ag17
(g10
S'Qq\xff#k\x88V@'
p21
tp22
Rp23
aa(lp24
g17
(g10
S'\x16\x96#\\<\x11a?'
p25
tp26
Rp27
ag17
(g10
S')\xed\x1a_\xd3\x94p?'
p28
tp29
Rp30
aa(lp31
g17
(g10
S'p\xc0\xef\xa0\xeb\x93\xe0?'
p32
tp33
Rp34
ag17
(g10
S'&2\xb7\x96\x90\x97\xe0?'
p35
tp36
Rp37
aatp38
.