(cnumpy.core.multiarray
_reconstruct
p0
(cnumpy
ndarray
p1
(I0
tp2
S'b'
p3
tp4
Rp5
(I1
(I3
tp6
cnumpy
dtype
p7
(S'f8'
p8
I0
I1
tp9
Rp10
(I3
S'<'
p11
NNNI-1
I-1
I0
tp12
bI00
S'\x10@3\x144\xc6Q@\x9d\xfb\xb9\xc9\xfe\xf5|?Yq+dN\x9e\xe0?'
p13
tp14
b(lp15
(lp16
cnumpy.core.multiarray
scalar
p17
(g10
S'=\xb3&Z[,K@'
p18
tp19
Rp20
ag17
(g10
S'\x82&S{:\xf6U@'
p21
tp22
Rp23
aa(lp24
g17
(g10
S'\x85~\xee\x84\xc5Fl?'
p25
tp26
Rp27
ag17
(g10
S'\xfc[~hM\xe4\x85?'
p28
tp29
Rp30
aa(lp31
g17
(g10
S'F\xcc\xc7\xa3\x1d\x9c\xe0?'
p32
tp33
Rp34
ag17
(g10
S'l\x16\x8f$\x7f\xa0\xe0?'
p35
tp36
Rp37
aatp38
.