(cnumpy.core.multiarray
_reconstruct
p0
(cnumpy
ndarray
p1
(I0
tp2
S'b'
p3
tp4
Rp5
(I1
(I3
tp6
cnumpy
dtype
p7
(S'f8'
p8
I0
I1
tp9
Rp10
(I3
S'<'
p11
NNNI-1
I-1
I0
tp12
bI00
S'\x1c\x9f\x0ev\xaa}Q@\xff>\rI\xa7\x1cv?\x9c\xc2y\xa4\x13\xb7\xe0?'
p13
tp14
b(lp15
(lp16
cnumpy.core.multiarray
scalar
p17
(g10
S'>iTa\xfb\xfbN@'
p18
tp19
Rp20
ag17
(g10
S'\x99\ts;W}S@'
p21
tp22
Rp23
aa(lp24
g17
(g10
S'\xf6o\x93\xce\xc4Dp?'
p25
tp26
Rp27
ag17
(g10
S'\x08\x0e\x87\xc3\x89\xf4{?'
p28
tp29
Rp30
aa(lp31
g17
(g10
S'W=\x01q\xc4\xb5\xe0?'
p32
tp33
Rp34
ag17
(g10
S'\xe1G\xf2\xd7b\xb8\xe0?'
p35
tp36
Rp37
aatp38
.