(cnumpy.core.multiarray
_reconstruct
p0
(cnumpy
ndarray
p1
(I0
tp2
S'b'
p3
tp4
Rp5
(I1
(I3
tp6
cnumpy
dtype
p7
(S'f8'
p8
I0
I1
tp9
Rp10
(I3
S'<'
p11
NNNI-1
I-1
I0
tp12
bI00
S'\xaf\xdfU7~\x97V@\xca\xc2\xa2\xd0\xa5\xa9\\?c3~%\xc2\xf0\xe0?'
p13
tp14
b(lp15
(lp16
cnumpy.core.multiarray
scalar
p17
(g10
S'b\x10=\xe8<\xcfR@'
p18
tp19
Rp20
ag17
(g10
S'\xfc\xaen\x86\xbf_Z@'
p21
tp22
Rp23
aa(lp24
g17
(g10
S'\xf7q\xac.\xbdpJ?'
p25
tp26
Rp27
ag17
(g10
S'L\xa6\xf7\x84v\rf?'
p28
tp29
Rp30
aa(lp31
g17
(g10
S'\x17gi\xdcX\xed\xe0?'
p32
tp33
Rp34
ag17
(g10
S'\xaf\xff\x92n+\xf4\xe0?'
p35
tp36
Rp37
aatp38
.