(cnumpy.core.multiarray
_reconstruct
p0
(cnumpy
ndarray
p1
(I0
tp2
S'b'
p3
tp4
Rp5
(I1
(I3
tp6
cnumpy
dtype
p7
(S'f8'
p8
I0
I1
tp9
Rp10
(I3
S'<'
p11
NNNI-1
I-1
I0
tp12
bI00
S'\xe2\xc8B\xac(3R@\xd2\x0fXq`go?\x972b*\x9b\x99\xe0?'
p13
tp14
b(lp15
(lp16
cnumpy.core.multiarray
scalar
p17
(g10
S'\xfa\xf7%e\x84\x8eP@'
p18
tp19
Rp20
ag17
(g10
S'\xca\x99_\xf3\xcc\xd7S@'
p21
tp22
Rp23
aa(lp24
g17
(g10
S'fN\xdb\xbe9?h?'
p25
tp26
Rp27
ag17
(g10
S'\x9fh\xea\x91\xc3Gs?'
p28
tp29
Rp30
aa(lp31
g17
(g10
S'.\xf2c\xb7P\x98\xe0?'
p32
tp33
Rp34
ag17
(g10
S'\x00s`\x9d\xe5\x9a\xe0?'
p35
tp36
Rp37
aatp38
.