(cnumpy.core.multiarray
_reconstruct
p0
(cnumpy
ndarray
p1
(I0
tp2
S'b'
p3
tp4
Rp5
(I1
(I3
tp6
cnumpy
dtype
p7
(S'f8'
p8
I0
I1
tp9
Rp10
(I3
S'<'
p11
NNNI-1
I-1
I0
tp12
bI00
S'Y\x80r\xbdR\nP@I\xe8\x08\xc5)j|?\xa6\xf9R\xca-\xc2\xe0?'
p13
tp14
b(lp15
(lp16
cnumpy.core.multiarray
scalar
p17
(g10
S'#\x91\x06\xf2\xb0\xd6L@'
p18
tp19
Rp20
ag17
(g10
S' \xb8\xe1\x01M\xa9Q@'
p21
tp22
Rp23
aa(lp24
g17
(g10
S'\x0f\xe2\xf4\xf7\x96&v?'
p25
tp26
Rp27
ag17
(g10
S'Bw\x0eI\xdeV\x81?'
p28
tp29
Rp30
aa(lp31
g17
(g10
S'z\x19o\xfa!\xc1\xe0?'
p32
tp33
Rp34
ag17
(g10
S'\xd2\xd96\x9a9\xc3\xe0?'
p35
tp36
Rp37
aatp38
.