(cnumpy.core.multiarray
_reconstruct
p0
(cnumpy
ndarray
p1
(I0
tp2
S'b'
p3
tp4
Rp5
(I1
(I3
tp6
cnumpy
dtype
p7
(S'f8'
p8
I0
I1
tp9
Rp10
(I3
S'<'
p11
NNNI-1
I-1
I0
tp12
bI00
S'Cu\xbcen\xf5S@\xd4\xd1\xa1\xbdzZa?\x16\x03\x88\xff$\x9a\xe0?'
p13
tp14
b(lp15
(lp16
cnumpy.core.multiarray
scalar
p17
(g10
S'G\xee<*\xdd^R@'
p18
tp19
Rp20
ag17
(g10
S'?\xfc;\xa1\xff\x8bU@'
p21
tp22
Rp23
aa(lp24
g17
(g10
S'5\x0c\xa1}\x91aZ?'
p25
tp26
Rp27
ag17
(g10
S'\x8e\x1ds\xbc,\x84e?'
p28
tp29
Rp30
aa(lp31
g17
(g10
S'O\xa9\xd52\x86\x98\xe0?'
p32
tp33
Rp34
ag17
(g10
S'\xdd\\:\xcc\xc3\x9b\xe0?'
p35
tp36
Rp37
aatp38
.