(cnumpy.core.multiarray
_reconstruct
p0
(cnumpy
ndarray
p1
(I0
tp2
S'b'
p3
tp4
Rp5
(I1
(I3
tp6
cnumpy
dtype
p7
(S'f8'
p8
I0
I1
tp9
Rp10
(I3
S'<'
p11
NNNI-1
I-1
I0
tp12
bI00
S'{\\$\x01\xd0\xf9P@3\xf6z~\xf7Q{?Q\xa56\x0e\xf9\xa4\xe0?'
p13
tp14
b(lp15
(lp16
cnumpy.core.multiarray
scalar
p17
(g10
S'\x1e\xfd\xaeT\x1d\x7fM@'
p18
tp19
Rp20
ag17
(g10
S'g:\xf1W\x114S@'
p21
tp22
Rp23
aa(lp24
g17
(g10
S' X&\x16\x1cns?'
p25
tp26
Rp27
ag17
(g10
S'#\xcags\xe9\x9a\x81?'
p28
tp29
Rp30
aa(lp31
g17
(g10
S'>v#@\xa4\xa3\xe0?'
p32
tp33
Rp34
ag17
(g10
S'd\xd4I\xdcM\xa6\xe0?'
p35
tp36
Rp37
aatp38
.