(cnumpy.core.multiarray
_reconstruct
p0
(cnumpy
ndarray
p1
(I0
tp2
S'b'
p3
tp4
Rp5
(I1
(I3
tp6
cnumpy
dtype
p7
(S'f8'
p8
I0
I1
tp9
Rp10
(I3
S'<'
p11
NNNI-1
I-1
I0
tp12
bI00
S'\xba\x11f\xa2\xb7\xdfO@\xa4\\\xd7A\xbavy?U)tU\x1d\x99\xe0?'
p13
tp14
b(lp15
(lp16
cnumpy.core.multiarray
scalar
p17
(g10
S'\x97!V\xe8\xfc\x8aL@'
p18
tp19
Rp20
ag17
(g10
S'\xef\x00;.9\x9aQ@'
p21
tp22
Rp23
aa(lp24
g17
(g10
S'V\x8a\x11\x893\x83s?'
p25
tp26
Rp27
ag17
(g10
S'\xf2.\x9d\xfa@j\x7f?'
p28
tp29
Rp30
aa(lp31
g17
(g10
S'\x1dxO\xe8\xeb\x97\xe0?'
p32
tp33
Rp34
ag17
(g10
S'\x8d\xda\x98\xc2N\x9a\xe0?'
p35
tp36
Rp37
aatp38
.