(cnumpy.core.multiarray
_reconstruct
p0
(cnumpy
ndarray
p1
(I0
tp2
S'b'
p3
tp4
Rp5
(I1
(I3
tp6
cnumpy
dtype
p7
(S'f8'
p8
I0
I1
tp9
Rp10
(I3
S'<'
p11
NNNI-1
I-1
I0
tp12
bI00
S"^\xcdZ\xd9=2Q@\x07'm\xc7\x02\xbao?\xe4\xeb|\xfb\xeb\xb6\xe0?"
p13
tp14
b(lp15
(lp16
cnumpy.core.multiarray
scalar
p17
(g10
S'\x1e\xa4B:\xf2RO@'
p18
tp19
Rp20
ag17
(g10
S'\xadH\x94\x95\x02\xbbR@'
p21
tp22
Rp23
aa(lp24
g17
(g10
S'\xb2\xf3\xc1\x98?}h?'
p25
tp26
Rp27
ag17
(g10
S'.-\x0c\xfbb{s?'
p28
tp29
Rp30
aa(lp31
g17
(g10
S'\x9aD\x9dn\x8d\xb5\xe0?'
p32
tp33
Rp34
ag17
(g10
S'.\x93\\\x88J\xb8\xe0?'
p35
tp36
Rp37
aatp38
.