(cnumpy.core.multiarray
_reconstruct
p0
(cnumpy
ndarray
p1
(I0
tp2
S'b'
p3
tp4
Rp5
(I1
(I3
tp6
cnumpy
dtype
p7
(S'f8'
p8
I0
I1
tp9
Rp10
(I3
S'<'
p11
NNNI-1
I-1
I0
tp12
bI00
S"\xf8\x7f\xc4&\xb5\xc4[@~\x15\xdd\xf6\xf1Y-?\xdb\xa5\x81'\xe5\x9b\xe0?"
p13
tp14
b(lp15
(lp16
cnumpy.core.multiarray
scalar
p17
(g10
S'7JZ\x01y\x9fY@'
p18
tp19
Rp20
ag17
(g10
S'\xb9\xb5.L\xf1\xe9]@'
p21
tp22
Rp23
aa(lp24
g17
(g10
S'\x16pC\xb8f\x9b(?'
p25
tp26
Rp27
ag17
(g10
S's]\xbb\x9a>\x0c1?'
p28
tp29
Rp30
aa(lp31
g17
(g10
S'\xb8\x08\xfaaI\x98\xe0?'
p32
tp33
Rp34
ag17
(g10
S'\xfeB\t\xed\x80\x9f\xe0?'
p35
tp36
Rp37
aatp38
.