(cnumpy.core.multiarray
_reconstruct
p0
(cnumpy
ndarray
p1
(I0
tp2
S'b'
p3
tp4
Rp5
(I1
(I3
tp6
cnumpy
dtype
p7
(S'f8'
p8
I0
I1
tp9
Rp10
(I3
S'<'
p11
NNNI-1
I-1
I0
tp12
bI00
S'\xe2\x10v\xe6\xd2\x08R@\xfbp\xa4XF\xeci?\x07P\xd1#\xac\xaf\xe0?'
p13
tp14
b(lp15
(lp16
cnumpy.core.multiarray
scalar
p17
(g10
S'`\xf0$\x1aK\xddP@'
p18
tp19
Rp20
ag17
(g10
S'd1\xc7\xb2Z4S@'
p21
tp22
Rp23
aa(lp24
g17
(g10
S'x0\x00\xf1\xb4Ze?'
p25
tp26
Rp27
ag17
(g10
S'~\xb1H\xc0\xd7}n?'
p28
tp29
Rp30
aa(lp31
g17
(g10
S'\x02\xcd\xe2\xe7\x8c\xae\xe0?'
p32
tp33
Rp34
ag17
(g10
S'\x0c\xd3\xbf_\xcb\xb0\xe0?'
p35
tp36
Rp37
aatp38
.