(cnumpy.core.multiarray
_reconstruct
p0
(cnumpy
ndarray
p1
(I0
tp2
S'b'
p3
tp4
Rp5
(I1
(I3
tp6
cnumpy
dtype
p7
(S'f8'
p8
I0
I1
tp9
Rp10
(I3
S'<'
p11
NNNI-1
I-1
I0
tp12
bI00
S'J,9\x17\x07\xafN@3\x03\xa2\r\xdcuk?#\xb3\x9f\xef\xdc\xaf\xe0?'
p13
tp14
b(lp15
(lp16
cnumpy.core.multiarray
scalar
p17
(g10
S'\x18\xff\x9f^\xa3ZI@'
p18
tp19
Rp20
ag17
(g10
S'\xbe,\xe9g\xb5\x01R@'
p21
tp22
Rp23
aa(lp24
g17
(g10
S'1b!q<\x95]?'
p25
tp26
Rp27
ag17
(g10
S'\xa7\xaaY\xf1\x8c\x10t?'
p28
tp29
Rp30
aa(lp31
g17
(g10
S'\x92\x9c^\xad\x8c\xac\xe0?'
p32
tp33
Rp34
ag17
(g10
S'\xb4\xc9\xe01-\xb3\xe0?'
p35
tp36
Rp37
aatp38
.