(cnumpy.core.multiarray
_reconstruct
p0
(cnumpy
ndarray
p1
(I0
tp2
S'b'
p3
tp4
Rp5
(I1
(I3
tp6
cnumpy
dtype
p7
(S'f8'
p8
I0
I1
tp9
Rp10
(I3
S'<'
p11
NNNI-1
I-1
I0
tp12
bI00
S'\xf9\xbc\x1a\xf2\xc2\xa0S@5e\xf8nC\x9ed?\x99\xf7BC\xda\xaf\xe0?'
p13
tp14
b(lp15
(lp16
cnumpy.core.multiarray
scalar
p17
(g10
S'\x8a\xa4\xf1Y{\x14S@'
p18
tp19
Rp20
ag17
(g10
S'h\xd5C\x8a\n-T@'
p21
tp22
Rp23
aa(lp24
g17
(g10
S':V\xb4Q\x0e\xf4b?'
p25
tp26
Rp27
ag17
(g10
S'0t<\x8cxHf?'
p28
tp29
Rp30
aa(lp31
g17
(g10
S'\x1b6\xa9jU\xaf\xe0?'
p32
tp33
Rp34
ag17
(g10
S'\x17\xb9\xdc\x1b_\xb0\xe0?'
p35
tp36
Rp37
aatp38
.