(cnumpy.core.multiarray
_reconstruct
p0
(cnumpy
ndarray
p1
(I0
tp2
S'b'
p3
tp4
Rp5
(I1
(I3
tp6
cnumpy
dtype
p7
(S'f8'
p8
I0
I1
tp9
Rp10
(I3
S'<'
p11
NNNI-1
I-1
I0
tp12
bI00
S'\xf7\x893\x07\xd7\nR@k\xb0\xcc\xa8>Uo?=!;\xe4\xc9\xb2\xe0?'
p13
tp14
b(lp15
(lp16
cnumpy.core.multiarray
scalar
p17
(g10
S'\xd0S\xbc\x94\xdd\x07P@'
p18
tp19
Rp20
ag17
(g10
S'\x1e\xc0\xaay\xd0\rT@'
p21
tp22
Rp23
aa(lp24
g17
(g10
S'\x00Y\xe7@\x8a^f?'
p25
tp26
Rp27
ag17
(g10
S'\xeb\x03Y\x88\xf9%t?'
p28
tp29
Rp30
aa(lp31
g17
(g10
S'1\xac\xde\xe9&\xb1\xe0?'
p32
tp33
Rp34
ag17
(g10
S'I\x96\x97\xdel\xb4\xe0?'
p35
tp36
Rp37
aatp38
.