(cnumpy.core.multiarray
_reconstruct
p0
(cnumpy
ndarray
p1
(I0
tp2
S'b'
p3
tp4
Rp5
(I1
(I3
tp6
cnumpy
dtype
p7
(S'f8'
p8
I0
I1
tp9
Rp10
(I3
S'<'
p11
NNNI-1
I-1
I0
tp12
bI00
S'>NJ0\x08\x05T@b{\xc3uo\xf3a?\xa5\x04a\xe9\t\xb0\xe0?'
p13
tp14
b(lp15
(lp16
cnumpy.core.multiarray
scalar
p17
(g10
S'J\x9fKb\x93VS@'
p18
tp19
Rp20
ag17
(g10
S'2\xfdH\xfe|\xb3T@'
p21
tp22
Rp23
aa(lp24
g17
(g10
S'x\xc9\xa8p\n\x1b`?'
p25
tp26
Rp27
ag17
(g10
S'L-\xdez\xd4\xcbc?'
p28
tp29
Rp30
aa(lp31
g17
(g10
S'\xd4$0\x1eZ\xaf\xe0?'
p32
tp33
Rp34
ag17
(g10
S'v\xe4\x91\xb4\xb9\xb0\xe0?'
p35
tp36
Rp37
aatp38
.