(cnumpy.core.multiarray
_reconstruct
p0
(cnumpy
ndarray
p1
(I0
tp2
S'b'
p3
tp4
Rp5
(I1
(I3
tp6
cnumpy
dtype
p7
(S'f8'
p8
I0
I1
tp9
Rp10
(I3
S'<'
p11
NNNI-1
I-1
I0
tp12
bI00
S'\xd7\x18+\xb6\x94\x18P@,\x1c)70\x9bs?\xeczG\xbd3\xb1\xe0?'
p13
tp14
b(lp15
(lp16
cnumpy.core.multiarray
scalar
p17
(g10
S'\xb2\x08\xc8\x8cH\xc0M@'
p18
tp19
Rp20
ag17
(g10
S'U-\xf2%\x05QQ@'
p21
tp22
Rp23
aa(lp24
g17
(g10
S'C\xa4\xc5\xe6\x15\x02p?'
p25
tp26
Rp27
ag17
(g10
S'\x15\x94\x8c\x87J4w?'
p28
tp29
Rp30
aa(lp31
g17
(g10
S'\x12-\xb9\n$\xb0\xe0?'
p32
tp33
Rp34
ag17
(g10
S'\xc6\xc8\xd5oC\xb2\xe0?'
p35
tp36
Rp37
aatp38
.