(cnumpy.core.multiarray
_reconstruct
p0
(cnumpy
ndarray
p1
(I0
tp2
S'b'
p3
tp4
Rp5
(I1
(I3
tp6
cnumpy
dtype
p7
(S'f8'
p8
I0
I1
tp9
Rp10
(I3
S'<'
p11
NNNI-1
I-1
I0
tp12
bI00
S'\x18x"p\xe1IU@#`s\xeb\xd6~Z?\xe2.\x96\xcf\r\xa9\xe0?'
p13
tp14
b(lp15
(lp16
cnumpy.core.multiarray
scalar
p17
(g10
S'\xa7\x16S<)\xfcQ@'
p18
tp19
Rp20
ag17
(g10
S'\x89\xd9\xf1\xa3\x99\x97X@'
p21
tp22
Rp23
aa(lp24
g17
(g10
S'\xb9\xb3\x81_5eI?'
p25
tp26
Rp27
ag17
(g10
S'5\xf3\x92\x93\x89%d?'
p28
tp29
Rp30
aa(lp31
g17
(g10
S'`\xea\xed\xb1O\xa5\xe0?'
p32
tp33
Rp34
ag17
(g10
S'ds>\xed\xcb\xac\xe0?'
p35
tp36
Rp37
aatp38
.