(cnumpy.core.multiarray
_reconstruct
p0
(cnumpy
ndarray
p1
(I0
tp2
S'b'
p3
tp4
Rp5
(I1
(I3
tp6
cnumpy
dtype
p7
(S'f8'
p8
I0
I1
tp9
Rp10
(I3
S'<'
p11
NNNI-1
I-1
I0
tp12
bI00
S's)U\x9e\xbe\xecR@->\xee;^\xc9g?\x14A\xce\xf7y\xaf\xe0?'
p13
tp14
b(lp15
(lp16
cnumpy.core.multiarray
scalar
p17
(g10
S'\xdc\xbaR\xa0\x0f\xb2R@'
p18
tp19
Rp20
ag17
(g10
S"\n\x98W\x9cm'S@"
p21
tp22
Rp23
aa(lp24
g17
(g10
S'\xff\x85\x99=^\xa9g?'
p25
tp26
Rp27
ag17
(g10
S'[\xf6B:^\xe9g?'
p28
tp29
Rp30
aa(lp31
g17
(g10
S'\x85\xf8\x13h2\xaf\xe0?'
p32
tp33
Rp34
ag17
(g10
S'\xa3\x89\x88\x87\xc1\xaf\xe0?'
p35
tp36
Rp37
aatp38
.