(cnumpy.core.multiarray
_reconstruct
p0
(cnumpy
ndarray
p1
(I0
tp2
S'b'
p3
tp4
Rp5
(I1
(I3
tp6
cnumpy
dtype
p7
(S'f8'
p8
I0
I1
tp9
Rp10
(I3
S'<'
p11
NNNI-1
I-1
I0
tp12
bI00
S'q\xb8-a\x87\x8eQ@\xd5\x17\x12\x87zcj?\x13\xf6^TO\xaf\xe0?'
p13
tp14
b(lp15
(lp16
cnumpy.core.multiarray
scalar
p17
(g10
S'M\xb7\xe6^\xe2\xeeP@'
p18
tp19
Rp20
ag17
(g10
S'\x95\xb9tc,.R@'
p21
tp22
Rp23
aa(lp24
g17
(g10
S'b\xf8\xe1\xe3\x1c\xdeg?'
p25
tp26
Rp27
ag17
(g10
S'H7B*\xd8\xe8l?'
p28
tp29
Rp30
aa(lp31
g17
(g10
S'\x0e\xf09\x99\xb1\xae\xe0?'
p32
tp33
Rp34
ag17
(g10
S'\x18\xfc\x83\x0f\xed\xaf\xe0?'
p35
tp36
Rp37
aatp38
.