(cnumpy.core.multiarray
_reconstruct
p0
(cnumpy
ndarray
p1
(I0
tp2
S'b'
p3
tp4
Rp5
(I1
(I3
tp6
cnumpy
dtype
p7
(S'f8'
p8
I0
I1
tp9
Rp10
(I3
S'<'
p11
NNNI-1
I-1
I0
tp12
bI00
S'e\xcf<I\x8f\xfdR@fO\xcb\x03i\xabf?X\xb6iel\xaf\xe0?'
p13
tp14
b(lp15
(lp16
cnumpy.core.multiarray
scalar
p17
(g10
S'\xa1\xfe\x94\xab\xa3\x88R@'
p18
tp19
Rp20
ag17
(g10
S')\xa0\xe4\xe6zrS@'
p21
tp22
Rp23
aa(lp24
g17
(g10
S'a\x7f\xf3LU#e?'
p25
tp26
Rp27
ag17
(g10
S'k\x1f\xa3\xba|3h?'
p28
tp29
Rp30
aa(lp31
g17
(g10
S'\x9d\xcf\xe4G\xfe\xae\xe0?'
p32
tp33
Rp34
ag17
(g10
S'\x13\x9d\xee\x82\xda\xaf\xe0?'
p35
tp36
Rp37
aatp38
.