(cnumpy.core.multiarray
_reconstruct
p0
(cnumpy
ndarray
p1
(I0
tp2
S'b'
p3
tp4
Rp5
(I1
(I3
tp6
cnumpy
dtype
p7
(S'f8'
p8
I0
I1
tp9
Rp10
(I3
S'<'
p11
NNNI-1
I-1
I0
tp12
bI00
S'\x05F\x81\x8c\x11/R@\xdf\x82wxH\xcfi?\x96>\x0cw\xd8\xac\xe0?'
p13
tp14
b(lp15
(lp16
cnumpy.core.multiarray
scalar
p17
(g10
S'\x04\xa8\xaf`-DQ@'
p18
tp19
Rp20
ag17
(g10
S'\x06\xe4R\xb8\xf5\x19S@'
p21
tp22
Rp23
aa(lp24
g17
(g10
S'\xb0\x90Ut\x82If?'
p25
tp26
Rp27
ag17
(g10
S'\x0eu\x99|\x0eUm?'
p28
tp29
Rp30
aa(lp31
g17
(g10
S'\xf6\xf5\xb8\xcb\xfd\xab\xe0?'
p32
tp33
Rp34
ag17
(g10
S'6\x87_"\xb3\xad\xe0?'
p35
tp36
Rp37
aatp38
.