(cnumpy.core.multiarray
_reconstruct
p0
(cnumpy
ndarray
p1
(I0
tp2
S'b'
p3
tp4
Rp5
(I1
(I3
tp6
cnumpy
dtype
p7
(S'f8'
p8
I0
I1
tp9
Rp10
(I3
S'<'
p11
NNNI-1
I-1
I0
tp12
bI00
S'\xe0n\xac^\xfa\xb3R@\x0c/M\x1f\x8d\x8ch?\x7f\x87J\x82\xd5\xaf\xe0?'
p13
tp14
b(lp15
(lp16
cnumpy.core.multiarray
scalar
p17
(g10
S'\xec\x10{#\xb19R@'
p18
tp19
Rp20
ag17
(g10
S'\xd4\xcc\xdd\x99C.S@'
p21
tp22
Rp23
aa(lp24
g17
(g10
S'+\xadUgV\xd4f?'
p25
tp26
Rp27
ag17
(g10
S'\xed\xb0D\xd7\xc3Dj?'
p28
tp29
Rp30
aa(lp31
g17
(g10
S'\xe9=\xc7\xc9e\xaf\xe0?'
p32
tp33
Rp34
ag17
(g10
S'\x15\xd1\xcd:E\xb0\xe0?'
p35
tp36
Rp37
aatp38
.