(cnumpy.core.multiarray
_reconstruct
p0
(cnumpy
ndarray
p1
(I0
tp2
S'b'
p3
tp4
Rp5
(I1
(I3
tp6
cnumpy
dtype
p7
(S'f8'
p8
I0
I1
tp9
Rp10
(I3
S'<'
p11
NNNI-1
I-1
I0
tp12
bI00
S'Q\xf0\xa5pw.S@pG\x17\xccF\x9ff?\x98H\x06\xea\x9f\xb0\xe0?'
p13
tp14
b(lp15
(lp16
cnumpy.core.multiarray
scalar
p17
(g10
S'\x9d\x91\xb0\xca^\x83R@'
p18
tp19
Rp20
ag17
(g10
S'\x05O\x9b\x16\x90\xd9S@'
p21
tp22
Rp23
aa(lp24
g17
(g10
S'w\xc8\xb3\xc6{hd?'
p25
tp26
Rp27
ag17
(g10
S'i\xc6z\xd1\x11\xd6h?'
p28
tp29
Rp30
aa(lp31
g17
(g10
S'\x99\x83Rh\x02\xb0\xe0?'
p32
tp33
Rp34
ag17
(g10
S'\x97\r\xbak=\xb1\xe0?'
p35
tp36
Rp37
aatp38
.