(cnumpy.core.multiarray
_reconstruct
p0
(cnumpy
ndarray
p1
(I0
tp2
S'b'
p3
tp4
Rp5
(I1
(I3
tp6
cnumpy
dtype
p7
(S'f8'
p8
I0
I1
tp9
Rp10
(I3
S'<'
p11
NNNI-1
I-1
I0
tp12
bI00
S'6\nj\x12\xe3kT@\xad\xe6\x86\xe4\x88\xff`?\xe6,\xae\x85\xc8\xaa\xe0?'
p13
tp14
b(lp15
(lp16
cnumpy.core.multiarray
scalar
p17
(g10
S'\xfdoX)\xa2\x84S@'
p18
tp19
Rp20
ag17
(g10
S'o\xa4{\xfb#SU@'
p21
tp22
Rp23
aa(lp24
g17
(g10
S'\x1a\xd6k\x1e\x83^]?'
p25
tp26
Rp27
ag17
(g10
S'M\xe2\xd79\xd0Oc?'
p28
tp29
Rp30
aa(lp31
g17
(g10
S'\x87N\xf1e\xde\xa9\xe0?'
p32
tp33
Rp34
ag17
(g10
S'E\x0bk\xa5\xb2\xab\xe0?'
p35
tp36
Rp37
aatp38
.