(cnumpy.core.multiarray
_reconstruct
p0
(cnumpy
ndarray
p1
(I0
tp2
S'b'
p3
tp4
Rp5
(I1
(I3
tp6
cnumpy
dtype
p7
(S'f8'
p8
I0
I1
tp9
Rp10
(I3
S'<'
p11
NNNI-1
I-1
I0
tp12
bI00
S"'\xb7\x0b\x13L\xdfR@ql\x07\xfd\xe8\x97i?\xe4\xd5\xa4\x00\n\xb0\xe0?"
p13
tp14
b(lp15
(lp16
cnumpy.core.multiarray
scalar
p17
(g10
S'1\xc7\xcb5sXR@'
p18
tp19
Rp20
ag17
(g10
S'\x1d\xa7K\xf0$fS@'
p21
tp22
Rp23
aa(lp24
g17
(g10
S'>\x93\xde&\xa0\x92i?'
p25
tp26
Rp27
ag17
(g10
S'\xa4E0\xd31\x9di?'
p28
tp29
Rp30
aa(lp31
g17
(g10
S'\x1a\x06\r\xfdj\xaf\xe0?'
p32
tp33
Rp34
ag17
(g10
S'\xae\xa5<\x04\xa9\xb0\xe0?'
p35
tp36
Rp37
aatp38
.