(cnumpy.core.multiarray
_reconstruct
p0
(cnumpy
ndarray
p1
(I0
tp2
S'b'
p3
tp4
Rp5
(I1
(I3
tp6
cnumpy
dtype
p7
(S'f8'
p8
I0
I1
tp9
Rp10
(I3
S'<'
p11
NNNI-1
I-1
I0
tp12
bI00
S'\x98\rf\x01\x19~T@J\xa4Z\xdc\x9e\x8e\\?\x18\\\x19\xd4\xb0\xab\xe0?'
p13
tp14
b(lp15
(lp16
cnumpy.core.multiarray
scalar
p17
(g10
S'\x0c\xbbt\xfe\xd5,S@'
p18
tp19
Rp20
ag17
(g10
S'$`W\x04\\\xcfU@'
p21
tp22
Rp23
aa(lp24
g17
(g10
S'v\xe6\xc6\x97\x9e\x92V?'
p25
tp26
Rp27
ag17
(g10
S'\x0f1w\x90OEa?'
p28
tp29
Rp30
aa(lp31
g17
(g10
S',j\xea\x1e/\xaa\xe0?'
p32
tp33
Rp34
ag17
(g10
S'\x04NH\x892\xad\xe0?'
p35
tp36
Rp37
aatp38
.