(cnumpy.core.multiarray
_reconstruct
p0
(cnumpy
ndarray
p1
(I0
tp2
S'b'
p3
tp4
Rp5
(I1
(I3
tp6
cnumpy
dtype
p7
(S'f8'
p8
I0
I1
tp9
Rp10
(I3
S'<'
p11
NNNI-1
I-1
I0
tp12
bI00
S'+YN\xa2\xdd\xa9Q@&\xdc%\x0b\x15ok?\x0b\x1d6k\xaf\xb1\xe0?'
p13
tp14
b(lp15
(lp16
cnumpy.core.multiarray
scalar
p17
(g10
S'\xa2\x15k\xe4\x85\xfcP@'
p18
tp19
Rp20
ag17
(g10
S'\xb4\x9c1`5WR@'
p21
tp22
Rp23
aa(lp24
g17
(g10
S'F8n\x80\x98\xa2h?'
p25
tp26
Rp27
ag17
(g10
S'\x06\x80\xdd\x95\x91;n?'
p28
tp29
Rp30
aa(lp31
g17
(g10
S'\xfd\xc6\xc1-\x0b\xb1\xe0?'
p32
tp33
Rp34
ag17
(g10
S'\x19s\xaa\xa8S\xb2\xe0?'
p35
tp36
Rp37
aatp38
.