(cnumpy.core.multiarray
_reconstruct
p0
(cnumpy
ndarray
p1
(I0
tp2
S'b'
p3
tp4
Rp5
(I1
(I3
tp6
cnumpy
dtype
p7
(S'f8'
p8
I0
I1
tp9
Rp10
(I3
S'<'
p11
NNNI-1
I-1
I0
tp12
bI00
S'/\x1b\x7fq\x1f/S@EB1\xc0\x1aef?\xbb\xfd\x90\x15B\xaf\xe0?'
p13
tp14
b(lp15
(lp16
cnumpy.core.multiarray
scalar
p17
(g10
S'7\xd7\xc9\t\xa3\xadR@'
p18
tp19
Rp20
ag17
(g10
S"'_4\xd9\x9b\xb0S@"
p21
tp22
Rp23
aa(lp24
g17
(g10
S'\x99\xb8+\xd1\x82\xbad?'
p25
tp26
Rp27
ag17
(g10
S'\xf1\xcb6\xaf\xb2\x0fh?'
p28
tp29
Rp30
aa(lp31
g17
(g10
S'C\xc9\xaa#\xc9\xae\xe0?'
p32
tp33
Rp34
ag17
(g10
S'32w\x07\xbb\xaf\xe0?'
p35
tp36
Rp37
aatp38
.