(cnumpy.core.multiarray
_reconstruct
p0
(cnumpy
ndarray
p1
(I0
tp2
S'b'
p3
tp4
Rp5
(I1
(I3
tp6
cnumpy
dtype
p7
(S'f8'
p8
I0
I1
tp9
Rp10
(I3
S'<'
p11
NNNI-1
I-1
I0
tp12
bI00
S'i\x0fb\xec\x00#S@\x16\x86\xc02\xa7\x1ae?Gx\x85@\x1a\xae\xe0?'
p13
tp14
b(lp15
(lp16
cnumpy.core.multiarray
scalar
p17
(g10
S'lv\xef\x8d\xf2\x80R@'
p18
tp19
Rp20
ag17
(g10
S'f\xa8\xd4J\x0f\xc5S@'
p21
tp22
Rp23
aa(lp24
g17
(g10
S'\xcc!v.\x11\x1ac?'
p25
tp26
Rp27
ag17
(g10
S'`\xea\n7=\x1bg?'
p28
tp29
Rp30
aa(lp31
g17
(g10
S'\xf2\xf8"v|\xad\xe0?'
p32
tp33
Rp34
ag17
(g10
S'\x9c\xf7\xe7\n\xb8\xae\xe0?'
p35
tp36
Rp37
aatp38
.