(cnumpy.core.multiarray
_reconstruct
p0
(cnumpy
ndarray
p1
(I0
tp2
S'b'
p3
tp4
Rp5
(I1
(I3
tp6
cnumpy
dtype
p7
(S'f8'
p8
I0
I1
tp9
Rp10
(I3
S'<'
p11
NNNI-1
I-1
I0
tp12
bI00
S'\xe8\xb4^\xf0\x10\xd4V@\xcf\x8a`\x03XjX?\xcfAv]\x8d\xab\xe0?'
p13
tp14
b(lp15
(lp16
cnumpy.core.multiarray
scalar
p17
(g10
S',|\x83\x12\xec_T@'
p18
tp19
Rp20
ag17
(g10
S'\xa4\xed9\xce5HY@'
p21
tp22
Rp23
aa(lp24
g17
(g10
S'\xe0K5\n\xf5\x9cN?'
p25
tp26
Rp27
ag17
(g10
S'\xd77\xd3\xc0\x1a\xc3`?'
p28
tp29
Rp30
aa(lp31
g17
(g10
S'\xc9\xa0\x02{\xf4\xa8\xe0?'
p32
tp33
Rp34
ag17
(g10
S'\xd5\xe2\xe9?&\xae\xe0?'
p35
tp36
Rp37
aatp38
.