(cnumpy.core.multiarray
_reconstruct
p0
(cnumpy
ndarray
p1
(I0
tp2
S'b'
p3
tp4
Rp5
(I1
(I3
tp6
cnumpy
dtype
p7
(S'f8'
p8
I0
I1
tp9
Rp10
(I3
S'<'
p11
NNNI-1
I-1
I0
tp12
bI00
S'ITf2>\x1aR@\xcf\x0b\x1c\x17\xd0\xfbl?\x8a\x97\x97\xf7{\xb0\xe0?'
p13
tp14
b(lp15
(lp16
cnumpy.core.multiarray
scalar
p17
(g10
S'X8\xd1\x1a\x91ZQ@'
p18
tp19
Rp20
ag17
(g10
S':p\xfbI\xeb\xd9R@'
p21
tp22
Rp23
aa(lp24
g17
(g10
S'L?s\xe9\x10\xd8i?'
p25
tp26
Rp27
ag17
(g10
S')lb\xa2\xc7\x0fp?'
p28
tp29
Rp30
aa(lp31
g17
(g10
S'1\xb4NL\xd6\xaf\xe0?'
p32
tp33
Rp34
ag17
(g10
S'\xe3z\xe0\xa2!\xb1\xe0?'
p35
tp36
Rp37
aatp38
.