(cnumpy.core.multiarray
_reconstruct
p0
(cnumpy
ndarray
p1
(I0
tp2
S'b'
p3
tp4
Rp5
(I1
(I3
tp6
cnumpy
dtype
p7
(S'f8'
p8
I0
I1
tp9
Rp10
(I3
S'<'
p11
NNNI-1
I-1
I0
tp12
bI00
S'\xaaB\xf93\xb7BR@+7\x94?9>i?\xbe\x85W\xb5!\xaf\xe0?'
p13
tp14
b(lp15
(lp16
cnumpy.core.multiarray
scalar
p17
(g10
S'\xc35}j\x08hQ@'
p18
tp19
Rp20
ag17
(g10
S'\x91Ou\xfde\x1dS@'
p21
tp22
Rp23
aa(lp24
g17
(g10
S'\xd9i$\xad\xd4\x05f?'
p25
tp26
Rp27
ag17
(g10
S'}\x04\x04\xd2\x9dvl?'
p28
tp29
Rp30
aa(lp31
g17
(g10
S'\x98x\xc6\x8bS\xae\xe0?'
p32
tp33
Rp34
ag17
(g10
S'\xe4\x92\xe8\xde\xef\xaf\xe0?'
p35
tp36
Rp37
aatp38
.