(cnumpy.core.multiarray
_reconstruct
p0
(cnumpy
ndarray
p1
(I0
tp2
S'b'
p3
tp4
Rp5
(I1
(I3
tp6
cnumpy
dtype
p7
(S'f8'
p8
I0
I1
tp9
Rp10
(I3
S'<'
p11
NNNI-1
I-1
I0
tp12
bI00
S'z\xc1,_V>S@\x8e\xea8\xe9\x19\x9ae?\xac\x9e\n\xe6F\xb0\xe0?'
p13
tp14
b(lp15
(lp16
cnumpy.core.multiarray
scalar
p17
(g10
S'2\xf7\x03\x95\xe0\x11Q@'
p18
tp19
Rp20
ag17
(g10
S'\xc2\x8bU)\xccjU@'
p21
tp22
Rp23
aa(lp24
g17
(g10
S'\x99\x93\x13\xe5X@]?'
p25
tp26
Rp27
ag17
(g10
S'P\x0b\xe8_\x07\x94l?'
p28
tp29
Rp30
aa(lp31
g17
(g10
S'\xf5\xbe\xfaS2\xae\xe0?'
p32
tp33
Rp34
ag17
(g10
S'c~\x1ax[\xb2\xe0?'
p35
tp36
Rp37
aatp38
.