(cnumpy.core.multiarray
_reconstruct
p0
(cnumpy
ndarray
p1
(I0
tp2
S'b'
p3
tp4
Rp5
(I1
(I3
tp6
cnumpy
dtype
p7
(S'f8'
p8
I0
I1
tp9
Rp10
(I3
S'<'
p11
NNNI-1
I-1
I0
tp12
bI00
S'o\xc9d\xbb\x9e\xd0P@\xe8kGY\xcd9q?\xf9\x9bxfv\xb2\xe0?'
p13
tp14
b(lp15
(lp16
cnumpy.core.multiarray
scalar
p17
(g10
S'\xfdISf-\xb1O@'
p18
tp19
Rp20
ag17
(g10
S'\xdf\xed\x9f\xc3\xa6\xc8Q@'
p21
tp22
Rp23
aa(lp24
g17
(g10
S'n\xa8\xff}L|m?'
p25
tp26
Rp27
ag17
(g10
S'\x99\x03\x8fst\xb5s?'
p28
tp29
Rp30
aa(lp31
g17
(g10
S'4?\x00V\x9d\xb1\xe0?'
p32
tp33
Rp34
ag17
(g10
S'\xbe\xf8\xf0vO\xb3\xe0?'
p35
tp36
Rp37
aatp38
.