(cnumpy.core.multiarray
_reconstruct
p0
(cnumpy
ndarray
p1
(I0
tp2
S'b'
p3
tp4
Rp5
(I1
(I3
tp6
cnumpy
dtype
p7
(S'f8'
p8
I0
I1
tp9
Rp10
(I3
S'<'
p11
NNNI-1
I-1
I0
tp12
bI00
S'\x1f\xf8\xb7\x1d\xb1\xc7R@g\xd3\x1aRb\xbag?X\xa7\x0c{\xbc\xaf\xe0?'
p13
tp14
b(lp15
(lp16
cnumpy.core.multiarray
scalar
p17
(g10
S'\x81wT\xcb\x9bUR@'
p18
tp19
Rp20
ag17
(g10
S'\xbdx\x1bp\xc69S@'
p21
tp22
Rp23
aa(lp24
g17
(g10
S'\x0c;\xc4\x89\xd7*f?'
p25
tp26
Rp27
ag17
(g10
S'\xc2kq\x1a\xedIi?'
p28
tp29
Rp30
aa(lp31
g17
(g10
S'f\xf0\xd9DR\xaf\xe0?'
p32
tp33
Rp34
ag17
(g10
S'J^?\xb1&\xb0\xe0?'
p35
tp36
Rp37
aatp38
.