(cnumpy.core.multiarray
_reconstruct
p0
(cnumpy
ndarray
p1
(I0
tp2
S'b'
p3
tp4
Rp5
(I1
(I3
tp6
cnumpy
dtype
p7
(S'f8'
p8
I0
I1
tp9
Rp10
(I3
S'<'
p11
NNNI-1
I-1
I0
tp12
bI00
S',{\x8a[\x83mR@\xdaivoz\xcdf?\xf7\x8e\xaa\xfc(\xae\xe0?'
p13
tp14
b(lp15
(lp16
cnumpy.core.multiarray
scalar
p17
(g10
S'\xafC\x9f.\xcf\xc3Q@'
p18
tp19
Rp20
ag17
(g10
S'\xa9\xb2u\x887\x17S@'
p21
tp22
Rp23
aa(lp24
g17
(g10
S'x\xcaA\x02&\x80d?'
p25
tp26
Rp27
ag17
(g10
S'<\t\xab\xdc\xce\x1ai?'
p28
tp29
Rp30
aa(lp31
g17
(g10
S':{\x1fU\x7f\xad\xe0?'
p32
tp33
Rp34
ag17
(g10
S'\xb4\xa25\xa4\xd2\xae\xe0?'
p35
tp36
Rp37
aatp38
.