(cnumpy.core.multiarray
_reconstruct
p0
(cnumpy
ndarray
p1
(I0
tp2
S'b'
p3
tp4
Rp5
(I1
(I3
tp6
cnumpy
dtype
p7
(S'f8'
p8
I0
I1
tp9
Rp10
(I3
S'<'
p11
NNNI-1
I-1
I0
tp12
bI00
S'\x1d~\x9c\x11^zV@$b1\xdbM\xa5Y?D\xd89\ra\xac\xe0?'
p13
tp14
b(lp15
(lp16
cnumpy.core.multiarray
scalar
p17
(g10
S'\x8eH\x86U\xa4aU@'
p18
tp19
Rp20
ag17
(g10
S'\xac\xb3\xb2\xcd\x17\x93W@'
p21
tp22
Rp23
aa(lp24
g17
(g10
S'\x0eM\xc9e\x08jU?'
p25
tp26
Rp27
ag17
(g10
S':w\x99P\x93\xe0]?'
p28
tp29
Rp30
aa(lp31
g17
(g10
S'F\x1e!H@\xab\xe0?'
p32
tp33
Rp34
ag17
(g10
S'B\x92R\xd2\x81\xad\xe0?'
p35
tp36
Rp37
aatp38
.