(cnumpy.core.multiarray
_reconstruct
p0
(cnumpy
ndarray
p1
(I0
tp2
S'b'
p3
tp4
Rp5
(I1
(I3
tp6
cnumpy
dtype
p7
(S'f8'
p8
I0
I1
tp9
Rp10
(I3
S'<'
p11
NNNI-1
I-1
I0
tp12
bI00
S'\x18\x87\xb0~\x86\xd2R@8\xd5\xb0$\x87\x84g?\x7f\x17y\r\xb7\xaf\xe0?'
p13
tp14
b(lp15
(lp16
cnumpy.core.multiarray
scalar
p17
(g10
S'ck8K\x11\x9dR@'
p18
tp19
Rp20
ag17
(g10
S'\xcd\xa2(\xb2\xfb\x07S@'
p21
tp22
Rp23
aa(lp24
g17
(g10
S'*>\xfaD\xb6~g?'
p25
tp26
Rp27
ag17
(g10
S'Flg\x04X\x8ag?'
p28
tp29
Rp30
aa(lp31
g17
(g10
S'\x83\xbds\xe8t\xaf\xe0?'
p32
tp33
Rp34
ag17
(g10
S'{q~2\xf9\xaf\xe0?'
p35
tp36
Rp37
aatp38
.