(cnumpy.core.multiarray
_reconstruct
p0
(cnumpy
ndarray
p1
(I0
tp2
S'b'
p3
tp4
Rp5
(I1
(I3
tp6
cnumpy
dtype
p7
(S'f8'
p8
I0
I1
tp9
Rp10
(I3
S'<'
p11
NNNI-1
I-1
I0
tp12
bI00
S'\xd6\xc7\x1a4\xceLR@\xa0)\t3\x82\x98i?\xe2\xe2\x08F\x9d\xb0\xe0?'
p13
tp14
b(lp15
(lp16
cnumpy.core.multiarray
scalar
p17
(g10
S'@\xd0xu\x16lQ@'
p18
tp19
Rp20
ag17
(g10
S'l\xbf\xbc\xf2\x85-S@'
p21
tp22
Rp23
aa(lp24
g17
(g10
S'\xc4&\x9d\x11\xbeBf?'
p25
tp26
Rp27
ag17
(g10
S'|,uTF\xeel?'
p28
tp29
Rp30
aa(lp31
g17
(g10
S'lk\xec\xdb\xcb\xaf\xe0?'
p32
tp33
Rp34
ag17
(g10
S'XZ%\xb0n\xb1\xe0?'
p35
tp36
Rp37
aatp38
.