(cnumpy.core.multiarray
_reconstruct
p0
(cnumpy
ndarray
p1
(I0
tp2
S'b'
p3
tp4
Rp5
(I1
(I3
tp6
cnumpy
dtype
p7
(S'f8'
p8
I0
I1
tp9
Rp10
(I3
S'<'
p11
NNNI-1
I-1
I0
tp12
bI00
S'\xebeM\xf1\x1eoT@{\xfe\t\x81\x89$`?Fd\xfe\xa1G\xaf\xe0?'
p13
tp14
b(lp15
(lp16
cnumpy.core.multiarray
scalar
p17
(g10
S'\xf02\xa0\xb6\x8f\x80S@'
p18
tp19
Rp20
ag17
(g10
S'\xe6\x98\xfa+\xae]U@'
p21
tp22
Rp23
aa(lp24
g17
(g10
S'\xc6+K\xb7h\x1a\\?'
p25
tp26
Rp27
ag17
(g10
S'\x13gn\xa6\xde;b?'
p28
tp29
Rp30
aa(lp31
g17
(g10
S'\xde\xe6c\xacA\xae\xe0?'
p32
tp33
Rp34
ag17
(g10
S'\xae\xe1\x98\x97M\xb0\xe0?'
p35
tp36
Rp37
aatp38
.