(cnumpy.core.multiarray
_reconstruct
p0
(cnumpy
ndarray
p1
(I0
tp2
S'b'
p3
tp4
Rp5
(I1
(I3
tp6
cnumpy
dtype
p7
(S'f8'
p8
I0
I1
tp9
Rp10
(I3
S'<'
p11
NNNI-1
I-1
I0
tp12
bI00
S'\xc7\x86-C\x0b\xcbR@~J\xd1/s"i?\x8fK%\x81x\xaf\xe0?'
p13
tp14
b(lp15
(lp16
cnumpy.core.multiarray
scalar
p17
(g10
S'w\x0c\x86\xc2J6R@'
p18
tp19
Rp20
ag17
(g10
S'\x17\x01\xd5\xc3\xcb_S@'
p21
tp22
Rp23
aa(lp24
g17
(g10
S'\xb3&\xb5,4\x03g?'
p25
tp26
Rp27
ag17
(g10
S'In\xed2\xb2Ak?'
p28
tp29
Rp30
aa(lp31
g17
(g10
S'\x9b\xc7\x9d,\xf3\xae\xe0?'
p32
tp33
Rp34
ag17
(g10
S'\x83\xcf\xac\xd5\xfd\xaf\xe0?'
p35
tp36
Rp37
aatp38
.