(cnumpy.core.multiarray
_reconstruct
p0
(cnumpy
ndarray
p1
(I0
tp2
S'b'
p3
tp4
Rp5
(I1
(I3
tp6
cnumpy
dtype
p7
(S'f8'
p8
I0
I1
tp9
Rp10
(I3
S'<'
p11
NNNI-1
I-1
I0
tp12
bI00
S')\xa9\xf9l|YS@-Hmk1\xa1e?\xb1H\x9b\x85\xf8\xae\xe0?'
p13
tp14
b(lp15
(lp16
cnumpy.core.multiarray
scalar
p17
(g10
S'\x99\x98\xe8\xab\xfe\xd5R@'
p18
tp19
Rp20
ag17
(g10
S'\xb9\xb9\n.\xfa\xdcS@'
p21
tp22
Rp23
aa(lp24
g17
(g10
S'(\x8a3\x0f\x0f\xfec?'
p25
tp26
Rp27
ag17
(g10
S'2\x06\xa7\xc7SDg?'
p28
tp29
Rp30
aa(lp31
g17
(g10
S'l\xa9;\xb6|\xae\xe0?'
p32
tp33
Rp34
ag17
(g10
S'\xf6\xe7\xfaTt\xaf\xe0?'
p35
tp36
Rp37
aatp38
.