(cnumpy.core.multiarray
_reconstruct
p0
(cnumpy
ndarray
p1
(I0
tp2
S'b'
p3
tp4
Rp5
(I1
(I3
tp6
cnumpy
dtype
p7
(S'f8'
p8
I0
I1
tp9
Rp10
(I3
S'<'
p11
NNNI-1
I-1
I0
tp12
bI00
S'O\x07\x0c\x04HtQ@\xa5\x93\xfe\xf9z\xdbs?\xbc\x7f7SK\xad\xe0?'
p13
tp14
b(lp15
(lp16
cnumpy.core.multiarray
scalar
p17
(g10
S'sr2<G\rN@'
p18
tp19
Rp20
ag17
(g10
S'd\xd5\xfei\xec\xe1S@'
p21
tp22
Rp23
aa(lp24
g17
(g10
S'H\xf7\xf3\xdb\x85Lj?'
p25
tp26
Rp27
ag17
(g10
S'\xa6+\x03\x06\xb3\x90z?'
p28
tp29
Rp30
aa(lp31
g17
(g10
S'\xa5\x05\xe9%u\xab\xe0?'
p32
tp33
Rp34
ag17
(g10
S'\xd3\xf9\x85\x80!\xaf\xe0?'
p35
tp36
Rp37
aatp38
.