(cnumpy.core.multiarray
_reconstruct
p0
(cnumpy
ndarray
p1
(I0
tp2
S'b'
p3
tp4
Rp5
(I1
(I3
tp6
cnumpy
dtype
p7
(S'f8'
p8
I0
I1
tp9
Rp10
(I3
S'<'
p11
NNNI-1
I-1
I0
tp12
bI00
S'\xec\xab\xeb(\t|P@\x1aB\xc2b\xd7\x16r?zw\x95\xfb\xad\xb2\xe0?'
p13
tp14
b(lp15
(lp16
cnumpy.core.multiarray
scalar
p17
(g10
S'\x0f\x86\xe4t\x1b\x1dO@'
p18
tp19
Rp20
ag17
(g10
S'\xd0\x14e\x97\x84iQ@'
p21
tp22
Rp23
aa(lp24
g17
(g10
S'\xe2Ov\xe6\xad%o?'
p25
tp26
Rp27
ag17
(g10
S'C\\I\xd2\xd7\x9at?'
p28
tp29
Rp30
aa(lp31
g17
(g10
S'?w~\xed\xda\xb1\xe0?'
p32
tp33
Rp34
ag17
(g10
S'\xb5w\xac\t\x81\xb3\xe0?'
p35
tp36
Rp37
aatp38
.