(cnumpy.core.multiarray
_reconstruct
p1
(cnumpy
ndarray
p2
(I0
tS'b'
tRp3
(I1
(I3
tcnumpy
dtype
p4
(S'f8'
I0
I1
tRp5
(I3
S'<'
NNNI-1
I-1
I0
tbI00
S"\x83PHk_k0@>LA\x83\x1f'x?\xc0\x1a\tD\xaa\r\xa6?"
tb(lp6
(lp7
cnumpy.core.multiarray
scalar
p8
(g5
S'j|\x98c6A/@'
tRp9
ag8
(g5
S'\xd1b\xc4\xa4#61@'
tRp10
aa(lp11
g8
(g5
S'\xb3>\xa3\x96\\Iu?'
tRp12
ag8
(g5
S'\xc9Y\xdfo\xe2\x04{?'
tRp13
aa(lp14
g8
(g5
S'n\xad\xd7qL\xaf\xa5?'
tRp15
ag8
(g5
S'\x12\x88:\x16\x08l\xa6?'
tRp16
aat.