(cnumpy.core.multiarray
_reconstruct
p1
(cnumpy
ndarray
p2
(I0
tS'b'
tRp3
(I1
(I3
tcnumpy
dtype
p4
(S'f8'
I0
I1
tRp5
(I3
S'<'
NNNI-1
I-1
I0
tbI00
S'\x12Y\x13,\x8e\xf4,@*W<\x0e\xee\x80}?\xeeN3\x9bu\xcc\xa3?'
tb(lp6
(lp7
cnumpy.core.multiarray
scalar
p8
(g5
S'\xd5\xf3\xd6\x17=\xa0+@'
tRp9
ag8
(g5
S'O\xbeO@\xdfH.@'
tRp10
aa(lp11
g8
(g5
S'_]\x8c\xb9\xbc\\z?'
tRp12
ag8
(g5
S'{(v\xb1\x8fR\x80?'
tRp13
aa(lp14
g8
(g5
S'yg\xf5^\xb6u\xa3?'
tRp15
ag8
(g5
S'c6q\xd74#\xa4?'
tRp16
aat.