(cnumpy.core.multiarray
_reconstruct
p0
(cnumpy
ndarray
p1
(I0
tp2
S'b'
p3
tp4
Rp5
(I1
(I4
tp6
cnumpy
dtype
p7
(S'f8'
p8
I0
I1
tp9
Rp10
(I3
S'<'
p11
NNNI-1
I-1
I0
tp12
bI00
S'u^\x7f\xe5*Ab@5\xee\x8f\xc6\xb2\xf4v?:\x9aSKt\xaf\xfa?j\x13\xc8\xb90\xc3\xe0?'
p13
tp14
b(lp15
(lp16
cnumpy.core.multiarray
scalar
p17
(g10
S'\\\x7fV\t;XX@'
p18
tp19
Rp20
ag17
(g10
S'<}SF8Vh@'
p21
tp22
Rp23
aa(lp24
g17
(g10
S'\xd8FF\xcbb\xcdF\xbf'
p25
tp26
Rp27
ag17
(g10
S'\xa2RD\xf3\x88a\x88?'
p28
tp29
Rp30
aa(lp31
g17
(g10
S'\xb9|P=\t\xa3!\xc0'
p32
tp33
Rp34
ag17
(g10
S'Gc%P\xe6N(@'
p35
tp36
Rp37
aa(lp38
g17
(g10
S'\x88vH^\xb1\xbe\xe0?'
p39
tp40
Rp41
ag17
(g10
S'L\xb0G\x15\xb0\xc7\xe0?'
p42
tp43
Rp44
aatp45
.