(cnumpy.core.multiarray
_reconstruct
p0
(cnumpy
ndarray
p1
(I0
tp2
S'b'
p3
tp4
Rp5
(I1
(I4
tp6
cnumpy
dtype
p7
(S'f8'
p8
I0
I1
tp9
Rp10
(I3
S'<'
p11
NNNI-1
I-1
I0
tp12
bI00
S' M:J\xb7;j@l\xe7Q\x8f-Om?D\r.\xa7\xa5\x99\xbf?Z 4\x05m\xf9\xe0?'
p13
tp14
b(lp15
(lp16
cnumpy.core.multiarray
scalar
p17
(g10
S'\x12$%\xf9JMe@'
p18
tp19
Rp20
ag17
(g10
S'.vO\x9b#*o@'
p21
tp22
Rp23
aa(lp24
g17
(g10
S'\xac\x1881\xa5@m?'
p25
tp26
Rp27
ag17
(g10
S',\xb6k\xed\xb5]m?'
p28
tp29
Rp30
aa(lp31
g17
(g10
S'\x18e\xc8P%\xab\x90\xbf'
p32
tp33
Rp34
ag17
(g10
S'\xf4\x8c\xa3(\x85\xd7\xd0?'
p35
tp36
Rp37
aa(lp38
g17
(g10
S'?C\xce\x93\x07\xf7\xe0?'
p39
tp40
Rp41
ag17
(g10
S'u\xfd\x99v\xd2\xfb\xe0?'
p42
tp43
Rp44
aatp45
.