(cnumpy.core.multiarray
_reconstruct
p0
(cnumpy
ndarray
p1
(I0
tp2
S'b'
p3
tp4
Rp5
(I1
(I4
tp6
cnumpy
dtype
p7
(S'f8'
p8
I0
I1
tp9
Rp10
(I3
S'<'
p11
NNNI-1
I-1
I0
tp12
bI00
S'\xe2\xc4\xca>\x00\x06R@>Q\xdb+\xc4\rt?YO\x05\x02K\xf6p?\xfd\xfe\x88\xf3T\xb7\xe0?'
p13
tp14
b(lp15
(lp16
cnumpy.core.multiarray
scalar
p17
(g10
S'P\xc9Xw\x84KQ@'
p18
tp19
Rp20
ag17
(g10
S't\xc0<\x06|\xc0R@'
p21
tp22
Rp23
aa(lp24
g17
(g10
S'\x9c~5\xfd\\+r?'
p25
tp26
Rp27
ag17
(g10
S'\xe0#\x81Z+\xf0u?'
p28
tp29
Rp30
aa(lp31
g17
(g10
S'\\ai\xa0WPU?'
p32
tp33
Rp34
ag17
(g10
S'[F\xf0\x1b\x80\x98|?'
p35
tp36
Rp37
aa(lp38
g17
(g10
S'Fk\x19\x0b\x9a\xb6\xe0?'
p39
tp40
Rp41
ag17
(g10
S'\xb4\x92\xf8\xdb\x0f\xb8\xe0?'
p42
tp43
Rp44
aatp45
.