(cnumpy.core.multiarray
_reconstruct
p0
(cnumpy
ndarray
p1
(I0
tp2
S'b'
p3
tp4
Rp5
(I1
(I4
tp6
cnumpy
dtype
p7
(S'f8'
p8
I0
I1
tp9
Rp10
(I3
S'<'
p11
NNNI-1
I-1
I0
tp12
bI00
S'H*\xc8\xbd\xdeeR@\xbb\x9cj\xb2c\x92y?*V\x05\xcd\xbf,y>\xb0\xf02\xe8\xbbU\xe0?'
p13
tp14
b(lp15
(lp16
cnumpy.core.multiarray
scalar
p17
(g10
S'\x1aA\xbal:\x9eQ@'
p18
tp19
Rp20
ag17
(g10
S'v\x13\xd6\x0e\x83-S@'
p21
tp22
Rp23
aa(lp24
g17
(g10
S'"\xad\xea\x80J0w?'
p25
tp26
Rp27
ag17
(g10
S'T\x8c\xea\xe3|\xf4{?'
p28
tp29
Rp30
aa(lp31
g17
(g10
S'\x13C\x03W\xc7(h\xbf'
p32
tp33
Rp34
ag17
(g10
S')w\x02\n,)h?'
p35
tp36
Rp37
aa(lp38
g17
(g10
S'\xf9h[o\x10U\xe0?'
p39
tp40
Rp41
ag17
(g10
S'gx\nagV\xe0?'
p42
tp43
Rp44
aatp45
.