(cnumpy.core.multiarray
_reconstruct
p0
(cnumpy
ndarray
p1
(I0
tp2
S'b'
p3
tp4
Rp5
(I1
(I4
tp6
cnumpy
dtype
p7
(S'f8'
p8
I0
I1
tp9
Rp10
(I3
S'<'
p11
NNNI-1
I-1
I0
tp12
bI00
S'-y\x1c\xb2j\x89R@\xc4}\x1a\x9e\xe8\xc0v?\x90=\xfdZ\x0cq\x87?\xa2%f|Z\x94\xe0?'
p13
tp14
b(lp15
(lp16
cnumpy.core.multiarray
scalar
p17
(g10
S'9B\xc5\x12\xaf\xb2Q@'
p18
tp19
Rp20
ag17
(g10
S'!\xb0sQ&`S@'
p21
tp22
Rp23
aa(lp24
g17
(g10
S'1\x81\xd5\x80l^t?'
p25
tp26
Rp27
ag17
(g10
S'Wz_\xbbd#y?'
p28
tp29
Rp30
aa(lp31
g17
(g10
S'\x8c_\xb2Y\xa5\x87~?'
p32
tp33
Rp34
ag17
(g10
S'ZK!\tF\x9e\x8f?'
p35
tp36
Rp37
aa(lp38
g17
(g10
S'5\x04\x0b\xbe\x9f\x93\xe0?'
p39
tp40
Rp41
ag17
(g10
S'\x0fG\xc1:\x15\x95\xe0?'
p42
tp43
Rp44
aatp45
.