(cnumpy.core.multiarray
_reconstruct
p0
(cnumpy
ndarray
p1
(I0
tp2
S'b'
p3
tp4
Rp5
(I1
(I4
tp6
cnumpy
dtype
p7
(S'f8'
p8
I0
I1
tp9
Rp10
(I3
S'<'
p11
NNNI-1
I-1
I0
tp12
bI00
S'\xa8\xd1Qdt\xd4R@\xbf\x14"\x14\x9f\xf4z?\xd6_\x90\xd1UO\xa1=\xa6AY\x15\x07\x16\xe0?'
p13
tp14
b(lp15
(lp16
cnumpy.core.multiarray
scalar
p17
(g10
S'\x08K\xe0\xa24\x07R@'
p18
tp19
Rp20
ag17
(g10
S'HX\xc3%\xb4\xa1S@'
p21
tp22
Rp23
aa(lp24
g17
(g10
S'Q\x11x\xea"nx?'
p25
tp26
Rp27
ag17
(g10
S'-\x18\xcc=\x1b{}?'
p28
tp29
Rp30
aa(lp31
g17
(g10
S'\xcc\x1ccge3j\xbf'
p32
tp33
Rp34
ag17
(g10
S'\x86\x07\x8die3j?'
p35
tp36
Rp37
aa(lp38
g17
(g10
S'(\x82_W`\x15\xe0?'
p39
tp40
Rp41
ag17
(g10
S'$\x01S\xd3\xad\x16\xe0?'
p42
tp43
Rp44
aatp45
.