(cnumpy.core.multiarray
_reconstruct
p0
(cnumpy
ndarray
p1
(I0
tp2
S'b'
p3
tp4
Rp5
(I1
(I4
tp6
cnumpy
dtype
p7
(S'f8'
p8
I0
I1
tp9
Rp10
(I3
S'<'
p11
NNNI-1
I-1
I0
tp12
bI00
S'\xd3fr\ri\xd8R@\xc7\x13@v\x86\xa6v?\xa9\x97x\x8d\xc7\xa6~?.B#\x8b\xd4^\xe0?'
p13
tp14
b(lp15
(lp16
cnumpy.core.multiarray
scalar
p17
(g10
S'G\xe1\xf9\xbf8\tR@'
p18
tp19
Rp20
ag17
(g10
S'_\xec\xeaZ\x99\xa7S@'
p21
tp22
Rp23
aa(lp24
g17
(g10
S'\xde\xe8q\x911lt?'
p25
tp26
Rp27
ag17
(g10
S'\xb0>\x0e[\xdb\xe0x?'
p28
tp29
Rp30
aa(lp31
g17
(g10
S'*Li|7\x91p?'
p32
tp33
Rp34
ag17
(g10
S'\x94\xf1C\xcf+^\x86?'
p35
tp36
Rp37
aa(lp38
g17
(g10
S'3c\x85\xec"^\xe0?'
p39
tp40
Rp41
ag17
(g10
S')!\xc1)\x86_\xe0?'
p42
tp43
Rp44
aatp45
.