(cnumpy.core.multiarray
_reconstruct
p0
(cnumpy
ndarray
p1
(I0
tp2
S'b'
p3
tp4
Rp5
(I1
(I4
tp6
cnumpy
dtype
p7
(S'f8'
p8
I0
I1
tp9
Rp10
(I3
S'<'
p11
NNNI-1
I-1
I0
tp12
bI00
S'\xe9\x95\x9c{#\xa0F@\x1d\xfe\xe2|\xa8\x19{?{q\t^.Qp?\xdch\x06\x91\xb2\xa6\xe0?'
p13
tp14
b(lp15
(lp16
cnumpy.core.multiarray
scalar
p17
(g10
S'\xbd\xd3\xff\xa13\xeeE@'
p18
tp19
Rp20
ag17
(g10
S'\x15X9U\x13RG@'
p21
tp22
Rp23
aa(lp24
g17
(g10
S'C\r\x14\xb7 Jy?'
p25
tp26
Rp27
ag17
(g10
S'\xf7\xee\xb1B0\xe9|?'
p28
tp29
Rp30
aa(lp31
g17
(g10
S'`\x0e\x1dgQ\x8cY?'
p32
tp33
Rp34
ag17
(g10
S'^\x9fKbH?z?'
p35
tp36
Rp37
aa(lp38
g17
(g10
S'\xcaF\x14\xc5\xfb\xa5\xe0?'
p39
tp40
Rp41
ag17
(g10
S'\xee\x8a\xf8\\i\xa7\xe0?'
p42
tp43
Rp44
aatp45
.