(cnumpy.core.multiarray
_reconstruct
p0
(cnumpy
ndarray
p1
(I0
tp2
S'b'
p3
tp4
Rp5
(I1
(I4
tp6
cnumpy
dtype
p7
(S'f8'
p8
I0
I1
tp9
Rp10
(I3
S'<'
p11
NNNI-1
I-1
I0
tp12
bI00
S'p!V\xc9-0Q@\\]\xafmD\xac\x80?=t\xb3\x94*\xff}?}\xf6\x13\x8d\x84v\xe0?'
p13
tp14
b(lp15
(lp16
cnumpy.core.multiarray
scalar
p17
(g10
S'\xc7\x88Z\x88\xef[P@'
p18
tp19
Rp20
ag17
(g10
S'\x19\xbaQ\nl\x04R@'
p21
tp22
Rp23
aa(lp24
g17
(g10
S'\xe9\x1c\x9e\xb7\x8a\xf6}?'
p25
tp26
Rp27
ag17
(g10
S'C\xac\x8f\x7fC]\x82?'
p28
tp29
Rp30
aa(lp31
g17
(g10
S'\x1a\xb5\x045Scg?'
p32
tp33
Rp34
ag17
(g10
S'\xf6Fr\xc7U&\x88?'
p35
tp36
Rp37
aa(lp38
g17
(g10
S'{\xe3\xca\x18\xe1u\xe0?'
p39
tp40
Rp41
ag17
(g10
S'\x7f\t]\x01(w\xe0?'
p42
tp43
Rp44
aatp45
.