(cnumpy.core.multiarray
_reconstruct
p0
(cnumpy
ndarray
p1
(I0
tp2
S'b'
p3
tp4
Rp5
(I1
(I4
tp6
cnumpy
dtype
p7
(S'f8'
p8
I0
I1
tp9
Rp10
(I3
S'<'
p11
NNNI-1
I-1
I0
tp12
bI00
S'w\x8b\xd1\x01~zb@;\xbdk\x8b\xc3\xa1m?#\x9e3\x8b@\x0co?R\xd1`[H\xa7\xe0?'
p13
tp14
b(lp15
(lp16
cnumpy.core.multiarray
scalar
p17
(g10
S'v\xf2C;a*a@'
p18
tp19
Rp20
ag17
(g10
S'x$_\xc8\x9a\xcac@'
p21
tp22
Rp23
aa(lp24
g17
(g10
S'SO\x0fR\x91ah?'
p25
tp26
Rp27
ag17
(g10
S'\x92\x15d\xe2\xfapq?'
p28
tp29
Rp30
aa(lp31
g17
(g10
S'$\xf3\x97x>\x18D\xbf'
p32
tp33
Rp34
ag17
(g10
S'DN#-\xa4\xc7\x80?'
p35
tp36
Rp37
aa(lp38
g17
(g10
S'x \xca9\x81\xa6\xe0?'
p39
tp40
Rp41
ag17
(g10
S',\x82\xf7|\x0f\xa8\xe0?'
p42
tp43
Rp44
aatp45
.