(cnumpy.core.multiarray
_reconstruct
p0
(cnumpy
ndarray
p1
(I0
tp2
S'b'
p3
tp4
Rp5
(I1
(I4
tp6
cnumpy
dtype
p7
(S'f8'
p8
I0
I1
tp9
Rp10
(I3
S'<'
p11
NNNI-1
I-1
I0
tp12
bI00
S'6\xf9&\xd1@\xe3S@\x8ew%\xdb\xec\xe1w?\xc0\x0ff\xe9\xd7Vg?@\x10\xc8\x94\xde4\xe0?'
p13
tp14
b(lp15
(lp16
cnumpy.core.multiarray
scalar
p17
(g10
S'WK\xadT\xe2\x02S@'
p18
tp19
Rp20
ag17
(g10
S'\x15\xa7\xa0M\x9f\xc3T@'
p21
tp22
Rp23
aa(lp24
g17
(g10
S'=\xfb\xd7k \x8au?'
p25
tp26
Rp27
ag17
(g10
S'\xdf\xf3rJ\xb99z?'
p28
tp29
Rp30
aa(lp31
g17
(g10
S'0\xf9g\x14q\x0f8\xbf'
p32
tp33
Rp34
ag17
(g10
S'S\x8f\xac\xfa\xce\xd7x?'
p35
tp36
Rp37
aa(lp38
g17
(g10
S':tj\xfd54\xe0?'
p39
tp40
Rp41
ag17
(g10
S'F\xac%,\x875\xe0?'
p42
tp43
Rp44
aatp45
.