(cnumpy.core.multiarray
_reconstruct
p0
(cnumpy
ndarray
p1
(I0
tp2
S'b'
p3
tp4
Rp5
(I1
(I4
tp6
cnumpy
dtype
p7
(S'f8'
p8
I0
I1
tp9
Rp10
(I3
S'<'
p11
NNNI-1
I-1
I0
tp12
bI00
S'yb\xeaf\x86MS@y\xde\x90\xd3Q\xe9z?\xd4\x0c8\xb2R\xc4\x92>\x7f&;\xbeXg\xe0?'
p13
tp14
b(lp15
(lp16
cnumpy.core.multiarray
scalar
p17
(g10
S'\x0e\x909\xbf\x88iR@'
p18
tp19
Rp20
ag17
(g10
S'\xe44\x9b\x0e\x841T@'
p21
tp22
Rp23
aa(lp24
g17
(g10
S'9\x8a\x8c\xb5\xd9Ux?'
p25
tp26
Rp27
ag17
(g10
S'\xb92\x95\xf1\xc9|}?'
p28
tp29
Rp30
aa(lp31
g17
(g10
S'\xbb\x1f\xc73\n\xf8f\xbf'
p32
tp33
Rp34
ag17
(g10
S';C\xf2x6\xf9f?'
p35
tp36
Rp37
aa(lp38
g17
(g10
S'\xa1C-\xd3\xbbf\xe0?'
p39
tp40
Rp41
ag17
(g10
S']\tI\xa9\xf5g\xe0?'
p42
tp43
Rp44
aatp45
.