(cnumpy.core.multiarray
_reconstruct
p0
(cnumpy
ndarray
p1
(I0
tp2
S'b'
p3
tp4
Rp5
(I1
(I4
tp6
cnumpy
dtype
p7
(S'f8'
p8
I0
I1
tp9
Rp10
(I3
S'<'
p11
NNNI-1
I-1
I0
tp12
bI00
S'pOg\xc2 \x12g@p#x\x84\xcb\x87n?\x048J\x7f\x86E\x8d?\xb9\xb0\xc0\x9f5\xaa\xe0?'
p13
tp14
b(lp15
(lp16
cnumpy.core.multiarray
scalar
p17
(g10
S'\xaae~\xd0\xda\xecd@'
p18
tp19
Rp20
ag17
(g10
S'69P\xb4f7i@'
p21
tp22
Rp23
aa(lp24
g17
(g10
S'<\xd7\x1c"\xcf&g?'
p25
tp26
Rp27
ag17
(g10
S'\xd2\xb7i\xf3c\xf4r?'
p28
tp29
Rp30
aa(lp31
g17
(g10
S'~\x97\xba?\x9c\xfez?'
p32
tp33
Rp34
ag17
(g10
S'$\x92[o\xdf\x85\x96?'
p35
tp36
Rp37
aa(lp38
g17
(g10
S'\xfd\x81s~h\xa9\xe0?'
p39
tp40
Rp41
ag17
(g10
S'u\xdf\r\xc1\x02\xab\xe0?'
p42
tp43
Rp44
aatp45
.