(cnumpy.core.multiarray
_reconstruct
p0
(cnumpy
ndarray
p1
(I0
tp2
S'b'
p3
tp4
Rp5
(I1
(I4
tp6
cnumpy
dtype
p7
(S'f8'
p8
I0
I1
tp9
Rp10
(I3
S'<'
p11
NNNI-1
I-1
I0
tp12
bI00
S'l~y\xd6\xfbwP@I&\x85\xbd\xa6\xbbc?V\xe5\x10|>v\x8d?\xc2\xa7\xaa)\r\x85\xe0?'
p13
tp14
b(lp15
(lp16
cnumpy.core.multiarray
scalar
p17
(g10
S'M7&\xa5j\xf3O@'
p18
tp19
Rp20
ag17
(g10
S'2\xe1_ZB\xf6P@'
p21
tp22
Rp23
aa(lp24
g17
(g10
S'6\xd5|2\x1a\xfba?'
p25
tp26
Rp27
ag17
(g10
S'\\w\x8dH3|e?'
p28
tp29
Rp30
aa(lp31
g17
(g10
S'\xbc\x8f<\xa7\x1e\x01\x89?'
p32
tp33
Rp34
ag17
(g10
S'x\x9dr(\xaf\xf5\x90?'
p35
tp36
Rp37
aa(lp38
g17
(g10
S'\x84\x14\xbe\x18\x0e\x84\xe0?'
p39
tp40
Rp41
ag17
(g10
S'\x00;\x97:\x0c\x86\xe0?'
p42
tp43
Rp44
aatp45
.