(cnumpy.core.multiarray
_reconstruct
p0
(cnumpy
ndarray
p1
(I0
tp2
S'b'
p3
tp4
Rp5
(I1
(I4
tp6
cnumpy
dtype
p7
(S'f8'
p8
I0
I1
tp9
Rp10
(I3
S'<'
p11
NNNI-1
I-1
I0
tp12
bI00
S")\xb0\x18\x93\x05\xdcQ@\x974\x88\xd4=g|?nN\x8b\r\x929\x84?\x84z5'\xc3\xb3\xe0?"
p13
tp14
b(lp15
(lp16
cnumpy.core.multiarray
scalar
p17
(g10
S'C{\xe6\xf2\xaagQ@'
p18
tp19
Rp20
ag17
(g10
S'\x0f\xe5J3`PR@'
p21
tp22
Rp23
aa(lp24
g17
(g10
S'\xc9Xg\x83\xfbf|?'
p25
tp26
Rp27
ag17
(g10
S'e\x10\xa9%\x80g|?'
p28
tp29
Rp30
aa(lp31
g17
(g10
S'&\xc8\x113\naw?'
p32
tp33
Rp34
ag17
(g10
S'\xc9\xb8\x8d\x01\x9f\xc2\x8c?'
p35
tp36
Rp37
aa(lp38
g17
(g10
S'V1#~?\xb3\xe0?'
p39
tp40
Rp41
ag17
(g10
S'\xb2\xc3G\xd0F\xb4\xe0?'
p42
tp43
Rp44
aatp45
.