(cnumpy.core.multiarray
_reconstruct
p0
(cnumpy
ndarray
p1
(I0
tp2
S'b'
p3
tp4
Rp5
(I1
(I4
tp6
cnumpy
dtype
p7
(S'f8'
p8
I0
I1
tp9
Rp10
(I3
S'<'
p11
NNNI-1
I-1
I0
tp12
bI00
S'*\x9e,o9\x8aR@\xbf@$J\x05\x0ft?\x00@g]\x0c}r=\xf8\xd3=\x08Y\xdc\xe0?'
p13
tp14
b(lp15
(lp16
cnumpy.core.multiarray
scalar
p17
(g10
S'\x83\xbe\x0e\xba%\xc4Q@'
p18
tp19
Rp20
ag17
(g10
S'\xd1}J$MPS@'
p21
tp22
Rp23
aa(lp24
g17
(g10
S'\r\x02\xccA\xa8\x12r?'
p25
tp26
Rp27
ag17
(g10
S'q\x7f|Rb\x0bv?'
p28
tp29
Rp30
aa(lp31
g17
(g10
S'\x9a\xcd\x1d\xef\xb3!e\xbf'
p32
tp33
Rp34
ag17
(g10
S'\xcc\xc1g\xef\xb3!e?'
p35
tp36
Rp37
aa(lp38
g17
(g10
S'\xdbuc\xf9\x8a\xdb\xe0?'
p39
tp40
Rp41
ag17
(g10
S"\x152\x18\x17'\xdd\xe0?"
p42
tp43
Rp44
aatp45
.