(cnumpy.core.multiarray
_reconstruct
p0
(cnumpy
ndarray
p1
(I0
tp2
S'b'
p3
tp4
Rp5
(I1
(I4
tp6
cnumpy
dtype
p7
(S'f8'
p8
I0
I1
tp9
Rp10
(I3
S'<'
p11
NNNI-1
I-1
I0
tp12
bI00
S'\x97\x04\xbfM_\xc3U@O\xd6\n+m\xa2k?\xc2\xa3A\x07\x12\x82u?[\x9f^\x8e|\xd6\xe0?'
p13
tp14
b(lp15
(lp16
cnumpy.core.multiarray
scalar
p17
(g10
S'\xa0\x196\xc1Y\xd3T@'
p18
tp19
Rp20
ag17
(g10
S'\x8e\xefG\xdad\xb3V@'
p21
tp22
Rp23
aa(lp24
g17
(g10
S'V\x95`~\x93\x96h?'
p25
tp26
Rp27
ag17
(g10
S'H\x17\xb5\xd7F\xaen?'
p28
tp29
Rp30
aa(lp31
g17
(g10
S'\x18!xw2\xd5d?'
p32
tp33
Rp34
ag17
(g10
S'|\x9bci\xc5L\x80?'
p35
tp36
Rp37
aa(lp38
g17
(g10
S'{\xe2\xaf\xf8\xa7\xd5\xe0?'
p39
tp40
Rp41
ag17
(g10
S';\\\r$Q\xd7\xe0?'
p42
tp43
Rp44
aatp45
.