(cnumpy.core.multiarray
_reconstruct
p0
(cnumpy
ndarray
p1
(I0
tp2
S'b'
p3
tp4
Rp5
(I1
(I4
tp6
cnumpy
dtype
p7
(S'f8'
p8
I0
I1
tp9
Rp10
(I3
S'<'
p11
NNNI-1
I-1
I0
tp12
bI00
S'\xbfs\xae\x89\xc1\x16`@\x82\xe1xk\x98Sw?#0\xc8\xb6\xe5\r\x83?{Y7+\xa7\xa5\xe0?'
p13
tp14
b(lp15
(lp16
cnumpy.core.multiarray
scalar
p17
(g10
S'\x96]Ez3\xc2]@'
p18
tp19
Rp20
ag17
(g10
S'\xb38:ViLa@'
p21
tp22
Rp23
aa(lp24
g17
(g10
S'\x8d\x9e\xcd\xb6\xe1Os?'
p25
tp26
Rp27
ag17
(g10
S'w$$ OW{?'
p28
tp29
Rp30
aa(lp31
g17
(g10
S'\xfc\\\xe3\x8c8\x17h?'
p32
tp33
Rp34
ag17
(g10
S'\x84\xc4+\xa5\xfe\n\x90?'
p35
tp36
Rp37
aa(lp38
g17
(g10
S'\x9c(\xd9(\xf8\xa4\xe0?'
p39
tp40
Rp41
ag17
(g10
S'Z\x8a\x95-V\xa6\xe0?'
p42
tp43
Rp44
aatp45
.