(cnumpy.core.multiarray
_reconstruct
p0
(cnumpy
ndarray
p1
(I0
tp2
S'b'
p3
tp4
Rp5
(I1
(I4
tp6
cnumpy
dtype
p7
(S'f8'
p8
I0
I1
tp9
Rp10
(I3
S'<'
p11
NNNI-1
I-1
I0
tp12
bI00
S'?75B\x83ug@ \xb8))\xd3\x8co?\x97DD\x00\x0c\xbc\x86?A\xca~\xd1b\xa7\xe0?'
p13
tp14
b(lp15
(lp16
cnumpy.core.multiarray
scalar
p17
(g10
S'\x90\t1)\xde?e@'
p18
tp19
Rp20
ag17
(g10
S'\xeed9[(\xabi@'
p21
tp22
Rp23
aa(lp24
g17
(g10
S'\xee%\xf3\xbe\x99\xfdg?'
p25
tp26
Rp27
ag17
(g10
S')%\xb0I\x06\x8es?'
p28
tp29
Rp30
aa(lp31
g17
(g10
S'@\x8a\x9b\xcc\x94no?'
p32
tp33
Rp34
ag17
(g10
S'O\xd3\xb0f9\xce\x92?'
p35
tp36
Rp37
aa(lp38
g17
(g10
S'7\x9d\xe6k\x9b\xa6\xe0?'
p39
tp40
Rp41
ag17
(g10
S'K\xf7\x167*\xa8\xe0?'
p42
tp43
Rp44
aatp45
.