(cnumpy.core.multiarray
_reconstruct
p0
(cnumpy
ndarray
p1
(I0
tp2
S'b'
p3
tp4
Rp5
(I1
(I4
tp6
cnumpy
dtype
p7
(S'f8'
p8
I0
I1
tp9
Rp10
(I3
S'<'
p11
NNNI-1
I-1
I0
tp12
bI00
S'\xe5?-r\xf8\xb5R@Yhp\x90O\xb4r?\\\xff\xb8\xfe\x81\x85~?\xc9u\xe8H\xb8_\xe0?'
p13
tp14
b(lp15
(lp16
cnumpy.core.multiarray
scalar
p17
(g10
S'^\xf1\xea\xef\x1a\xf9Q@'
p18
tp19
Rp20
ag17
(g10
S'l\x8eo\xf4\xd5rS@'
p21
tp22
Rp23
aa(lp24
g17
(g10
S'\xbcvz~\xd2\xefp?'
p25
tp26
Rp27
ag17
(g10
S'\xf6Yf\xa2\xccxt?'
p28
tp29
Rp30
aa(lp31
g17
(g10
S'\x0cm\xdb\x03\x10~r?'
p32
tp33
Rp34
ag17
(g10
S'\xd6H\xcb\xfcyF\x85?'
p35
tp36
Rp37
aa(lp38
g17
(g10
S'b\x11m\xcf\xfb^\xe0?'
p39
tp40
Rp41
ag17
(g10
S'0\xdac\xc2t`\xe0?'
p42
tp43
Rp44
aatp45
.