(cnumpy.core.multiarray
_reconstruct
p0
(cnumpy
ndarray
p1
(I0
tp2
S'b'
p3
tp4
Rp5
(I1
(I4
tp6
cnumpy
dtype
p7
(S'f8'
p8
I0
I1
tp9
Rp10
(I3
S'<'
p11
NNNI-1
I-1
I0
tp12
bI00
S'I\r\xcc\xb6\xdc~T@\\\xeaM*\x86Ip?\xb8\xd9\xd2\xfd9\x08\x80?W\xd6\xe0\xdc\x17\x95\xe0?'
p13
tp14
b(lp15
(lp16
cnumpy.core.multiarray
scalar
p17
(g10
S'S\t\xb6\xa8{\xa0S@'
p18
tp19
Rp20
ag17
(g10
S'?\x11\xe2\xc4=]U@'
p21
tp22
Rp23
aa(lp24
g17
(g10
S'l\n\xa6\x18\x96$m?'
p25
tp26
Rp27
ag17
(g10
S'\x82\xcfHH\xc1\x00r?'
p28
tp29
Rp30
aa(lp31
g17
(g10
S'\x04(i~i\xa5s?'
p32
tp33
Rp34
ag17
(g10
S'n\x1fq<\xbf=\x86?'
p35
tp36
Rp37
aa(lp38
g17
(g10
S'\xdd\t\x8c{N\x94\xe0?'
p39
tp40
Rp41
ag17
(g10
S'\xd1\xa25>\xe1\x95\xe0?'
p42
tp43
Rp44
aatp45
.