(cnumpy.core.multiarray
_reconstruct
p0
(cnumpy
ndarray
p1
(I0
tp2
S'b'
p3
tp4
Rp5
(I1
(I4
tp6
cnumpy
dtype
p7
(S'f8'
p8
I0
I1
tp9
Rp10
(I3
S'<'
p11
NNNI-1
I-1
I0
tp12
bI00
S'\x14SA\xa5\x16\xa2S@|am*2,u?\xab\\\xf7!\xd0:i?\x11\xc4\xf2\xaf7I\xe0?'
p13
tp14
b(lp15
(lp16
cnumpy.core.multiarray
scalar
p17
(g10
S'\x1b>r\xc1\x11\xd2R@'
p18
tp19
Rp20
ag17
(g10
S'\rh\x10\x89\x1brT@'
p21
tp22
Rp23
aa(lp24
g17
(g10
S'\x99\x8f\xe8\x98<+s?'
p25
tp26
Rp27
ag17
(g10
S"_3\xf2\xbb'-w?"
p28
tp29
Rp30
aa(lp31
g17
(g10
S'\x80\xca\xfa\xc9v|(?'
p32
tp33
Rp34
ag17
(g10
S'W\x86\xa7k\xecvx?'
p35
tp36
Rp37
aa(lp38
g17
(g10
S'vv\xa0\xbe\x89H\xe0?'
p39
tp40
Rp41
ag17
(g10
S'\xac\x11E\xa1\xe5I\xe0?'
p42
tp43
Rp44
aatp45
.