(cnumpy.core.multiarray
_reconstruct
p0
(cnumpy
ndarray
p1
(I0
tp2
S'b'
p3
tp4
Rp5
(I1
(I4
tp6
cnumpy
dtype
p7
(S'f8'
p8
I0
I1
tp9
Rp10
(I3
S'<'
p11
NNNI-1
I-1
I0
tp12
bI00
S'\x8c\xbf\x04x\xc8\x9fk@\xf9KM\xcb\xd1\x1c-?0V\x96\x00ZY3>\x816\xfc\x92oI\xe0?'
p13
tp14
b(lp15
(lp16
cnumpy.core.multiarray
scalar
p17
(g10
S'\x8e\xc8\xf6\x82\x16:i@'
p18
tp19
Rp20
ag17
(g10
S'\x8a\xb6\x12mz\x05n@'
p21
tp22
Rp23
aa(lp24
g17
(g10
S'\xc1x-Pwt*?'
p25
tp26
Rp27
ag17
(g10
S'1\x1fmF,\xc5/?'
p28
tp29
Rp30
aa(lp31
g17
(g10
S'\x01\r^\x96\xb1t[\xbf'
p32
tp33
Rp34
ag17
(g10
S'M\r\x0bC\xbbt[?'
p35
tp36
Rp37
aa(lp38
g17
(g10
S'bd\x00i\x1aH\xe0?'
p39
tp40
Rp41
ag17
(g10
S'\xa0\x08\xf8\xbc\xc4J\xe0?'
p42
tp43
Rp44
aatp45
.