(cnumpy.core.multiarray
_reconstruct
p0
(cnumpy
ndarray
p1
(I0
tp2
S'b'
p3
tp4
Rp5
(I1
(I4
tp6
cnumpy
dtype
p7
(S'f8'
p8
I0
I1
tp9
Rp10
(I3
S'<'
p11
NNNI-1
I-1
I0
tp12
bI00
S'\xad4\xac\xb0C\xd4a@E\xd0\xf5\xf6\x90\x87D?@&&\x00\x8e\x13\x81;\x88\xb8d\xf3$N\xe0?'
p13
tp14
b(lp15
(lp16
cnumpy.core.multiarray
scalar
p17
(g10
S'\x0e.80\x0f8`@'
p18
tp19
Rp20
ag17
(g10
S'L; 1xpc@'
p21
tp22
Rp23
aa(lp24
g17
(g10
S'\xc6\x16\xa6\xfb\x8bq;?'
p25
tp26
Rp27
ag17
(g10
S"'\x95\x18\xf0[VK?"
p28
tp29
Rp30
aa(lp31
g17
(g10
S'\xb6\xd3\x9ba\xf2\xb0c\xbf'
p32
tp33
Rp34
ag17
(g10
S'\xb6\xd3\x9ba\xf2\xb0c?'
p35
tp36
Rp37
aa(lp38
g17
(g10
S'\xe3\x85k\x80\nL\xe0?'
p39
tp40
Rp41
ag17
(g10
S'-\xeb]f?P\xe0?'
p42
tp43
Rp44
aatp45
.