(cnumpy.core.multiarray
_reconstruct
p0
(cnumpy
ndarray
p1
(I0
tp2
S'b'
p3
tp4
Rp5
(I1
(I4
tp6
cnumpy
dtype
p7
(S'f8'
p8
I0
I1
tp9
Rp10
(I3
S'<'
p11
NNNI-1
I-1
I0
tp12
bI00
S'\x05\x02V\x8e\xafR[@\x9e\xcb\x1b\xcc\xdb\xf5\xc6>n\xd4*=&\xccc?\x13\xc4W\x9d\x16\xb3\xdf?'
p13
tp14
b(lp15
(lp16
cnumpy.core.multiarray
scalar
p17
(g10
S'DWX#1pZ@'
p18
tp19
Rp20
ag17
(g10
S'\xc6\xacS\xf9-5\\@'
p21
tp22
Rp23
aa(lp24
g17
(g10
S'\xb1.\xff\xd3(\xb3\xd5\xbe'
p25
tp26
Rp27
ag17
(g10
S'(}\rP\x82T\xe6>'
p28
tp29
Rp30
aa(lp31
g17
(g10
S'\xda\x18\xbb\x17R\xa2\\?'
p32
tp33
Rp34
ag17
(g10
S'o\x1cxn#Gi?'
p35
tp36
Rp37
aa(lp38
g17
(g10
S'\xd8\xd4&\x82xG\xdf?'
p39
tp40
Rp41
ag17
(g10
S'\xa7YD\\Z\x0f\xe0?'
p42
tp43
Rp44
aatp45
.