(cnumpy.core.multiarray
_reconstruct
p0
(cnumpy
ndarray
p1
(I0
tp2
S'b'
p3
tp4
Rp5
(I1
(I4
tp6
cnumpy
dtype
p7
(S'f8'
p8
I0
I1
tp9
Rp10
(I3
S'<'
p11
NNNI-1
I-1
I0
tp12
bI00
S'=\x8f\xf7Am\x86h@L\xec4}J\xaa\x19?\xb5n\xe1\xbe\x19\xd0S?\xfc^\x9f\x04\xab2\xe0?'
p13
tp14
b(lp15
(lp16
cnumpy.core.multiarray
scalar
p17
(g10
S'`\xf7pr\xb0\xe6f@'
p18
tp19
Rp20
ag17
(g10
S"\x1a'~\x11*&j@"
p21
tp22
Rp23
aa(lp24
g17
(g10
S',y\xc7\x1f\x00I\x17?'
p25
tp26
Rp27
ag17
(g10
S'l_\xa2\xda\x94\x0b\x1c?'
p28
tp29
Rp30
aa(lp31
g17
(g10
S'\x9e\x925\xa2C&=?'
p32
tp33
Rp34
ag17
(g10
S'a\xbc\x9aJQ+`?'
p35
tp36
Rp37
aa(lp38
g17
(g10
S'\xc4S\x15)q0\xe0?'
p39
tp40
Rp41
ag17
(g10
S'4j)\xe0\xe44\xe0?'
p42
tp43
Rp44
aatp45
.