(cnumpy.core.multiarray
_reconstruct
p0
(cnumpy
ndarray
p1
(I0
tp2
S'b'
p3
tp4
Rp5
(I1
(I4
tp6
cnumpy
dtype
p7
(S'f8'
p8
I0
I1
tp9
Rp10
(I3
S'<'
p11
NNNI-1
I-1
I0
tp12
bI00
S'qH\xfe\x90\x9e#S@4\x9a\xa8\xd0+\xf2v?\x85hD\x83a&\xa8?\xbedEV\xbd\x1f\xe0?'
p13
tp14
b(lp15
(lp16
cnumpy.core.multiarray
scalar
p17
(g10
S'\xc56\xcaO\x8e=R@'
p18
tp19
Rp20
ag17
(g10
S'\x1dZ2\xd2\xae\tT@'
p21
tp22
Rp23
aa(lp24
g17
(g10
S'\x12\x8f\xf4o\x87Lt?'
p25
tp26
Rp27
ag17
(g10
S'V\xa5\\1\xd0\x97y?'
p28
tp29
Rp30
aa(lp31
g17
(g10
S'<\xab7q\xe7\xac\xa3?'
p32
tp33
Rp34
ag17
(g10
S'\xce%Q\x95\xdb\x9f\xac?'
p35
tp36
Rp37
aa(lp38
g17
(g10
S'9\xe2\x9dE\xfd\x1e\xe0?'
p39
tp40
Rp41
ag17
(g10
S'C\xe7\xecf} \xe0?'
p42
tp43
Rp44
aatp45
.