(cnumpy.core.multiarray
_reconstruct
p0
(cnumpy
ndarray
p1
(I0
tp2
S'b'
p3
tp4
Rp5
(I1
(I4
tp6
cnumpy
dtype
p7
(S'f8'
p8
I0
I1
tp9
Rp10
(I3
S'<'
p11
NNNI-1
I-1
I0
tp12
bI00
S'  \xe3\xf5NMQ@]W\r\xbe\x06\xb3\x96?s\xac\xf8\xf5\xddh\xb0?\xca\xd0y\xcf\xcf\xa6\xe0?'
p13
tp14
b(lp15
(lp16
cnumpy.core.multiarray
scalar
p17
(g10
S'\xff6\xac/\xe7^O@'
p18
tp19
Rp20
ag17
(g10
S'\xc1$\xf0S*\xebR@'
p21
tp22
Rp23
aa(lp24
g17
(g10
S'bDt\t|\xeb\x92?'
p25
tp26
Rp27
ag17
(g10
S'Xj\xa6r\x91z\x9a?'
p28
tp29
Rp30
aa(lp31
g17
(g10
S'\x8c\x8dae}\xb2\xa1?'
p32
tp33
Rp34
ag17
(g10
S' \x92@9}\xf8\xb7?'
p35
tp36
Rp37
aa(lp38
g17
(g10
S'H\xf5\xa6RG\xa6\xe0?'
p39
tp40
Rp41
ag17
(g10
S'L\xacLLX\xa7\xe0?'
p42
tp43
Rp44
aatp45
.