(cnumpy.core.multiarray
_reconstruct
p0
(cnumpy
ndarray
p1
(I0
tp2
S'b'
p3
tp4
Rp5
(I1
(I4
tp6
cnumpy
dtype
p7
(S'f8'
p8
I0
I1
tp9
Rp10
(I3
S'<'
p11
NNNI-1
I-1
I0
tp12
bI00
S'\xb4\xe4\xeb\xecTXS@Tc6\x06\nPx?\x180Ny9<\xac?\xc1\x9bi\xe1a\x80\xe0?'
p13
tp14
b(lp15
(lp16
cnumpy.core.multiarray
scalar
p17
(g10
S'3Q\xff\xf0@TR@'
p18
tp19
Rp20
ag17
(g10
S'5x\xd8\xe8h\\T@'
p21
tp22
Rp23
aa(lp24
g17
(g10
S'\xd8%\xa2\xdb\x8a4u?'
p25
tp26
Rp27
ag17
(g10
S'\xd0\xa0\xca0\x89k{?'
p28
tp29
Rp30
aa(lp31
g17
(g10
S'`\xee\x84f\xffk\xa6?'
p32
tp33
Rp34
ag17
(g10
S'\xe8\xb8\x0b\xc69\x06\xb1?'
p35
tp36
Rp37
aa(lp38
g17
(g10
S'\xe8fHH\x9b\x7f\xe0?'
p39
tp40
Rp41
ag17
(g10
S'\x9a\xd0\x8az(\x81\xe0?'
p42
tp43
Rp44
aatp45
.