(cnumpy.core.multiarray
_reconstruct
p0
(cnumpy
ndarray
p1
(I0
tp2
S'b'
p3
tp4
Rp5
(I1
(I4
tp6
cnumpy
dtype
p7
(S'f8'
p8
I0
I1
tp9
Rp10
(I3
S'<'
p11
NNNI-1
I-1
I0
tp12
bI00
S'\xbe\xa4Y\xe0EsT@\x04\xc8\xb9\xd8c\xe8o?\x88\xa3[\x1erC\xc3?eE\x01<\x8f?\xe0?'
p13
tp14
b(lp15
(lp16
cnumpy.core.multiarray
scalar
p17
(g10
S'4<LF]tS@'
p18
tp19
Rp20
ag17
(g10
S'H\rgz.rU@'
p21
tp22
Rp23
aa(lp24
g17
(g10
S'2>t\xa3\xe8_k?'
p25
tp26
Rp27
ag17
(g10
S'\xeb\xa8\xff\x86o8r?'
p28
tp29
Rp30
aa(lp31
g17
(g10
S'a\xa83~\xb7\xf0\xbd?'
p32
tp33
Rp34
ag17
(g10
S'\xe0r\x9d}\x88\x8e\xc7?'
p35
tp36
Rp37
aa(lp38
g17
(g10
S'yOM\xee\x91>\xe0?'
p39
tp40
Rp41
ag17
(g10
S'Q;\xb5\x89\x8c@\xe0?'
p42
tp43
Rp44
aatp45
.