(cnumpy.core.multiarray
_reconstruct
p0
(cnumpy
ndarray
p1
(I0
tp2
S'b'
p3
tp4
Rp5
(I1
(I4
tp6
cnumpy
dtype
p7
(S'f8'
p8
I0
I1
tp9
Rp10
(I3
S'<'
p11
NNNI-1
I-1
I0
tp12
bI00
S"\x1d\xb7\\\x11\xeb'T@\x84J!\xab'KR?\xc0u\xf7r\xd3t\xb4?\xccD\xdb\x06`\x8d\xe0?"
p13
tp14
b(lp15
(lp16
cnumpy.core.multiarray
scalar
p17
(g10
S'DL\xae\xbc+oS@'
p18
tp19
Rp20
ag17
(g10
S'\xf6!\x0bf\xaa\xe0T@'
p21
tp22
Rp23
aa(lp24
g17
(g10
S'$U]\xa6\x85aN?'
p25
tp26
Rp27
ag17
(g10
S'v\xea\x13\x83\x8ceU?'
p28
tp29
Rp30
aa(lp31
g17
(g10
S'{7\x8a^\x0e\x0f\xb2?'
p32
tp33
Rp34
ag17
(g10
S'\x05\xb4d\x87\x98\xda\xb6?'
p35
tp36
Rp37
aa(lp38
g17
(g10
S'Z\xa2eqn\x8b\xe0?'
p39
tp40
Rp41
ag17
(g10
S'>\xe7P\x9cQ\x8f\xe0?'
p42
tp43
Rp44
aatp45
.