(cnumpy.core.multiarray
_reconstruct
p0
(cnumpy
ndarray
p1
(I0
tp2
S'b'
p3
tp4
Rp5
(I1
(I4
tp6
cnumpy
dtype
p7
(S'f8'
p8
I0
I1
tp9
Rp10
(I3
S'<'
p11
NNNI-1
I-1
I0
tp12
bI00
S'\x90\xa29+\xbcPa@u\xd0\xd1\xa4K\x1e\x7f?\x89\xf04rE\xbb\xbb?\xed\r\xb2W\x1e\xad\xe0?'
p13
tp14
b(lp15
(lp16
cnumpy.core.multiarray
scalar
p17
(g10
S'$\x8a\xa6\x17I\xea^@'
p18
tp19
Rp20
ag17
(g10
S'\x0e\x00\xa0\xcaS,c@'
p21
tp22
Rp23
aa(lp24
g17
(g10
S'VE\x0beRVw?'
p25
tp26
Rp27
ag17
(g10
S'\xca-Lr"s\x83?'
p28
tp29
Rp30
aa(lp31
g17
(g10
S'\xd1g\x9e3e\xf8\xad?'
p32
tp33
Rp34
ag17
(g10
S'\x95VM%,=\xc4?'
p35
tp36
Rp37
aa(lp38
g17
(g10
S'\x92\xb5K\xead\xac\xe0?'
p39
tp40
Rp41
ag17
(g10
S'Hf\x18\xc5\xd7\xad\xe0?'
p42
tp43
Rp44
aatp45
.