(cnumpy.core.multiarray
_reconstruct
p0
(cnumpy
ndarray
p1
(I0
tp2
S'b'
p3
tp4
Rp5
(I1
(I4
tp6
cnumpy
dtype
p7
(S'f8'
p8
I0
I1
tp9
Rp10
(I3
S'<'
p11
NNNI-1
I-1
I0
tp12
bI00
S'\xfa-#\x15\xdd\xefT@\xca\x81\xc4\xabk\\h?\rDv/\x87*\xb7?F\xd7`\r\x8a\xc8\xe0?'
p13
tp14
b(lp15
(lp16
cnumpy.core.multiarray
scalar
p17
(g10
S'\x8d}\xaf\xb5\xb2iT@'
p18
tp19
Rp20
ag17
(g10
S'g\xde\x96t\x07vU@'
p21
tp22
Rp23
aa(lp24
g17
(g10
S'p\xfc\xa1<\x8b\x8fg?'
p25
tp26
Rp27
ag17
(g10
S'$\x07\xe7\x1aL)i?'
p28
tp29
Rp30
aa(lp31
g17
(g10
S'\xbe\x1a\x8b#\xa6\x0f\xb3?'
p32
tp33
Rp34
ag17
(g10
S'\\ma;hE\xbb?'
p35
tp36
Rp37
aa(lp38
g17
(g10
S'Yg\x93\xef\xe8\xc7\xe0?'
p39
tp40
Rp41
ag17
(g10
S'3G.++\xc9\xe0?'
p42
tp43
Rp44
aatp45
.