(cnumpy.core.multiarray
_reconstruct
p0
(cnumpy
ndarray
p1
(I0
tp2
S'b'
p3
tp4
Rp5
(I1
(I4
tp6
cnumpy
dtype
p7
(S'f8'
p8
I0
I1
tp9
Rp10
(I3
S'<'
p11
NNNI-1
I-1
I0
tp12
bI00
S'\xa1Sy7\xcaWQ@XU\xca[\xc7D\x81?R\x1b1\xdb\x00\x8a\xa3?\xcb\xacbU{n\xe0?'
p13
tp14
b(lp15
(lp16
cnumpy.core.multiarray
scalar
p17
(g10
S'm\xdd5+%oP@'
p18
tp19
Rp20
ag17
(g10
S'\xd5\xc9\xbcCo@R@'
p21
tp22
Rp23
aa(lp24
g17
(g10
S'\xef\xfa4\xb7\xb3\x96~?'
p25
tp26
Rp27
ag17
(g10
S'8-\xfa\xdb4>\x83?'
p28
tp29
Rp30
aa(lp31
g17
(g10
S'D}\xd0\xa8\x7f\xbc\x9d?'
p32
tp33
Rp34
ag17
(g10
S'\x02\xf8\xf9\xe1\xc15\xa8?'
p35
tp36
Rp37
aa(lp38
g17
(g10
S'~u\xeaO\xd2m\xe0?'
p39
tp40
Rp41
ag17
(g10
S'\x18\xe4\xdaZ$o\xe0?'
p42
tp43
Rp44
aatp45
.