(cnumpy.core.multiarray
_reconstruct
p0
(cnumpy
ndarray
p1
(I0
tp2
S'b'
p3
tp4
Rp5
(I1
(I4
tp6
cnumpy
dtype
p7
(S'f8'
p8
I0
I1
tp9
Rp10
(I3
S'<'
p11
NNNI-1
I-1
I0
tp12
bI00
S'~{\xafJ\xfe&R@\x00\x9ac\xdfT``?i\xce\xef6G\x88\xad?\x1e,\xd1\x0e\xdc\xa0\xe0?'
p13
tp14
b(lp15
(lp16
cnumpy.core.multiarray
scalar
p17
(g10
S'j=$Z,\x80Q@'
p18
tp19
Rp20
ag17
(g10
S'\x92\xb9:;\xd0\xcdR@'
p21
tp22
Rp23
aa(lp24
g17
(g10
S'z \xb0\xb5\xae\x90\\?'
p25
tp26
Rp27
ag17
(g10
S'\xc3#\xefcRxb?'
p28
tp29
Rp30
aa(lp31
g17
(g10
S'NL\xb9\xf5\x06\x10\xaa?'
p32
tp33
Rp34
ag17
(g10
S'B(\x13\xbcC\x80\xb0?'
p35
tp36
Rp37
aa(lp38
g17
(g10
S'\xd5\xfar\xa6\x8a\x9f\xe0?'
p39
tp40
Rp41
ag17
(g10
S'g]/w-\xa2\xe0?'
p42
tp43
Rp44
aatp45
.