(cnumpy.core.multiarray
_reconstruct
p0
(cnumpy
ndarray
p1
(I0
tp2
S'b'
p3
tp4
Rp5
(I1
(I4
tp6
cnumpy
dtype
p7
(S'f8'
p8
I0
I1
tp9
Rp10
(I3
S'<'
p11
NNNI-1
I-1
I0
tp12
bI00
S'\xe9l\x8d\x19&QS@\x81\xefd\xe9\xe25Z?\xd2\xd9\xe4HuU\xaa?\xdc:z\x07\xfc\xb5\xe0?'
p13
tp14
b(lp15
(lp16
cnumpy.core.multiarray
scalar
p17
(g10
S'*i\xddZV\x9bR@'
p18
tp19
Rp20
ag17
(g10
S'\xa8p=\xd8\xf5\x06T@'
p21
tp22
Rp23
aa(lp24
g17
(g10
S'\x08[o\x88\xe5zV?'
p25
tp26
Rp27
ag17
(g10
S'\xfa\x83ZJ\xe0\xf0]?'
p28
tp29
Rp30
aa(lp31
g17
(g10
S'\xa7\x8cxh]H\xa7?'
p32
tp33
Rp34
ag17
(g10
S'\xfd&Q)\x8db\xad?'
p35
tp36
Rp37
aa(lp38
g17
(g10
S'x<\xc6\xbf}\xb4\xe0?'
p39
tp40
Rp41
ag17
(g10
S'@9.Oz\xb7\xe0?'
p42
tp43
Rp44
aatp45
.