(cnumpy.core.multiarray
_reconstruct
p0
(cnumpy
ndarray
p1
(I0
tp2
S'b'
p3
tp4
Rp5
(I1
(I4
tp6
cnumpy
dtype
p7
(S'f8'
p8
I0
I1
tp9
Rp10
(I3
S'<'
p11
NNNI-1
I-1
I0
tp12
bI00
S'+h\\N\xb9]S@\xf0\xf6\xe3\xf2\xcaPu?9hdX*z\xb2?h\xc4\r\t\x1e\xa2\xe0?'
p13
tp14
b(lp15
(lp16
cnumpy.core.multiarray
scalar
p17
(g10
S'\\\x01\xbc2\xdaXR@'
p18
tp19
Rp20
ag17
(g10
S'\xfa\xce\xfci\x98bT@'
p21
tp22
Rp23
aa(lp24
g17
(g10
S'\xb8\x0f\x9cm\xaapr?'
p25
tp26
Rp27
ag17
(g10
S'(\xde+x\xeb0x?'
p28
tp29
Rp30
aa(lp31
g17
(g10
S"'U\x96\xf0\x9d~\xad?"
p32
tp33
Rp34
ag17
(g10
S'\xde\xa5}\xb8\x055\xb6?'
p35
tp36
Rp37
aa(lp38
g17
(g10
S'\x0bw\xb2\xc0B\xa1\xe0?'
p39
tp40
Rp41
ag17
(g10
S'\xc5\x11iQ\xf9\xa2\xe0?'
p42
tp43
Rp44
aatp45
.