(cnumpy.core.multiarray
_reconstruct
p0
(cnumpy
ndarray
p1
(I0
tp2
S'b'
p3
tp4
Rp5
(I1
(I4
tp6
cnumpy
dtype
p7
(S'f8'
p8
I0
I1
tp9
Rp10
(I3
S'<'
p11
NNNI-1
I-1
I0
tp12
bI00
S'~CL\x9c\x9bk`@\xe6*\xb5f1Sg?@z\xf24}\xb6\xb5?v\xdey\xe1m\xa7\xe0?'
p13
tp14
b(lp15
(lp16
cnumpy.core.multiarray
scalar
p17
(g10
S'\xdfE@\xb0\xb7~^@'
p18
tp19
Rp20
ag17
(g10
S'\x0cdx`\xdb\x97a@'
p21
tp22
Rp23
aa(lp24
g17
(g10
S'\\\x91\xe3\xbe,\x03b?'
p25
tp26
Rp27
ag17
(g10
S'p\xc4\x86\x0e6\xa3l?'
p28
tp29
Rp30
aa(lp31
g17
(g10
S'\x1c"\xf3\xdc\x84\r\xb0?'
p32
tp33
Rp34
ag17
(g10
S'd\xd2\xf1\x8cu_\xbb?'
p35
tp36
Rp37
aa(lp38
g17
(g10
S'&\x1b9zP\xa6\xe0?'
p39
tp40
Rp41
ag17
(g10
S'\xc6\xa1\xbaH\x8b\xa8\xe0?'
p42
tp43
Rp44
aatp45
.