(cnumpy.core.multiarray
_reconstruct
p0
(cnumpy
ndarray
p1
(I0
tp2
S'b'
p3
tp4
Rp5
(I1
(I4
tp6
cnumpy
dtype
p7
(S'f8'
p8
I0
I1
tp9
Rp10
(I3
S'<'
p11
NNNI-1
I-1
I0
tp12
bI00
S'\x9aF\xc2/l\xddQ@^W\xd6\xc0\xa9V{?\xdeU\xa3d\xf0!\xb0?\xeeUk \xb8r\xe0?'
p13
tp14
b(lp15
(lp16
cnumpy.core.multiarray
scalar
p17
(g10
S'!\xf2\x8e]\xfe\xf1P@'
p18
tp19
Rp20
ag17
(g10
S'\x13\x9b\xf5\x01\xda\xc8R@'
p21
tp22
Rp23
aa(lp24
g17
(g10
S'\x06al\xf7\xec\x01x?'
p25
tp26
Rp27
ag17
(g10
S'\xb6M@\x8af\xab~?'
p28
tp29
Rp30
aa(lp31
g17
(g10
S'\x02yxJ\xcf\xa8\xa9?'
p32
tp33
Rp34
ag17
(g10
S';o\n$yo\xb3?'
p35
tp36
Rp37
aa(lp38
g17
(g10
S'D\x16\xeb\x04\xf7q\xe0?'
p39
tp40
Rp41
ag17
(g10
S'\x98\x95\xeb;ys\xe0?'
p42
tp43
Rp44
aatp45
.