(cnumpy.core.multiarray
_reconstruct
p0
(cnumpy
ndarray
p1
(I0
tp2
S'b'
p3
tp4
Rp5
(I1
(I4
tp6
cnumpy
dtype
p7
(S'f8'
p8
I0
I1
tp9
Rp10
(I3
S'<'
p11
NNNI-1
I-1
I0
tp12
bI00
S'\xef\n\x01\x11\x9cXU@\xc3\xe5\xb1\xd7\xb5\x8di?o+"> \x8a\xb6?\nu\xe5\x1c9\xa9\xe0?'
p13
tp14
b(lp15
(lp16
cnumpy.core.multiarray
scalar
p17
(g10
S'\x97*\xa7\x19hLT@'
p18
tp19
Rp20
ag17
(g10
S'G\xebZ\x08\xd0dV@'
p21
tp22
Rp23
aa(lp24
g17
(g10
S'O\x9ck(h\xafe?'
p25
tp26
Rp27
ag17
(g10
S'7/\xf8\x86\x03lm?'
p28
tp29
Rp30
aa(lp31
g17
(g10
S'"\x1e\xd9\xdb\xe6m\xb2?'
p32
tp33
Rp34
ag17
(g10
S'\xbc8k\xa0Y\xa6\xba?'
p35
tp36
Rp37
aa(lp38
g17
(g10
S'\t{ \xd0 \xa8\xe0?'
p39
tp40
Rp41
ag17
(g10
S'\x0bo\xaaiQ\xaa\xe0?'
p42
tp43
Rp44
aatp45
.