(cnumpy.core.multiarray
_reconstruct
p0
(cnumpy
ndarray
p1
(I0
tp2
S'b'
p3
tp4
Rp5
(I1
(I4
tp6
cnumpy
dtype
p7
(S'f8'
p8
I0
I1
tp9
Rp10
(I3
S'<'
p11
NNNI-1
I-1
I0
tp12
bI00
S'\xc4V@\t\xf6DR@~NK%\xa6]x?\x92\x1aL\x0b\x9b\xd8\xb5?I\xbe\xa7\xf0i\x17\xe0?'
p13
tp14
b(lp15
(lp16
cnumpy.core.multiarray
scalar
p17
(g10
S'}\x9fN\xe9zgQ@'
p18
tp19
Rp20
ag17
(g10
S'\x0b\x0e2)q"S@'
p21
tp22
Rp23
aa(lp24
g17
(g10
S'\xbc`\xef\x89b\x81u?'
p25
tp26
Rp27
ag17
(g10
S'@<\xa7\xc0\xe99{?'
p28
tp29
Rp30
aa(lp31
g17
(g10
S'7\x08G\xa4\xb1\xb9\xb1?'
p32
tp33
Rp34
ag17
(g10
S'\xed,Qr\x84\xf7\xb9?'
p35
tp36
Rp37
aa(lp38
g17
(g10
S' \x0c\x9b\xb7\xa6\x16\xe0?'
p39
tp40
Rp41
ag17
(g10
S'rp\xb4)-\x18\xe0?'
p42
tp43
Rp44
aatp45
.