(cnumpy.core.multiarray
_reconstruct
p0
(cnumpy
ndarray
p1
(I0
tp2
S'b'
p3
tp4
Rp5
(I1
(I4
tp6
cnumpy
dtype
p7
(S'f8'
p8
I0
I1
tp9
Rp10
(I3
S'<'
p11
NNNI-1
I-1
I0
tp12
bI00
S'\xde\x02\x8e5\xfamg@\xabc\xa8\xcb\xb0\x90W?\xe7\x1b\xe1(B\x7f\xd6?Tvn6\x9d\xb9\xe0?'
p13
tp14
b(lp15
(lp16
cnumpy.core.multiarray
scalar
p17
(g10
S'F\xf9\xa97vXf@'
p18
tp19
Rp20
ag17
(g10
S'v\x0cr3~\x83h@'
p21
tp22
Rp23
aa(lp24
g17
(g10
S'\xad(\rq>\xa3U?'
p25
tp26
Rp27
ag17
(g10
S'\xa9\x9eC&#~Y?'
p28
tp29
Rp30
aa(lp31
g17
(g10
S'0\xd8\xb1\xeb\x85\n\xbb?'
p32
tp33
Rp34
ag17
(g10
S'\xe1\xe0jk\xf1\x1d\xe3?'
p35
tp36
Rp37
aa(lp38
g17
(g10
S'g\xba[\xbe\xdd\xb8\xe0?'
p39
tp40
Rp41
ag17
(g10
S'A2\x81\xae\\\xba\xe0?'
p42
tp43
Rp44
aatp45
.