(cnumpy.core.multiarray
_reconstruct
p0
(cnumpy
ndarray
p1
(I0
tp2
S'b'
p3
tp4
Rp5
(I1
(I4
tp6
cnumpy
dtype
p7
(S'f8'
p8
I0
I1
tp9
Rp10
(I3
S'<'
p11
NNNI-1
I-1
I0
tp12
bI00
S'\xee4D\xd5eIi@dg\xec\xd3{\xa4I?W\xd4aXix\xda?9\x9a\x17)0\x97\xe0?'
p13
tp14
b(lp15
(lp16
cnumpy.core.multiarray
scalar
p17
(g10
S'\xaf7Q\xa1~6h@'
p18
tp19
Rp20
ag17
(g10
S'-27\tM\\j@'
p21
tp22
Rp23
aa(lp24
g17
(g10
S'\x1b:l\xb9y\x9fI?'
p25
tp26
Rp27
ag17
(g10
S'\xad\x94l\xee}\xa9I?'
p28
tp29
Rp30
aa(lp31
g17
(g10
S'Hq\xa40\xfd`\xb6?'
p32
tp33
Rp34
ag17
(g10
S'.FM\xb2I\xac\xe7?'
p35
tp36
Rp37
aa(lp38
g17
(g10
S'\xb6\x89\x13\xe9i\x96\xe0?'
p39
tp40
Rp41
ag17
(g10
S'\xbc\xaa\x1bi\xf6\x97\xe0?'
p42
tp43
Rp44
aatp45
.