(cnumpy.core.multiarray
_reconstruct
p0
(cnumpy
ndarray
p1
(I0
tp2
S'b'
p3
tp4
Rp5
(I1
(I4
tp6
cnumpy
dtype
p7
(S'f8'
p8
I0
I1
tp9
Rp10
(I3
S'<'
p11
NNNI-1
I-1
I0
tp12
bI00
S'=-$\xbd~}Q@4\xbdz\xdfw\x9fa?P\xbb\xa8\xe6\r\x98\xb0?d\xb7\x9f\xcc\xeb\xa4\xe0?'
p13
tp14
b(lp15
(lp16
cnumpy.core.multiarray
scalar
p17
(g10
S'_)\xd1\x0c\xa5\xdaP@'
p18
tp19
Rp20
ag17
(g10
S'\x1b1wmX R@'
p21
tp22
Rp23
aa(lp24
g17
(g10
S'\xd4\xc2{\xb3G\xc6^?'
p25
tp26
Rp27
ag17
(g10
S'\xfe\x987\xe5\xcb\xdbc?'
p28
tp29
Rp30
aa(lp31
g17
(g10
S'\x9b\xd4"t\xdd%\xad?'
p32
tp33
Rp34
ag17
(g10
S'R\x0c@\x13-\x9d\xb2?'
p35
tp36
Rp37
aa(lp38
g17
(g10
S"\xfd'\n4\x9b\xa3\xe0?"
p39
tp40
Rp41
ag17
(g10
S'\xcbF5e<\xa6\xe0?'
p42
tp43
Rp44
aatp45
.