(cnumpy.core.multiarray
_reconstruct
p0
(cnumpy
ndarray
p1
(I0
tp2
S'b'
p3
tp4
Rp5
(I1
(I4
tp6
cnumpy
dtype
p7
(S'f8'
p8
I0
I1
tp9
Rp10
(I3
S'<'
p11
NNNI-1
I-1
I0
tp12
bI00
S'Ls\xf01d2T@) \n\x08"vq?[\xe3~\x1c\xcdI\xb0?\xca:f[\xd5t\xe0?'
p13
tp14
b(lp15
(lp16
cnumpy.core.multiarray
scalar
p17
(g10
S'\x8b\x84\xf5St7S@'
p18
tp19
Rp20
ag17
(g10
S'\rb\xeb\x0fT-U@'
p21
tp22
Rp23
aa(lp24
g17
(g10
S'vh<])Rn?'
p25
tp26
Rp27
ag17
(g10
S'\x17\x0cva/\xc3s?'
p28
tp29
Rp30
aa(lp31
g17
(g10
S'\xa4\x9a\x1b#\x83\xbd\xaa?'
p32
tp33
Rp34
ag17
(g10
S'd\xf9o\xa7\xd84\xb3?'
p35
tp36
Rp37
aa(lp38
g17
(g10
S'\xe7\x08zL\xf0s\xe0?'
p39
tp40
Rp41
ag17
(g10
S'\xadlRj\xbau\xe0?'
p42
tp43
Rp44
aatp45
.