(cnumpy.core.multiarray
_reconstruct
p0
(cnumpy
ndarray
p1
(I0
tp2
S'b'
p3
tp4
Rp5
(I1
(I4
tp6
cnumpy
dtype
p7
(S'f8'
p8
I0
I1
tp9
Rp10
(I3
S'<'
p11
NNNI-1
I-1
I0
tp12
bI00
S'\x85[$R\xcdzT@\xe7dB\x95""t?\'\x97\xc0\xa6\xc7\xec\xae?\x84\xf0\xf4\xd7_L\xe0?'
p13
tp14
b(lp15
(lp16
cnumpy.core.multiarray
scalar
p17
(g10
S'-\xfe\xd3d(tS@'
p18
tp19
Rp20
ag17
(g10
S'\xdd\xb8t?r\x81U@'
p21
tp22
Rp23
aa(lp24
g17
(g10
S'\x7fBG\xb5\x17\x86q?'
p25
tp26
Rp27
ag17
(g10
S'O\x87=u-\xbev?'
p28
tp29
Rp30
aa(lp31
g17
(g10
S'!d\x8dGu\x13\xa9?'
p32
tp33
Rp34
ag17
(g10
S'\x17\xe5\xf9\x02\rc\xb2?'
p35
tp36
Rp37
aa(lp38
g17
(g10
S'\xbdj\xd7t\x8dK\xe0?'
p39
tp40
Rp41
ag17
(g10
S'Kv\x12;2M\xe0?'
p42
tp43
Rp44
aatp45
.