(cnumpy.core.multiarray
_reconstruct
p0
(cnumpy
ndarray
p1
(I0
tp2
S'b'
p3
tp4
Rp5
(I1
(I4
tp6
cnumpy
dtype
p7
(S'f8'
p8
I0
I1
tp9
Rp10
(I3
S'<'
p11
NNNI-1
I-1
I0
tp12
bI00
S'\x93"s\xe2\xaezT@\x90\xf6+!v\xa9q?\xe6\xb62!0\xc2\xae?\xe8\x06k\xcb\xfc\xe6\xe0?'
p13
tp14
b(lp15
(lp16
cnumpy.core.multiarray
scalar
p17
(g10
S'!Y\xd9F\x06hS@'
p18
tp19
Rp20
ag17
(g10
S'\x05\xec\x0c~W\x8dU@'
p21
tp22
Rp23
aa(lp24
g17
(g10
S'(aWCcUn?'
p25
tp26
Rp27
ag17
(g10
S'\x8c<\xac\xa0:(t?'
p28
tp29
Rp30
aa(lp31
g17
(g10
S'\xd7=\x1eJ\xf2\xce\xa8?'
p32
tp33
Rp34
ag17
(g10
S'\xfb\x97#\xfc\xb6Z\xb2?'
p35
tp36
Rp37
aa(lp38
g17
(g10
S'1\x0ev]\x12\xe6\xe0?'
p39
tp40
Rp41
ag17
(g10
S'\x9f\xff_9\xe7\xe7\xe0?'
p42
tp43
Rp44
aatp45
.