(cnumpy.core.multiarray
_reconstruct
p0
(cnumpy
ndarray
p1
(I0
tp2
S'b'
p3
tp4
Rp5
(I1
(I4
tp6
cnumpy
dtype
p7
(S'f8'
p8
I0
I1
tp9
Rp10
(I3
S'<'
p11
NNNI-1
I-1
I0
tp12
bI00
S']/\xbd=\x92\x14R@\x1cB\x8eJ\xe8\xbcs?\xed\xc5\xcb6j\xf7\xb2?U\xda[g\xb5N\xe0?'
p13
tp14
b(lp15
(lp16
cnumpy.core.multiarray
scalar
p17
(g10
S'\xa4"\xc3\xcaoDQ@'
p18
tp19
Rp20
ag17
(g10
S'\x16<\xb7\xb0\xb4\xe4R@'
p21
tp22
Rp23
aa(lp24
g17
(g10
S'\x04V|ytgq?'
p25
tp26
Rp27
ag17
(g10
S'4.\xa0\x1b\\\x12v?'
p28
tp29
Rp30
aa(lp31
g17
(g10
S"]\xa8'r`r\xaf?"
p32
tp33
Rp34
ag17
(g10
S'\xac\xb7\x834\xa45\xb6?'
p35
tp36
Rp37
aa(lp38
g17
(g10
S'w\xb5\xf2{\xdbM\xe0?'
p39
tp40
Rp41
ag17
(g10
S'3\xff\xc4R\x8fO\xe0?'
p42
tp43
Rp44
aatp45
.