(cnumpy.core.multiarray
_reconstruct
p0
(cnumpy
ndarray
p1
(I0
tp2
S'b'
p3
tp4
Rp5
(I1
(I4
tp6
cnumpy
dtype
p7
(S'f8'
p8
I0
I1
tp9
Rp10
(I3
S'<'
p11
NNNI-1
I-1
I0
tp12
bI00
S'de\x9a\xea\xb0\xcfQ@\x84\x04\xb1Ym\xe0a?=DZd\x9e\x87\xa8?!\xfc\xd2\xb9p\x8e\xe0?'
p13
tp14
b(lp15
(lp16
cnumpy.core.multiarray
scalar
p17
(g10
S'\x9d!\xf9\x00\r.Q@'
p18
tp19
Rp20
ag17
(g10
S'+\xa9;\xd4TqR@'
p21
tp22
Rp23
aa(lp24
g17
(g10
S'+#\x87i\xb6u_?'
p25
tp26
Rp27
ag17
(g10
S'rw\x9e~\xff\x05d?'
p28
tp29
Rp30
aa(lp31
g17
(g10
S'!\x8e\xd7p8\xa9\xa5?'
p32
tp33
Rp34
ag17
(g10
S'Y\xfa\xdcW\x04f\xab?'
p35
tp36
Rp37
aa(lp38
g17
(g10
S']\xde`\xad5\x8d\xe0?'
p39
tp40
Rp41
ag17
(g10
S'\xe5\x19E\xc6\xab\x8f\xe0?'
p42
tp43
Rp44
aatp45
.