(cnumpy.core.multiarray
_reconstruct
p0
(cnumpy
ndarray
p1
(I0
tp2
S'b'
p3
tp4
Rp5
(I1
(I4
tp6
cnumpy
dtype
p7
(S'f8'
p8
I0
I1
tp9
Rp10
(I3
S'<'
p11
NNNI-1
I-1
I0
tp12
bI00
S'\x044&^\x07\x05U@\x9c}\x13&wSo?\xbd\xf5\x0f0\x7f\xe8\xa7?l\x83w@A7\xe0?'
p13
tp14
b(lp15
(lp16
cnumpy.core.multiarray
scalar
p17
(g10
S'+\xb1wq\xc9\x0fT@'
p18
tp19
Rp20
ag17
(g10
S'\xdd\xb6\xd4JE\xfaU@'
p21
tp22
Rp23
aa(lp24
g17
(g10
S'mS3k+ak?'
p25
tp26
Rp27
ag17
(g10
S'\xe5\xd3yp\xe1\xa2q?'
p28
tp29
Rp30
aa(lp31
g17
(g10
S'@N\xec\xc0\x82\xec\xa3?'
p32
tp33
Rp34
ag17
(g10
S':\x9d3\x9f{\xe4\xab?'
p35
tp36
Rp37
aa(lp38
g17
(g10
S'\xe8\xd6zx^6\xe0?'
p39
tp40
Rp41
ag17
(g10
S'\xf0/t\x08$8\xe0?'
p42
tp43
Rp44
aatp45
.