(cnumpy.core.multiarray
_reconstruct
p0
(cnumpy
ndarray
p1
(I0
tp2
S'b'
p3
tp4
Rp5
(I1
(I4
tp6
cnumpy
dtype
p7
(S'f8'
p8
I0
I1
tp9
Rp10
(I3
S'<'
p11
NNNI-1
I-1
I0
tp12
bI00
S'a\x19\xf7>(yS@\xf6+\xd3(Y\x12w?/d\x94|\xad4\xa4?}\xa2\xc9{[\x8c\xe0?'
p13
tp14
b(lp15
(lp16
cnumpy.core.multiarray
scalar
p17
(g10
S'\xffp\xcb\xf4:|R@'
p18
tp19
Rp20
ag17
(g10
S'\xc3\xc1"\x89\x15vT@'
p21
tp22
Rp23
aa(lp24
g17
(g10
S'\x98h]V\x909t?'
p25
tp26
Rp27
ag17
(g10
S'T\xefH\xfb!\xeby?'
p28
tp29
Rp30
aa(lp31
g17
(g10
S'\xcc[\xf2\xe0F\x02\xa0?'
p32
tp33
Rp34
ag17
(g10
S'\x92l6\x18\x14g\xa8?'
p35
tp36
Rp37
aa(lp38
g17
(g10
S'\xb5CO\t\x96\x8b\xe0?'
p39
tp40
Rp41
ag17
(g10
S'E\x01D\xee \x8d\xe0?'
p42
tp43
Rp44
aatp45
.