(cnumpy.core.multiarray
_reconstruct
p0
(cnumpy
ndarray
p1
(I0
tp2
S'b'
p3
tp4
Rp5
(I1
(I4
tp6
cnumpy
dtype
p7
(S'f8'
p8
I0
I1
tp9
Rp10
(I3
S'<'
p11
NNNI-1
I-1
I0
tp12
bI00
S'tQb\xbeR\xc5S@\x9a.6#\xe6\rv?%\xecH+<Z\xb0?\xfdb\t\xd4\xed=\xe0?'
p13
tp14
b(lp15
(lp16
cnumpy.core.multiarray
scalar
p17
(g10
S'i\xcf\x92\xf0\xdaJS@'
p18
tp19
Rp20
ag17
(g10
S'\x7f\xd31\x8c\xca?T@'
p21
tp22
Rp23
aa(lp24
g17
(g10
S'\x1bz\x93(\x9f\xfdu?'
p25
tp26
Rp27
ag17
(g10
S'\x19\xe3\xd8\x1d-\x1ev?'
p28
tp29
Rp30
aa(lp31
g17
(g10
S'\x9a\xb3\x9bIOn\xaa?'
p32
tp33
Rp34
ag17
(g10
S'}\xfe\xc3\xb1P}\xb3?'
p35
tp36
Rp37
aa(lp38
g17
(g10
S'\xdf\xa2\xea\xeaj=\xe0?'
p39
tp40
Rp41
ag17
(g10
S'\x1b#(\xbdp>\xe0?'
p42
tp43
Rp44
aatp45
.