(cnumpy.core.multiarray
_reconstruct
p0
(cnumpy
ndarray
p1
(I0
tp2
S'b'
p3
tp4
Rp5
(I1
(I4
tp6
cnumpy
dtype
p7
(S'f8'
p8
I0
I1
tp9
Rp10
(I3
S'<'
p11
NNNI-1
I-1
I0
tp12
bI00
S'\x84\xd7\xde)wGS@+Z\x8bY\xe4\xd6n?\xe2\xedX\xf1\xf3\xdd\xbf?.\xe5I\xe2\xd18\xe0?'
p13
tp14
b(lp15
(lp16
cnumpy.core.multiarray
scalar
p17
(g10
S'AT\xbb\x0cLjR@'
p18
tp19
Rp20
ag17
(g10
S'\xc7Z\x02G\xa2$T@'
p21
tp22
Rp23
aa(lp24
g17
(g10
S'\xbbH\xd8g^\xcaj?'
p25
tp26
Rp27
ag17
(g10
S'\xcd5\x9f%\xb5qq?'
p28
tp29
Rp30
aa(lp31
g17
(g10
S'*U\x7f\x94s\xd8\xb9?'
p32
tp33
Rp34
ag17
(g10
S"MC\x19'\xba\xf1\xc2?"
p35
tp36
Rp37
aa(lp38
g17
(g10
S'V"9\xaa\xd47\xe0?'
p39
tp40
Rp41
ag17
(g10
S'\x06\xa8Z\x1a\xcf9\xe0?'
p42
tp43
Rp44
aatp45
.