(cnumpy.core.multiarray
_reconstruct
p0
(cnumpy
ndarray
p1
(I0
tp2
S'b'
p3
tp4
Rp5
(I1
(I4
tp6
cnumpy
dtype
p7
(S'f8'
p8
I0
I1
tp9
Rp10
(I3
S'<'
p11
NNNI-1
I-1
I0
tp12
bI00
S'\xccB\x18\x86\xce\xaaT@o\xcb\x8c%\xc7\xb4n?[\x10\xa6\xae@s\xb3?acajz6\xe0?'
p13
tp14
b(lp15
(lp16
cnumpy.core.multiarray
scalar
p17
(g10
S'\xacL\xb5\x81E\xb8S@'
p18
tp19
Rp20
ag17
(g10
S'\xec8{\x8aW\x9dU@'
p21
tp22
Rp23
aa(lp24
g17
(g10
S'k}P\xf0\xe6\xacj?'
p25
tp26
Rp27
ag17
(g10
S'\xba\x8cd\xadS^q?'
p28
tp29
Rp30
aa(lp31
g17
(g10
S'\x8c=F\xb3\xac)\xb0?'
p32
tp33
Rp34
ag17
(g10
S'*\xe3\x05\xaa\xd4\xbc\xb6?'
p35
tp36
Rp37
aa(lp38
g17
(g10
S':\x13\x8ev\x8b5\xe0?'
p39
tp40
Rp41
ag17
(g10
S'\x88\xb34^i7\xe0?'
p42
tp43
Rp44
aatp45
.