(cnumpy.core.multiarray
_reconstruct
p0
(cnumpy
ndarray
p1
(I0
tp2
S'b'
p3
tp4
Rp5
(I1
(I4
tp6
cnumpy
dtype
p7
(S'f8'
p8
I0
I1
tp9
Rp10
(I3
S'<'
p11
NNNI-1
I-1
I0
tp12
bI00
S'\x1cw\xbd\xd8j\xdee@\x0b\x98I<e\xf9l?\x1f\x9d,\xf5\n\n\xc4?=F,\xa6+\x8e\xe0?'
p13
tp14
b(lp15
(lp16
cnumpy.core.multiarray
scalar
p17
(g10
S'\xde\xf7\xe4\x1e\xf4\xa6c@'
p18
tp19
Rp20
ag17
(g10
S'Z\xf6\x95\x92\xe1\x15h@'
p21
tp22
Rp23
aa(lp24
g17
(g10
S'<^.8 \x12d?'
p25
tp26
Rp27
ag17
(g10
S'\xedh2 U\xf0r?'
p28
tp29
Rp30
aa(lp31
g17
(g10
S'\xdfEg\x19\xc31\xb5?'
p32
tp33
Rp34
ag17
(g10
S'N\x97\xa5]4{\xcd?'
p35
tp36
Rp37
aa(lp38
g17
(g10
S'~\xec)5%\x8d\xe0?'
p39
tp40
Rp41
ag17
(g10
S'\xfc\x9f.\x172\x8f\xe0?'
p42
tp43
Rp44
aatp45
.