(cnumpy.core.multiarray
_reconstruct
p0
(cnumpy
ndarray
p1
(I0
tp2
S'b'
p3
tp4
Rp5
(I1
(I4
tp6
cnumpy
dtype
p7
(S'f8'
p8
I0
I1
tp9
Rp10
(I3
S'<'
p11
NNNI-1
I-1
I0
tp12
bI00
S'\xcfJ&3\xfamW@L\x93\xc3\x90+~S?\x9d\xb2\x1f9q\xab\xb2?\xd4rd\x16c\xdd\xe0?'
p13
tp14
b(lp15
(lp16
cnumpy.core.multiarray
scalar
p17
(g10
S'q\n\x1d\x14tiV@'
p18
tp19
Rp20
ag17
(g10
S'-\x8b/R\x80rX@'
p21
tp22
Rp23
aa(lp24
g17
(g10
S'\xed]X\x7f\xa4@O?'
p25
tp26
Rp27
ag17
(g10
S'\xa2\xf7\xda\xe1\x04\\W?'
p28
tp29
Rp30
aa(lp31
g17
(g10
S'\xd8q^r_\x10\xb0?'
p32
tp33
Rp34
ag17
(g10
S'b\xf3\xe0\xff\x82F\xb5?'
p35
tp36
Rp37
aa(lp38
g17
(g10
S'9}\xea\xcf\x82\xdb\xe0?'
p39
tp40
Rp41
ag17
(g10
S'oh\xde\\C\xdf\xe0?'
p42
tp43
Rp44
aatp45
.