(cnumpy.core.multiarray
_reconstruct
p0
(cnumpy
ndarray
p1
(I0
tp2
S'b'
p3
tp4
Rp5
(I1
(I4
tp6
cnumpy
dtype
p7
(S'f8'
p8
I0
I1
tp9
Rp10
(I3
S'<'
p11
NNNI-1
I-1
I0
tp12
bI00
S'hYC"Q\xe2S@\xceO\xc8L\xc3\x8aw?\xb5R\xc5S\x84Q\xaf?\xae\x1d]Yi2\xe0?'
p13
tp14
b(lp15
(lp16
cnumpy.core.multiarray
scalar
p17
(g10
S"UZm'i\xe0R@"
p18
tp19
Rp20
ag17
(g10
S'{X\x19\x1d9\xe4T@'
p21
tp22
Rp23
aa(lp24
g17
(g10
S'\x80j\xdd\xd0\xf4\x98t?'
p25
tp26
Rp27
ag17
(g10
S'\x1c5\xb3\xc8\x91|z?'
p28
tp29
Rp30
aa(lp31
g17
(g10
S'\xce\xa9\xe6$4*\xa9?'
p32
tp33
Rp34
ag17
(g10
S'\xce\xfdQAj\xbc\xb2?'
p35
tp36
Rp37
aa(lp38
g17
(g10
S'#z\x15:\xa61\xe0?'
p39
tp40
Rp41
ag17
(g10
S'9\xc1\xa4x,3\xe0?'
p42
tp43
Rp44
aatp45
.