(cnumpy.core.multiarray
_reconstruct
p0
(cnumpy
ndarray
p1
(I0
tp2
S'b'
p3
tp4
Rp5
(I1
(I4
tp6
cnumpy
dtype
p7
(S'f8'
p8
I0
I1
tp9
Rp10
(I3
S'<'
p11
NNNI-1
I-1
I0
tp12
bI00
S'\x0b\xe1v\xf3\x96\xffS@d,\xa5\xb5\xbe;p?\xc3t\x96\tm\x1d\xbb?\xf3@\xc1-U7\xe0?'
p13
tp14
b(lp15
(lp16
cnumpy.core.multiarray
scalar
p17
(g10
S'\xec\xe2\xd3\x9c \x8eS@'
p18
tp19
Rp20
ag17
(g10
S'*\xdf\x19J\rqT@'
p21
tp22
Rp23
aa(lp24
g17
(g10
S'xb!1.5p?'
p25
tp26
Rp27
ag17
(g10
S'P\xf6(:OBp?'
p28
tp29
Rp30
aa(lp31
g17
(g10
S'>\xe6\xa8\x06\xdc\x0e\xb6?'
p32
tp33
Rp34
ag17
(g10
S'\xa4\x01B\x06\xff\x15\xc0?'
p35
tp36
Rp37
aa(lp38
g17
(g10
S'\xe7\x0cV\x19\xcc6\xe0?'
p39
tp40
Rp41
ag17
(g10
S'\xfft,B\xde7\xe0?'
p42
tp43
Rp44
aatp45
.