(cnumpy.core.multiarray
_reconstruct
p0
(cnumpy
ndarray
p1
(I0
tp2
S'b'
p3
tp4
Rp5
(I1
(I4
tp6
cnumpy
dtype
p7
(S'f8'
p8
I0
I1
tp9
Rp10
(I3
S'<'
p11
NNNI-1
I-1
I0
tp12
bI00
S'\x1b\x828\x0c\xd0+R@+\x14F~\xd3\x86y?\xee:9z\x8f"\xbd?\xec\t2\x11\xa1\xb7\xe0?'
p13
tp14
b(lp15
(lp16
cnumpy.core.multiarray
scalar
p17
(g10
S'\xe5\xcfKJq/Q@'
p18
tp19
Rp20
ag17
(g10
S'Q4%\xce.(S@'
p21
tp22
Rp23
aa(lp24
g17
(g10
S' \xe2~Ow\x1av?'
p25
tp26
Rp27
ag17
(g10
S'6F\r\xad/\xf3|?'
p28
tp29
Rp30
aa(lp31
g17
(g10
S'e)Sp^g\xb6?'
p32
tp33
Rp34
ag17
(g10
S'<\xa6\x0fB\xe0\xee\xc1?'
p35
tp36
Rp37
aa(lp38
g17
(g10
S'\x98\xae]\x1e\xd0\xb6\xe0?'
p39
tp40
Rp41
ag17
(g10
S'@e\x06\x04r\xb8\xe0?'
p42
tp43
Rp44
aatp45
.