(cnumpy.core.multiarray
_reconstruct
p0
(cnumpy
ndarray
p1
(I0
tp2
S'b'
p3
tp4
Rp5
(I1
(I4
tp6
cnumpy
dtype
p7
(S'f8'
p8
I0
I1
tp9
Rp10
(I3
S'<'
p11
NNNI-1
I-1
I0
tp12
bI00
S'\xb0452\x1dtT@\xe1h,@l\x93q?\xdbZ\x9d\xa1l\xc9\xb8?R\x17\xaeQ\x87q\xe0?'
p13
tp14
b(lp15
(lp16
cnumpy.core.multiarray
scalar
p17
(g10
S'~\xef\xa5P[lS@'
p18
tp19
Rp20
ag17
(g10
S'\xe2y\xc4\x13\xdf{U@'
p21
tp22
Rp23
aa(lp24
g17
(g10
S'\xbf\xb9z\r0@n?'
p25
tp26
Rp27
ag17
(g10
S'\xe3t\x9by\xc0\x06t?'
p28
tp29
Rp30
aa(lp31
g17
(g10
S'\x92qqGA\xdf\xb3?'
p32
tp33
Rp34
ag17
(g10
S'$D\xc9\xfb\x97\xb3\xbd?'
p35
tp36
Rp37
aa(lp38
g17
(g10
S'oL\x86\x15\x9bp\xe0?'
p39
tp40
Rp41
ag17
(g10
S'5\xe2\xd5\x8dsr\xe0?'
p42
tp43
Rp44
aatp45
.