(cnumpy.core.multiarray
_reconstruct
p0
(cnumpy
ndarray
p1
(I0
tp2
S'b'
p3
tp4
Rp5
(I1
(I4
tp6
cnumpy
dtype
p7
(S'f8'
p8
I0
I1
tp9
Rp10
(I3
S'<'
p11
NNNI-1
I-1
I0
tp12
bI00
S'\xdfy\xb5\x019fT@\xe9]$;F\x0cp?\x86\x10?BS\xb2\xc2?\x0f\xc5\x89&]=\xe0?'
p13
tp14
b(lp15
(lp16
cnumpy.core.multiarray
scalar
p17
(g10
S'\n\x11\xde\x88\xc5kS@'
p18
tp19
Rp20
ag17
(g10
S'\xb4\xe2\x8cz\xac`U@'
p21
tp22
Rp23
aa(lp24
g17
(g10
S'\x16\xf2\x1c\xb1\x88\x9ek?'
p25
tp26
Rp27
ag17
(g10
S'\xc7B\xba\x1dHIr?'
p28
tp29
Rp30
aa(lp31
g17
(g10
S'XMn\xe1\xaeJ\xbd?'
p32
tp33
Rp34
ag17
(g10
S'`\xfa\xc6\x13O\xbf\xc6?'
p35
tp36
Rp37
aa(lp38
g17
(g10
S'\xaeM\xe0Od<\xe0?'
p39
tp40
Rp41
ag17
(g10
S'p<3\xfdU>\xe0?'
p42
tp43
Rp44
aatp45
.