(cnumpy.core.multiarray
_reconstruct
p0
(cnumpy
ndarray
p1
(I0
tp2
S'b'
p3
tp4
Rp5
(I1
(I4
tp6
cnumpy
dtype
p7
(S'f8'
p8
I0
I1
tp9
Rp10
(I3
S'<'
p11
NNNI-1
I-1
I0
tp12
bI00
S'\x95*\xbd5kwT@\xad\x9eh\x9c#\xf7s?D\x7f\xdc\xde\xfc\xbc\xae?\xa4+6\x08C\x14\xe0?'
p13
tp14
b(lp15
(lp16
cnumpy.core.multiarray
scalar
p17
(g10
S'\x00\xf9Rhd{S@'
p18
tp19
Rp20
ag17
(g10
S"*\\'\x03rsU@"
p21
tp22
Rp23
aa(lp24
g17
(g10
S'sY\x7f\xe4\x92yq?'
p25
tp26
Rp27
ag17
(g10
S'\xe7\xe3QT\xb4tv?'
p28
tp29
Rp30
aa(lp31
g17
(g10
S'\x14\xdc\xa6\xe7\xf6)\xa9?'
p32
tp33
Rp34
ag17
(g10
S':\x11\tk\x01(\xb2?'
p35
tp36
Rp37
aa(lp38
g17
(g10
S'+\x8c\xf2\xbct\x13\xe0?'
p39
tp40
Rp41
ag17
(g10
S'\x1d\xcbyS\x11\x15\xe0?'
p42
tp43
Rp44
aatp45
.