(cnumpy.core.multiarray
_reconstruct
p0
(cnumpy
ndarray
p1
(I0
tp2
S'b'
p3
tp4
Rp5
(I1
(I4
tp6
cnumpy
dtype
p7
(S'f8'
p8
I0
I1
tp9
Rp10
(I3
S'<'
p11
NNNI-1
I-1
I0
tp12
bI00
S'\x9d\xe3=\x97\x94RS@c,\\\xc2\xc2\xabw?\xc8\x89$\xac1\xdb\xab?AmX\x95\x87\xfe\xe0?'
p13
tp14
b(lp15
(lp16
cnumpy.core.multiarray
scalar
p17
(g10
S'\xf6^\xfd\x8c\xae;R@'
p18
tp19
Rp20
ag17
(g10
S'Dh~\xa1ziT@'
p21
tp22
Rp23
aa(lp24
g17
(g10
S'xAEwGft?'
p25
tp26
Rp27
ag17
(g10
S'N\x17s\r>\xf1z?'
p28
tp29
Rp30
aa(lp31
g17
(g10
S'\xad\x9c\xe5S7\xb9\xa5?'
p32
tp33
Rp34
ag17
(g10
S'r\xbb1\x02\x96\xfe\xb0?'
p35
tp36
Rp37
aa(lp38
g17
(g10
S'\x8c-^\x92\xb4\xfd\xe0?'
p39
tp40
Rp41
ag17
(g10
S'\xf6\xacR\x98Z\xff\xe0?'
p42
tp43
Rp44
aatp45
.