(cnumpy.core.multiarray
_reconstruct
p0
(cnumpy
ndarray
p1
(I0
tp2
S'b'
p3
tp4
Rp5
(I1
(I4
tp6
cnumpy
dtype
p7
(S'f8'
p8
I0
I1
tp9
Rp10
(I3
S'<'
p11
NNNI-1
I-1
I0
tp12
bI00
S'bg9`;tP@\xac\xbd6\xf0Ol\x80?\xbd\xa6\x97\xc8lE\xb6?\x85";||\x14\xe0?'
p13
tp14
b(lp15
(lp16
cnumpy.core.multiarray
scalar
p17
(g10
S'\xfapJ\xa4\xffOO@'
p18
tp19
Rp20
ag17
(g10
S'G\x96M\xeev@Q@'
p21
tp22
Rp23
aa(lp24
g17
(g10
S'U\x8ee_a8}?'
p25
tp26
Rp27
ag17
(g10
S'-\xb4\xba0o<\x82?'
p28
tp29
Rp30
aa(lp31
g17
(g10
S'^\xc59\xba\x03\xcb\xb1?'
p32
tp33
Rp34
ag17
(g10
S'\x1c\x88\xf5\xd6\xd5\xbf\xba?'
p35
tp36
Rp37
aa(lp38
g17
(g10
S'9\x85ii\xcd\x13\xe0?'
p39
tp40
Rp41
ag17
(g10
S'\xd1\xbf\x0c\x8f+\x15\xe0?'
p42
tp43
Rp44
aatp45
.