(cnumpy.core.multiarray
_reconstruct
p0
(cnumpy
ndarray
p1
(I0
tp2
S'b'
p3
tp4
Rp5
(I1
(I4
tp6
cnumpy
dtype
p7
(S'f8'
p8
I0
I1
tp9
Rp10
(I3
S'<'
p11
NNNI-1
I-1
I0
tp12
bI00
S'\x01\x0c\x13\x11%,[@{\xcbI5a\x92r?Y\xd5[|>\xf5\xa5?3\xcd\x96 B\x9e\xe0?'
p13
tp14
b(lp15
(lp16
cnumpy.core.multiarray
scalar
p17
(g10
S'\xe9\x9cm*\xcbgY@'
p18
tp19
Rp20
ag17
(g10
S'\x19{\xb8\xf7~\xf0\\@'
p21
tp22
Rp23
aa(lp24
g17
(g10
S'FQw\x1aL\xd9n?'
p25
tp26
Rp27
ag17
(g10
S'S\xeeW]\x1c\xb8u?'
p28
tp29
Rp30
aa(lp31
g17
(g10
S'J\xfe\xe8~\xde{\xa0?'
p32
tp33
Rp34
ag17
(g10
S'h\xac\xcey\x9en\xab?'
p35
tp36
Rp37
aa(lp38
g17
(g10
S'2\xff\xd5\x84l\x9d\xe0?'
p39
tp40
Rp41
ag17
(g10
S'4\x9bW\xbc\x17\x9f\xe0?'
p42
tp43
Rp44
aatp45
.