(cnumpy.core.multiarray
_reconstruct
p0
(cnumpy
ndarray
p1
(I0
tp2
S'b'
p3
tp4
Rp5
(I1
(I4
tp6
cnumpy
dtype
p7
(S'f8'
p8
I0
I1
tp9
Rp10
(I3
S'<'
p11
NNNI-1
I-1
I0
tp12
bI00
S'\xcf\x16nd\xd1\x11R@\x11$$`7;v?B/9~\xa1\x9e\xb3?\x13\x99LL\x9e6\xe0?'
p13
tp14
b(lp15
(lp16
cnumpy.core.multiarray
scalar
p17
(g10
S'\xb28P\x96A<Q@'
p18
tp19
Rp20
ag17
(g10
S'\xec\xf4\x8b2a\xe7R@'
p21
tp22
Rp23
aa(lp24
g17
(g10
S'\x0cT\x19\x16\x8f\xa0s?'
p25
tp26
Rp27
ag17
(g10
S'\x16\xf4.\xaa\xdf\xd5x?'
p28
tp29
Rp30
aa(lp31
g17
(g10
S'Y\xb9\x1a\xcb\xb0\x1a\xb0?'
p32
tp33
Rp34
ag17
(g10
S'+\xa5W1\x92"\xb7?'
p35
tp36
Rp37
aa(lp38
g17
(g10
S'\xdc9Z<\xd15\xe0?'
p39
tp40
Rp41
ag17
(g10
S'J\xf8>\\k7\xe0?'
p42
tp43
Rp44
aatp45
.