(cnumpy.core.multiarray
_reconstruct
p0
(cnumpy
ndarray
p1
(I0
tp2
S'b'
p3
tp4
Rp5
(I1
(I4
tp6
cnumpy
dtype
p7
(S'f8'
p8
I0
I1
tp9
Rp10
(I3
S'<'
p11
NNNI-1
I-1
I0
tp12
bI00
S'j\x08\x0c\xfeV:g@\xaf\xa5.4\xa6\xacq?\xb8\xb1\x88\\\x0e]\xbd?e=H\x80X\x8a\xe0?'
p13
tp14
b(lp15
(lp16
cnumpy.core.multiarray
scalar
p17
(g10
S'\x8e\x85\xcd\xa3\xea\x97d@'
p18
tp19
Rp20
ag17
(g10
S'F\x8bJX\xc3\xdci@'
p21
tp22
Rp23
aa(lp24
g17
(g10
S'\xa2\xf4\x01\xbc\x1f,h?'
p25
tp26
Rp27
ag17
(g10
S'\rQ\\\x8a<Cw?'
p28
tp29
Rp30
aa(lp31
g17
(g10
S'u\xfdG\x99\x87\x1e\xaf?'
p32
tp33
Rp34
ag17
(g10
S'[\xb26vl\x95\xc5?'
p35
tp36
Rp37
aa(lp38
g17
(g10
S'*<-uo\x89\xe0?'
p39
tp40
Rp41
ag17
(g10
S'\xa0>c\x8bA\x8b\xe0?'
p42
tp43
Rp44
aatp45
.