(cnumpy.core.multiarray
_reconstruct
p0
(cnumpy
ndarray
p1
(I0
tp2
S'b'
p3
tp4
Rp5
(I1
(I4
tp6
cnumpy
dtype
p7
(S'f8'
p8
I0
I1
tp9
Rp10
(I3
S'<'
p11
NNNI-1
I-1
I0
tp12
bI00
S'\xd6C\xdcB\x00\xa0O@8\x93H\xc4iR\x83?[\xfa?E\xd1]\xae?\xf0SR=\xc6b\xe0?'
p13
tp14
b(lp15
(lp16
cnumpy.core.multiarray
scalar
p17
(g10
S'C\xa6\x9bv\x9b\xf9M@'
p18
tp19
Rp20
ag17
(g10
S'\xb4p\x8e\x872\xa3P@'
p21
tp22
Rp23
aa(lp24
g17
(g10
S'\x9c\xc5-\x8b\x97&\x81?'
p25
tp26
Rp27
ag17
(g10
S'\xd4`c\xfd;~\x85?'
p28
tp29
Rp30
aa(lp31
g17
(g10
S'R\xc6\x1e\x98\xa8\xa0\xa7?'
p32
tp33
Rp34
ag17
(g10
S'2\x970\xf9|\x8d\xb2?'
p35
tp36
Rp37
aa(lp38
g17
(g10
S'\xd1}z1\x1db\xe0?'
p39
tp40
Rp41
ag17
(g10
S'\x0f**Ioc\xe0?'
p42
tp43
Rp44
aatp45
.