(cnumpy.core.multiarray
_reconstruct
p0
(cnumpy
ndarray
p1
(I0
tp2
S'b'
p3
tp4
Rp5
(I1
(I4
tp6
cnumpy
dtype
p7
(S'f8'
p8
I0
I1
tp9
Rp10
(I3
S'<'
p11
NNNI-1
I-1
I0
tp12
bI00
S'M\xdc\x15$\x08\x7fF@\xd5\xc3c\xc1\xc6\xf3s?\xb2]\x88uj?\xb9?\xdb\x0b\xe1\xfb\t|\xe0?'
p13
tp14
b(lp15
(lp16
cnumpy.core.multiarray
scalar
p17
(g10
S'R\x96\xee\x08\xfb\xccE@'
p18
tp19
Rp20
ag17
(g10
S'H"=?\x151G@'
p21
tp22
Rp23
aa(lp24
g17
(g10
S'%\xc8h\xed\x15Qr?'
p25
tp26
Rp27
ag17
(g10
S'\x85\xbf^\x95w\x96u?'
p28
tp29
Rp30
aa(lp31
g17
(g10
S'*v\x8a\x15( \xb6?'
p32
tp33
Rp34
ag17
(g10
S':E\x86\xd5\xac^\xbc?'
p35
tp36
Rp37
aa(lp38
g17
(g10
S'[\xb1\x7f\xd6\x1c{\xe0?'
p39
tp40
Rp41
ag17
(g10
S'[fB!\xf7|\xe0?'
p42
tp43
Rp44
aatp45
.