(cnumpy.core.multiarray
_reconstruct
p0
(cnumpy
ndarray
p1
(I0
tp2
S'b'
p3
tp4
Rp5
(I1
(I4
tp6
cnumpy
dtype
p7
(S'f8'
p8
I0
I1
tp9
Rp10
(I3
S'<'
p11
NNNI-1
I-1
I0
tp12
bI00
S'l\x89\x8a\x88gqG@\xb3\xf8\x8ab\xbc2r? =\xd1j\xf5\xe8\xb3?RZo\xa7\t\xc0\xe0?'
p13
tp14
b(lp15
(lp16
cnumpy.core.multiarray
scalar
p17
(g10
S'\x80\xe2\x92\xef\xd3\x15G@'
p18
tp19
Rp20
ag17
(g10
S'X0\x82!\xfb\xccG@'
p21
tp22
Rp23
aa(lp24
g17
(g10
S'\xdeJ\xe3E91r?'
p25
tp26
Rp27
ag17
(g10
S'\x88\xa62\x7f?4r?'
p28
tp29
Rp30
aa(lp31
g17
(g10
S'\xc8\t\xeb\xea|\x85\xb1?'
p32
tp33
Rp34
ag17
(g10
S'xp\xb7\xeamL\xb6?'
p35
tp36
Rp37
aa(lp38
g17
(g10
S'qC%\x90u\xbf\xe0?'
p39
tp40
Rp41
ag17
(g10
S'3q\xb9\xbe\x9d\xc0\xe0?'
p42
tp43
Rp44
aatp45
.