(cnumpy.core.multiarray
_reconstruct
p0
(cnumpy
ndarray
p1
(I0
tp2
S'b'
p3
tp4
Rp5
(I1
(I4
tp6
cnumpy
dtype
p7
(S'f8'
p8
I0
I1
tp9
Rp10
(I3
S'<'
p11
NNNI-1
I-1
I0
tp12
bI00
S'\xacq\xbf\x0c\x14dV@\x9d\x1aZ{U\xe2c?\xd2\xf7\xbd\xbf\x15F\xbe?\x8f\xbd\x1b\rg\x9e\xe0?'
p13
tp14
b(lp15
(lp16
cnumpy.core.multiarray
scalar
p17
(g10
S'&\x8aAj\xb9JU@'
p18
tp19
Rp20
ag17
(g10
S'2Y=\xafn}W@'
p21
tp22
Rp23
aa(lp24
g17
(g10
S'\xfc\x10\x8d\x8d\xbb\x82`?'
p25
tp26
Rp27
ag17
(g10
S">$'i\xefAg?"
p28
tp29
Rp30
aa(lp31
g17
(g10
S"'+q\x11SR\xb8?"
p32
tp33
Rp34
ag17
(g10
S'>b\x057\xec\x1c\xc2?'
p35
tp36
Rp37
aa(lp38
g17
(g10
S'\xe37\x8d,\x1a\x9d\xe0?'
p39
tp40
Rp41
ag17
(g10
S';C\xaa\xed\xb3\x9f\xe0?'
p42
tp43
Rp44
aatp45
.