(cnumpy.core.multiarray
_reconstruct
p0
(cnumpy
ndarray
p1
(I0
tp2
S'b'
p3
tp4
Rp5
(I1
(I4
tp6
cnumpy
dtype
p7
(S'f8'
p8
I0
I1
tp9
Rp10
(I3
S'<'
p11
NNNI-1
I-1
I0
tp12
bI00
S'\xb3\x91\xfb\x9a\x88oi@"un\xa9,"c?gK#jex\xb8?\xe64\x03\x8fM\xc6\xe0?'
p13
tp14
b(lp15
(lp16
cnumpy.core.multiarray
scalar
p17
(g10
S'\x81?\x81\xe2\x9f\xc1f@'
p18
tp19
Rp20
ag17
(g10
S'\xe5\xe3uSq\x1dl@'
p21
tp22
Rp23
aa(lp24
g17
(g10
S'!*\xbf-\xa1AX?'
p25
tp26
Rp27
ag17
(g10
S'4U\xfd\xbb\x88#j?'
p28
tp29
Rp30
aa(lp31
g17
(g10
S'<Q\x0c`x\xd8\xad?'
p32
tp33
Rp34
ag17
(g10
S'\x187 RG\x02\xc1?'
p35
tp36
Rp37
aa(lp38
g17
(g10
S'Cf\x8a\xf1\x0e\xc5\xe0?'
p39
tp40
Rp41
ag17
(g10
S'\x89\x03|,\x8c\xc7\xe0?'
p42
tp43
Rp44
aatp45
.