(cnumpy.core.multiarray
_reconstruct
p0
(cnumpy
ndarray
p1
(I0
tp2
S'b'
p3
tp4
Rp5
(I1
(I4
tp6
cnumpy
dtype
p7
(S'f8'
p8
I0
I1
tp9
Rp10
(I3
S'<'
p11
NNNI-1
I-1
I0
tp12
bI00
S'\xec\x8f\xe4\x99bGS@g\x9f#OA\xc7v?\x8b\xb6Sk\xfe\xba\xb7?8\x87\xaeqXY\xe0?'
p13
tp14
b(lp15
(lp16
cnumpy.core.multiarray
scalar
p17
(g10
S'dc\xfe\xe1\x1cHR@'
p18
tp19
Rp20
ag17
(g10
S't\xbc\xcaQ\xa8FT@'
p21
tp22
Rp23
aa(lp24
g17
(g10
S'\xbcKaoM\xc9s?'
p25
tp26
Rp27
ag17
(g10
S'\x12\xf3\xe5.5\xc5y?'
p28
tp29
Rp30
aa(lp31
g17
(g10
S'\xf6f\xf7\x9am\xcf\xb2?'
p32
tp33
Rp34
ag17
(g10
S' \x06\xb0;\x8f\xa6\xbc?'
p35
tp36
Rp37
aa(lp38
g17
(g10
S'\xb5\xa5tb\x86X\xe0?'
p39
tp40
Rp41
ag17
(g10
S'\xbbh\xe8\x80*Z\xe0?'
p42
tp43
Rp44
aatp45
.