(cnumpy.core.multiarray
_reconstruct
p0
(cnumpy
ndarray
p1
(I0
tp2
S'b'
p3
tp4
Rp5
(I1
(I4
tp6
cnumpy
dtype
p7
(S'f8'
p8
I0
I1
tp9
Rp10
(I3
S'<'
p11
NNNI-1
I-1
I0
tp12
bI00
S'+\xc8P<\x00oU@\xcb\x07F+C\x08r?:\xa0\xe1aVT\x9a?%\x11\x05\xbdu9\xe0?'
p13
tp14
b(lp15
(lp16
cnumpy.core.multiarray
scalar
p17
(g10
S'\x8f\xc39N\xebqT@'
p18
tp19
Rp20
ag17
(g10
S'\xc7\xccg*\x15lV@'
p21
tp22
Rp23
aa(lp24
g17
(g10
S'\xa6d.W\xd0\xd0o?'
p25
tp26
Rp27
ag17
(g10
S'C\xdd\xf4*\x1e(t?'
p28
tp29
Rp30
aa(lp31
g17
(g10
S'\xf46\x13T\xc4\xef\x94?'
p32
tp33
Rp34
ag17
(g10
S'\x80\t\xb0o\xe8\xb8\x9f?'
p35
tp36
Rp37
aa(lp38
g17
(g10
S'\xa9b\xd7\x9d\xad8\xe0?'
p39
tp40
Rp41
ag17
(g10
S'\xa1\xbf2\xdc=:\xe0?'
p42
tp43
Rp44
aatp45
.