(cnumpy.core.multiarray
_reconstruct
p0
(cnumpy
ndarray
p1
(I0
tp2
S'b'
p3
tp4
Rp5
(I1
(I4
tp6
cnumpy
dtype
p7
(S'f8'
p8
I0
I1
tp9
Rp10
(I3
S'<'
p11
NNNI-1
I-1
I0
tp12
bI00
S'\xd7.\xcaa\xf7#S@qk\x1cz9\xf2q?\xe2\xaf\xbc\x9e\xc0N\xb1?\xc5%@fj\x97\xe0?'
p13
tp14
b(lp15
(lp16
cnumpy.core.multiarray
scalar
p17
(g10
S'\x02FHX\x82:R@'
p18
tp19
Rp20
ag17
(g10
S'\xac\x17Lkl\rT@'
p21
tp22
Rp23
aa(lp24
g17
(g10
S'I\x8b\xcag\xbcFo?'
p25
tp26
Rp27
ag17
(g10
S'=\x91S\xc0\x14At?'
p28
tp29
Rp30
aa(lp31
g17
(g10
S'\xfd\xd5\xb2\xe9\t{\xac?'
p32
tp33
Rp34
ag17
(g10
S'\xc6\xf4\x9fH\xfc_\xb4?'
p35
tp36
Rp37
aa(lp38
g17
(g10
S'\xc4(Z\xea\x83\x96\xe0?'
p39
tp40
Rp41
ag17
(g10
S'\xc6"&\xe2P\x98\xe0?'
p42
tp43
Rp44
aatp45
.