(cnumpy.core.multiarray
_reconstruct
p0
(cnumpy
ndarray
p1
(I0
tp2
S'b'
p3
tp4
Rp5
(I1
(I4
tp6
cnumpy
dtype
p7
(S'f8'
p8
I0
I1
tp9
Rp10
(I3
S'<'
p11
NNNI-1
I-1
I0
tp12
bI00
S']Z\x89E\x82KV@\xbf\xc9\x12\xde\x93@m?\xd85\x81\xe56\xe2\x9f?\nfpi_\x19\xe0?'
p13
tp14
b(lp15
(lp16
cnumpy.core.multiarray
scalar
p17
(g10
S"\x0e=\xb8!'NU@"
p18
tp19
Rp20
ag17
(g10
S'\xacwZi\xddHW@'
p21
tp22
Rp23
aa(lp24
g17
(g10
S'F\x1d2\x99\xb4\xaci?'
p25
tp26
Rp27
ag17
(g10
S'\x1c\xbby\x919jp?'
p28
tp29
Rp30
aa(lp31
g17
(g10
S'la\\\x7f$U\x9a?'
p32
tp33
Rp34
ag17
(g10
S'"\x05\xd3\xa5\xa4\xb7\xa2?'
p35
tp36
Rp37
aa(lp38
g17
(g10
S'\xd4&Vc\x84\x18\xe0?'
p39
tp40
Rp41
ag17
(g10
S'@\xa5\x8ao:\x1a\xe0?'
p42
tp43
Rp44
aatp45
.