(cnumpy.core.multiarray
_reconstruct
p0
(cnumpy
ndarray
p1
(I0
tp2
S'b'
p3
tp4
Rp5
(I1
(I4
tp6
cnumpy
dtype
p7
(S'f8'
p8
I0
I1
tp9
Rp10
(I3
S'<'
p11
NNNI-1
I-1
I0
tp12
bI00
S'\x0fR\xb4\xe6\xdd\xd2R@Y\x89\xd7\xb7\x13\x00V?\xad\xc3L\x8b\x00\xe8\xb4?>x\xec\xc0\x83y\xe0?'
p13
tp14
b(lp15
(lp16
cnumpy.core.multiarray
scalar
p17
(g10
S'\xbfnh]@.R@'
p18
tp19
Rp20
ag17
(g10
S'_5\x00p{wS@'
p21
tp22
Rp23
aa(lp24
g17
(g10
S'\xee)\x07F\xcd\xbaR?'
p25
tp26
Rp27
ag17
(g10
S'\xc4\xe8\xa7)ZEY?'
p28
tp29
Rp30
aa(lp31
g17
(g10
S'\xcaYH9T\x84\xb2?'
p32
tp33
Rp34
ag17
(g10
S'\x90-Q\xdd\xacK\xb7?'
p35
tp36
Rp37
aa(lp38
g17
(g10
S'\xc0i\xb58\xcbw\xe0?'
p39
tp40
Rp41
ag17
(g10
S'\xbc\x86#I<{\xe0?'
p42
tp43
Rp44
aatp45
.