(cnumpy.core.multiarray
_reconstruct
p0
(cnumpy
ndarray
p1
(I0
tp2
S'b'
p3
tp4
Rp5
(I1
(I3
tp6
cnumpy
dtype
p7
(S'f8'
p8
I0
I1
tp9
Rp10
(I3
S'<'
p11
NNNI-1
I-1
I0
tp12
bI00
S'I\xc6\x18a\xad}s@\xc9\xfclv@bE?\xf3\r\xa2w\x8e\x9b\xe0?'
p13
tp14
b(lp15
(lp16
cnumpy.core.multiarray
scalar
p17
(g10
S'\x9c\xc8\x98\x895\x84l@'
p18
tp19
Rp20
ag17
(g10
S'D(e\xfd?\xb9x@'
p21
tp22
Rp23
aa(lp24
g17
(g10
S'tU\x01\xf7\x92\xfd(\xbf'
p25
tp26
Rp27
ag17
(g10
S"x'M\xd5\xf2\x81X?"
p28
tp29
Rp30
aa(lp31
g17
(g10
S'=k\xe3\xfd\x04\x98\xe0?'
p32
tp33
Rp34
ag17
(g10
S'\xa9\xb0`\xf1\x17\x9f\xe0?'
p35
tp36
Rp37
aatp38
.