(cnumpy.core.multiarray
_reconstruct
p0
(cnumpy
ndarray
p1
(I0
tp2
S'b'
p3
tp4
Rp5
(I1
(I3
tp6
cnumpy
dtype
p7
(S'f8'
p8
I0
I1
tp9
Rp10
(I3
S'<'
p11
NNNI-1
I-1
I0
tp12
bI00
S'c\xccUW\x87k0@YKo\xee\xd1\x10p?\xcfc\xdbE_p\xe0?'
p13
tp14
b(lp15
(lp16
cnumpy.core.multiarray
scalar
p17
(g10
S'\x01\xae\xea\x91P\x070@'
p18
tp19
Rp20
ag17
(g10
S'\xc5\xea\xc0\x1c\xbe\xcf0@'
p21
tp22
Rp23
aa(lp24
g17
(g10
S'~\x08\xe7\x93\xb48n?'
p25
tp26
Rp27
ag17
(g10
S's\x12\xeb\x92I\x05q?'
p28
tp29
Rp30
aa(lp31
g17
(g10
S'\xb6\xf2\x90R\xe1n\xe0?'
p32
tp33
Rp34
ag17
(g10
S'\xe8\xd4%9\xddq\xe0?'
p35
tp36
Rp37
aatp38
.