(cnumpy.core.multiarray
_reconstruct
p0
(cnumpy
ndarray
p1
(I0
tp2
S'b'
p3
tp4
Rp5
(I1
(I3
tp6
cnumpy
dtype
p7
(S'f8'
p8
I0
I1
tp9
Rp10
(I3
S'<'
p11
NNNI-1
I-1
I0
tp12
bI00
S'\x8dM\xf9\xdb\xcf\xa0r@\x16r>)y\xd1\x1b?/G0R\xf5s\xe0?'
p13
tp14
b(lp15
(lp16
cnumpy.core.multiarray
scalar
p17
(g10
S'r\xd0\xb7\xd8\xa9\xcfp@'
p18
tp19
Rp20
ag17
(g10
S'\xa8\xca:\xdf\xf5qt@'
p21
tp22
Rp23
aa(lp24
g17
(g10
S'q\xc9\x1c\xb4\xce\xe6\x16?'
p25
tp26
Rp27
ag17
(g10
S']\r0\xcf\x11^ ?'
p28
tp29
Rp30
aa(lp31
g17
(g10
S'\x81U\xa1\xc7\xd9q\xe0?'
p32
tp33
Rp34
ag17
(g10
S'\xdd8\xbf\xdc\x10v\xe0?'
p35
tp36
Rp37
aatp38
.