(cnumpy.core.multiarray
_reconstruct
p0
(cnumpy
ndarray
p1
(I0
tp2
S'b'
p3
tp4
Rp5
(I1
(I3
tp6
cnumpy
dtype
p7
(S'f8'
p8
I0
I1
tp9
Rp10
(I3
S'<'
p11
NNNI-1
I-1
I0
tp12
bI00
S'\xc02\n\x1e\xd7\xb6.@<\xaa,\x8f\x8c\xe7x?\xfao,}\x99\x84\xe0?'
p13
tp14
b(lp15
(lp16
cnumpy.core.multiarray
scalar
p17
(g10
S'\xe3V\xfbL%\xe4-@'
p18
tp19
Rp20
ag17
(g10
S'\x9d\x0e\x19\xef\x88\x89/@'
p21
tp22
Rp23
aa(lp24
g17
(g10
S'l\x7f\xd4]%iw?'
p25
tp26
Rp27
ag17
(g10
S'\x0c\xd5\x84\xc0\xf3ez?'
p28
tp29
Rp30
aa(lp31
g17
(g10
S'|\xaa\xee\xb9N\x83\xe0?'
p32
tp33
Rp34
ag17
(g10
S'x5j@\xe4\x85\xe0?'
p35
tp36
Rp37
aatp38
.