(cnumpy.core.multiarray
_reconstruct
p0
(cnumpy
ndarray
p1
(I0
tp2
S'b'
p3
tp4
Rp5
(I1
(I3
tp6
cnumpy
dtype
p7
(S'f8'
p8
I0
I1
tp9
Rp10
(I3
S'<'
p11
NNNI-1
I-1
I0
tp12
bI00
S'Hm\x9c\xc9G\x03`@\x15\xdc\xde=|7\x83?\xc4\x97\x07T\x04\xa3\xe0?'
p13
tp14
b(lp15
(lp16
cnumpy.core.multiarray
scalar
p17
(g10
S'\x9cp->]\rW@'
p18
tp19
Rp20
ag17
(g10
S'B""\xf4\xe0\x7fd@'
p21
tp22
Rp23
aa(lp24
g17
(g10
S'\x82Y*\xc0Vgp?'
p25
tp26
Rp27
ag17
(g10
S'i\x8b\xa8\x1bM;\x8e?'
p28
tp29
Rp30
aa(lp31
g17
(g10
S'\xcf\xc7\x9aq\xd8\xa1\xe0?'
p32
tp33
Rp34
ag17
(g10
S'\xb9gt60\xa4\xe0?'
p35
tp36
Rp37
aatp38
.