(cnumpy.core.multiarray
_reconstruct
p0
(cnumpy
ndarray
p1
(I0
tp2
S'b'
p3
tp4
Rp5
(I1
(I3
tp6
cnumpy
dtype
p7
(S'f8'
p8
I0
I1
tp9
Rp10
(I3
S'<'
p11
NNNI-1
I-1
I0
tp12
bI00
S'Nk\x15\xc1\xcf\xa0r@\x0c\x1cBJ}\xd1\x1b?_z\xf4R\xf5s\xe0?'
p13
tp14
b(lp15
(lp16
cnumpy.core.multiarray
scalar
p17
(g10
S'\xac\\T\xc0\xa9\xcfp@'
p18
tp19
Rp20
ag17
(g10
S'\xf0y\xd6\xc1\xf5qt@'
p21
tp22
Rp23
aa(lp24
g17
(g10
S'U&0\xa6\xd0\xe6\x16?'
p25
tp26
Rp27
ag17
(g10
S'\xe2\x08*\xf7\x14^ ?'
p28
tp29
Rp30
aa(lp31
g17
(g10
S'\x7f?_\xc8\xd9q\xe0?'
p32
tp33
Rp34
ag17
(g10
S'?\xb5\x89\xdd\x10v\xe0?'
p35
tp36
Rp37
aatp38
.