(cnumpy.core.multiarray
_reconstruct
p0
(cnumpy
ndarray
p1
(I0
tp2
S'b'
p3
tp4
Rp5
(I1
(I3
tp6
cnumpy
dtype
p7
(S'f8'
p8
I0
I1
tp9
Rp10
(I3
S'<'
p11
NNNI-1
I-1
I0
tp12
bI00
S'\x90\x14\xb9\xf52d+@\xc3\x92lS=D\x7f?\x80)"\xfb}\x8d\xe0?'
p13
tp14
b(lp15
(lp16
cnumpy.core.multiarray
scalar
p17
(g10
S'\xd5\xd6^\x89^\xa7*@'
p18
tp19
Rp20
ag17
(g10
S'KR\x13b\x07!,@'
p21
tp22
Rp23
aa(lp24
g17
(g10
S'7\x10\x03C\xb2y}?'
p25
tp26
Rp27
ag17
(g10
S'\xa7\n\xeb1d\x87\x80?'
p28
tp29
Rp30
aa(lp31
g17
(g10
S'?\xa9X\x87C\x8c\xe0?'
p32
tp33
Rp34
ag17
(g10
S'\xc1\xa9\xebn\xb8\x8e\xe0?'
p35
tp36
Rp37
aatp38
.