(cnumpy.core.multiarray
_reconstruct
p0
(cnumpy
ndarray
p1
(I0
tp2
S'b'
p3
tp4
Rp5
(I1
(I3
tp6
cnumpy
dtype
p7
(S'f8'
p8
I0
I1
tp9
Rp10
(I3
S'<'
p11
NNNI-1
I-1
I0
tp12
bI00
S"\x7f?\xc4R\x18\x19R@?\xef\xee\xd7'as?\x8b\xf49\x10\xc6\x94\xe0?"
p13
tp14
b(lp15
(lp16
cnumpy.core.multiarray
scalar
p17
(g10
S'\xac\tu\x19S\tP@'
p18
tp19
Rp20
ag17
(g10
S'Ru\x13\x8c\xdd(T@'
p21
tp22
Rp23
aa(lp24
g17
(g10
S'V\xd0\xcfy\xd45l?'
p25
tp26
Rp27
ag17
(g10
S'S\xf6\xf5re\xa7x?'
p28
tp29
Rp30
aa(lp31
g17
(g10
S'\xa6\x16a\xea^\x93\xe0?'
p32
tp33
Rp34
ag17
(g10
S'p\xd2\x126-\x96\xe0?'
p35
tp36
Rp37
aatp38
.