(cnumpy.core.multiarray
_reconstruct
p0
(cnumpy
ndarray
p1
(I0
tp2
S'b'
p3
tp4
Rp5
(I1
(I3
tp6
cnumpy
dtype
p7
(S'f8'
p8
I0
I1
tp9
Rp10
(I3
S'<'
p11
NNNI-1
I-1
I0
tp12
bI00
S'\xaa\xb63yW\x96X@q\xef\xc3\xd1\xda{|?"\x991\x88\xa3\x94\xe0?'
p13
tp14
b(lp15
(lp16
cnumpy.core.multiarray
scalar
p17
(g10
S'\t\xd3y.\t\x0fT@'
p18
tp19
Rp20
ag17
(g10
S'K\x9a\xed\xc3\xa5\x1d]@'
p21
tp22
Rp23
aa(lp24
g17
(g10
S'|.\x18\x1a\x91\nq?'
p25
tp26
Rp27
ag17
(g10
S'3\xd8\xb7D\x92\xf6\x83?'
p28
tp29
Rp30
aa(lp31
g17
(g10
S'\x0e\x99\xb7\xd5a\x93\xe0?'
p32
tp33
Rp34
ag17
(g10
S'6\x99\xab:\xe5\x95\xe0?'
p35
tp36
Rp37
aatp38
.