(cnumpy.core.multiarray
_reconstruct
p0
(cnumpy
ndarray
p1
(I0
tp2
S'b'
p3
tp4
Rp5
(I1
(I3
tp6
cnumpy
dtype
p7
(S'f8'
p8
I0
I1
tp9
Rp10
(I3
S'<'
p11
NNNI-1
I-1
I0
tp12
bI00
S':\x02\x9fI\x00AU@9\xe1\xbc\xe0\xfe\x11\x8b?b\xef\x9eFx\xb9\xe0?'
p13
tp14
b(lp15
(lp16
cnumpy.core.multiarray
scalar
p17
(g10
S'\x14K^%\xc2|P@'
p18
tp19
Rp20
ag17
(g10
S'`\xb9\xdfm>\x05Z@'
p21
tp22
Rp23
aa(lp24
g17
(g10
S'\xd1c(\xf6\xca\xee~?'
p25
tp26
Rp27
ag17
(g10
S'E\xc82#LV\x93?'
p28
tp29
Rp30
aa(lp31
g17
(g10
S"\x87\\'\x19b\xb8\xe0?"
p32
tp33
Rp34
ag17
(g10
S'=\x82\x16t\x8e\xba\xe0?'
p35
tp36
Rp37
aatp38
.