(cnumpy.core.multiarray
_reconstruct
p0
(cnumpy
ndarray
p1
(I0
tp2
S'b'
p3
tp4
Rp5
(I1
(I3
tp6
cnumpy
dtype
p7
(S'f8'
p8
I0
I1
tp9
Rp10
(I3
S'<'
p11
NNNI-1
I-1
I0
tp12
bI00
S'"_(M\xa9\x1dP@\x99o\xf0\x9b\x9b\xdb~?\xa1\xd0\x03\xab]\xae\xe0?'
p13
tp14
b(lp15
(lp16
cnumpy.core.multiarray
scalar
p17
(g10
S'\x84\xd9\x0e\x9cE*L@'
p18
tp19
Rp20
ag17
(g10
S'\x82QI\xcc/&R@'
p21
tp22
Rp23
aa(lp24
g17
(g10
S'\xfeJ\xfa\xb5\xb0\x84v?'
p25
tp26
Rp27
ag17
(g10
S'\x1aJ\xf3@C\x99\x83?'
p28
tp29
Rp30
aa(lp31
g17
(g10
S'\x7fG\xcd\xf7"\xad\xe0?'
p32
tp33
Rp34
ag17
(g10
S'\xc3Y:^\x98\xaf\xe0?'
p35
tp36
Rp37
aatp38
.