(cnumpy.core.multiarray
_reconstruct
p0
(cnumpy
ndarray
p1
(I0
tp2
S'b'
p3
tp4
Rp5
(I1
(I3
tp6
cnumpy
dtype
p7
(S'f8'
p8
I0
I1
tp9
Rp10
(I3
S'<'
p11
NNNI-1
I-1
I0
tp12
bI00
S'\x10w~`6ma@a\x00\xf2\xbe\xea\x95\x85?\xa9R}\xa8\x00\xa3\xe0?'
p13
tp14
b(lp15
(lp16
cnumpy.core.multiarray
scalar
p17
(g10
S'\xb0D\xde\xfbw\x9eW@'
p18
tp19
Rp20
ag17
(g10
S'\xc8\xcb\r\xc30\x0bg@'
p21
tp22
Rp23
aa(lp24
g17
(g10
S'\xcc\x18\xb4\xd4\x1c\xbcn?'
p25
tp26
Rp27
ag17
(g10
S'H}[$g\xbe\x91?'
p28
tp29
Rp30
aa(lp31
g17
(g10
S'-\xc9*\xf5\xdd\xa1\xe0?'
p32
tp33
Rp34
ag17
(g10
S'%\xdc\xcf[#\xa4\xe0?'
p35
tp36
Rp37
aatp38
.