(cnumpy.core.multiarray
_reconstruct
p0
(cnumpy
ndarray
p1
(I0
tp2
S'b'
p3
tp4
Rp5
(I1
(I3
tp6
cnumpy
dtype
p7
(S'f8'
p8
I0
I1
tp9
Rp10
(I3
S'<'
p11
NNNI-1
I-1
I0
tp12
bI00
S':\\\x9e\xcd\xa9vv@>\x16\xeet\x93\xfd5?\xc3\xe2\xe1\x15\xcc\x8e\xe0?'
p13
tp14
b(lp15
(lp16
cnumpy.core.multiarray
scalar
p17
(g10
S')\xac\xddyoTp@'
p18
tp19
Rp20
ag17
(g10
S'K\x0c_!\xe4\x98|@'
p21
tp22
Rp23
aa(lp24
g17
(g10
S'Ra\n\xcc}+2\xbf'
p25
tp26
Rp27
ag17
(g10
S'\xe7F\xf3ZR\x13O?'
p28
tp29
Rp30
aa(lp31
g17
(g10
S'8,?\x85l\x89\xe0?'
p32
tp33
Rp34
ag17
(g10
S'N\x99\x84\xa6+\x94\xe0?'
p35
tp36
Rp37
aatp38
.