(cnumpy.core.multiarray
_reconstruct
p0
(cnumpy
ndarray
p1
(I0
tp2
S'b'
p3
tp4
Rp5
(I1
(I3
tp6
cnumpy
dtype
p7
(S'f8'
p8
I0
I1
tp9
Rp10
(I3
S'<'
p11
NNNI-1
I-1
I0
tp12
bI00
S'u\tY\xc6n\xb9.@)\x12D\x06\xc7\x96u?YOB\xb3 \x82\xe0?'
p13
tp14
b(lp15
(lp16
cnumpy.core.multiarray
scalar
p17
(g10
S'kPS#L\xf2-@'
p18
tp19
Rp20
ag17
(g10
S'\x7f\xc2^i\x91\x80/@'
p21
tp22
Rp23
aa(lp24
g17
(g10
S'\xb6<s\xb5\xf1Rt?'
p25
tp26
Rp27
ag17
(g10
S'\x9c\xe7\x14W\x9c\xdav?'
p28
tp29
Rp30
aa(lp31
g17
(g10
S'S2\xdb\x88\xc5\x80\xe0?'
p32
tp33
Rp34
ag17
(g10
S'_l\xa9\xdd{\x83\xe0?'
p35
tp36
Rp37
aatp38
.