(cnumpy.core.multiarray
_reconstruct
p0
(cnumpy
ndarray
p1
(I0
tp2
S'b'
p3
tp4
Rp5
(I1
(I3
tp6
cnumpy
dtype
p7
(S'f8'
p8
I0
I1
tp9
Rp10
(I3
S'<'
p11
NNNI-1
I-1
I0
tp12
bI00
S'\x96\xc3"(\xda\x08P@\xffZ}\xe2\xb7tx?\x9c\xf0\xd1\x96w\xad\xe0?'
p13
tp14
b(lp15
(lp16
cnumpy.core.multiarray
scalar
p17
(g10
S'\x045\xeem\x19sL@'
p18
tp19
Rp20
ag17
(g10
S"\xaalN\x99'\xd8Q@"
p21
tp22
Rp23
aa(lp24
g17
(g10
S'7 \xeb\xbb|9r?'
p25
tp26
Rp27
ag17
(g10
S'\xc7\x95\x0f\t\xf3\xaf~?'
p28
tp29
Rp30
aa(lp31
g17
(g10
S"_\x9a2\x8d'\xac\xe0?"
p32
tp33
Rp34
ag17
(g10
S'\xd9Fq\xa0\xc7\xae\xe0?'
p35
tp36
Rp37
aatp38
.