(cnumpy.core.multiarray
_reconstruct
p0
(cnumpy
ndarray
p1
(I0
tp2
S'b'
p3
tp4
Rp5
(I1
(I3
tp6
cnumpy
dtype
p7
(S'f8'
p8
I0
I1
tp9
Rp10
(I3
S'<'
p11
NNNI-1
I-1
I0
tp12
bI00
S'\xa9\x84p\x8f\x01A0@/g\x90\xdb\x82\xf9p?\xcf\x85@\x8a0\x96\xe0?'
p13
tp14
b(lp15
(lp16
cnumpy.core.multiarray
scalar
p17
(g10
S'k?\xe3\x1cs\xb7/@'
p18
tp19
Rp20
ag17
(g10
S'\x9dio\x90I\xa60@'
p21
tp22
Rp23
aa(lp24
g17
(g10
S'\xe9\xe9j\x0c!\xebo?'
p25
tp26
Rp27
ag17
(g10
S'iY\xeb0u\xfdq?'
p28
tp29
Rp30
aa(lp31
g17
(g10
S'\xf6(F\xdd\xb9\x94\xe0?'
p32
tp33
Rp34
ag17
(g10
S'\xa8\xe2:7\xa7\x97\xe0?'
p35
tp36
Rp37
aatp38
.