(cnumpy.core.multiarray
_reconstruct
p0
(cnumpy
ndarray
p1
(I0
tp2
S'b'
p3
tp4
Rp5
(I1
(I3
tp6
cnumpy
dtype
p7
(S'f8'
p8
I0
I1
tp9
Rp10
(I3
S'<'
p11
NNNI-1
I-1
I0
tp12
bI00
S'/\x1fT\xda?}^@E~b)\xc8\xeep?\xb7\x14\x97\x8cL\x9a\xe0?'
p13
tp14
b(lp15
(lp16
cnumpy.core.multiarray
scalar
p17
(g10
S'\xa8\xba\xa1!>\xf4X@'
p18
tp19
Rp20
ag17
(g10
S'\xdbA\x83\xc9 \x03b@'
p21
tp22
Rp23
aa(lp24
g17
(g10
S'\x9a.\xb7+4\xa5b?'
p25
tp26
Rp27
ag17
(g10
S'=e\xe9<\xf6\x8ax?'
p28
tp29
Rp30
aa(lp31
g17
(g10
S'Us-T\xd5\x98\xe0?'
p32
tp33
Rp34
ag17
(g10
S'\x19\xb6\x00\xc5\xc3\x9b\xe0?'
p35
tp36
Rp37
aatp38
.