(cnumpy.core.multiarray
_reconstruct
p0
(cnumpy
ndarray
p1
(I0
tp2
S'b'
p3
tp4
Rp5
(I1
(I3
tp6
cnumpy
dtype
p7
(S'f8'
p8
I0
I1
tp9
Rp10
(I3
S'<'
p11
NNNI-1
I-1
I0
tp12
bI00
S'\\\x0b\x91\xc3\xab\x8bX@Y\n/`H\xe0|?\x99W\xa5\xc4_\xa6\xe0?'
p13
tp14
b(lp15
(lp16
cnumpy.core.multiarray
scalar
p17
(g10
S'os\x01[\x83\xf8S@'
p18
tp19
Rp20
ag17
(g10
S'I\xa3 ,\xd4\x1e]@'
p21
tp22
Rp23
aa(lp24
g17
(g10
S'+\xba;\x02],q?'
p25
tp26
Rp27
ag17
(g10
S'D-\x11\xdf\x19J\x84?'
p28
tp29
Rp30
aa(lp31
g17
(g10
S'\x91#xh\x1e\xa5\xe0?'
p32
tp33
Rp34
ag17
(g10
S'\xa1\x8b\xd2 \xa1\xa7\xe0?'
p35
tp36
Rp37
aatp38
.