(cnumpy.core.multiarray
_reconstruct
p0
(cnumpy
ndarray
p1
(I0
tp2
S'b'
p3
tp4
Rp5
(I1
(I3
tp6
cnumpy
dtype
p7
(S'f8'
p8
I0
I1
tp9
Rp10
(I3
S'<'
p11
NNNI-1
I-1
I0
tp12
bI00
S'\x1bs\x94\xc6ax/@\xed\x95\xc1m#\xb6u?TF\x9f\x87\xce\x91\xe0?'
p13
tp14
b(lp15
(lp16
cnumpy.core.multiarray
scalar
p17
(g10
S'\xa4E\xcf\x0bD\xa6.@'
p18
tp19
Rp20
ag17
(g10
S'I\xd0\xac\xc0?%0@'
p21
tp22
Rp23
aa(lp24
g17
(g10
S'\xb6\xff\xc9\x1a\x0egt?'
p25
tp26
Rp27
ag17
(g10
S'$,\xb9\xc08\x05w?'
p28
tp29
Rp30
aa(lp31
g17
(g10
S'y\x1f\xd7%t\x90\xe0?'
p32
tp33
Rp34
ag17
(g10
S'/mg\xe9(\x93\xe0?'
p35
tp36
Rp37
aatp38
.