(cnumpy.core.multiarray
_reconstruct
p0
(cnumpy
ndarray
p1
(I0
tp2
S'b'
p3
tp4
Rp5
(I1
(I3
tp6
cnumpy
dtype
p7
(S'f8'
p8
I0
I1
tp9
Rp10
(I3
S'<'
p11
NNNI-1
I-1
I0
tp12
bI00
S'I\x8e\xe3O\xca\xa8.@q\x9c`q\x9bUw?\x9cn?\rR\x88\xe0?'
p13
tp14
b(lp15
(lp16
cnumpy.core.multiarray
scalar
p17
(g10
S"'\xaa\xd4\xe2\x9f\xdb-@"
p18
tp19
Rp20
ag17
(g10
S'kr\xf2\xbc\xf4u/@'
p21
tp22
Rp23
aa(lp24
g17
(g10
S'|p2\xf2\xcc\xf2u?'
p25
tp26
Rp27
ag17
(g10
S'f\xc8\x8e\xf0i\xb8x?'
p28
tp29
Rp30
aa(lp31
g17
(g10
S'\x9e3\xb4O\xff\x86\xe0?'
p32
tp33
Rp34
ag17
(g10
S'\x9a\xa9\xca\xca\xa4\x89\xe0?'
p35
tp36
Rp37
aatp38
.