(cnumpy.core.multiarray
_reconstruct
p0
(cnumpy
ndarray
p1
(I0
tp2
S'b'
p3
tp4
Rp5
(I1
(I3
tp6
cnumpy
dtype
p7
(S'f8'
p8
I0
I1
tp9
Rp10
(I3
S'<'
p11
NNNI-1
I-1
I0
tp12
bI00
S'~\xe4/\xb0\xc5\xb0N@\x84\x00\x00\xb2\xad\xf5|?\x0e5\x84H\xf9\x9a\xe0?'
p13
tp14
b(lp15
(lp16
cnumpy.core.multiarray
scalar
p17
(g10
S'Q\x8c,\xb46\x1fK@'
p18
tp19
Rp20
ag17
(g10
S'V\x9e\x19V*!Q@'
p21
tp22
Rp23
aa(lp24
g17
(g10
S'@\x98\xbf=G\xa5u?'
p25
tp26
Rp27
ag17
(g10
S'd4 \x13\n#\x82?'
p28
tp29
Rp30
aa(lp31
g17
(g10
S'=Q\x86\x7f\xb8\x99\xe0?'
p32
tp33
Rp34
ag17
(g10
S'\xdf\x18\x82\x11:\x9c\xe0?'
p35
tp36
Rp37
aatp38
.