(cnumpy.core.multiarray
_reconstruct
p0
(cnumpy
ndarray
p1
(I0
tp2
S'b'
p3
tp4
Rp5
(I1
(I3
tp6
cnumpy
dtype
p7
(S'f8'
p8
I0
I1
tp9
Rp10
(I3
S'<'
p11
NNNI-1
I-1
I0
tp12
bI00
S'\x15Dlj\x08\x0cJ@\x88i\xd9Jf\xd6\x87?\x1f\x8c\x1f\xc6N\x8a\xe0?'
p13
tp14
b(lp15
(lp16
cnumpy.core.multiarray
scalar
p17
(g10
S'\xafe\xb9b|\xbdF@'
p18
tp19
Rp20
ag17
(g10
S'{"\x1fr\x94ZM@'
p21
tp22
Rp23
aa(lp24
g17
(g10
S'y0h{V\xe9\x81?'
p25
tp26
Rp27
ag17
(g10
S'\x97\xa2J\x1av\xc3\x8d?'
p28
tp29
Rp30
aa(lp31
g17
(g10
S'\nw\xde\xa80\x89\xe0?'
p32
tp33
Rp34
ag17
(g10
S'4\xa1`\xe3l\x8b\xe0?'
p35
tp36
Rp37
aatp38
.