(cnumpy.core.multiarray
_reconstruct
p0
(cnumpy
ndarray
p1
(I0
tp2
S'b'
p3
tp4
Rp5
(I1
(I3
tp6
cnumpy
dtype
p7
(S'f8'
p8
I0
I1
tp9
Rp10
(I3
S'<'
p11
NNNI-1
I-1
I0
tp12
bI00
S'Y\xd1\xfdj\x800K@\xc3h\xd6\xd1)\xd2\x80?\x885Pl\x12\x8f\xe0?'
p13
tp14
b(lp15
(lp16
cnumpy.core.multiarray
scalar
p17
(g10
S'\xf8\xa0d\ts0H@'
p18
tp19
Rp20
ag17
(g10
S'\xba\x01\x97\xcc\x8d0N@'
p21
tp22
Rp23
aa(lp24
g17
(g10
S'\n\xbe:k\x9c\xd6y?'
p25
tp26
Rp27
ag17
(g10
S'\x81r\x0fn\x05\xb9\x84?'
p28
tp29
Rp30
aa(lp31
g17
(g10
S'\x1ao;\xf7\xdd\x8d\xe0?'
p32
tp33
Rp34
ag17
(g10
S'\xf6\xfbd\xe1F\x90\xe0?'
p35
tp36
Rp37
aatp38
.