(cnumpy.core.multiarray
_reconstruct
p0
(cnumpy
ndarray
p1
(I0
tp2
S'b'
p3
tp4
Rp5
(I1
(I3
tp6
cnumpy
dtype
p7
(S'f8'
p8
I0
I1
tp9
Rp10
(I3
S'<'
p11
NNNI-1
I-1
I0
tp12
bI00
S'bK~\x12\xacmV@3\\\xdf{\xba\x8c\x8c?<\xe7j\xe8\xb9w\xe0?'
p13
tp14
b(lp15
(lp16
cnumpy.core.multiarray
scalar
p17
(g10
S'\xc5*4&t\nQ@'
p18
tp19
Rp20
ag17
(g10
S'\xffk\xc8\xfe\xe3\xd0[@'
p21
tp22
Rp23
aa(lp24
g17
(g10
S'WT\xfd\xa1J%\x7f?'
p25
tp26
Rp27
ag17
(g10
S'\x1d\x07`\xd3g\xc3\x94?'
p28
tp29
Rp30
aa(lp31
g17
(g10
S'u\x05\x8e!\xa6v\xe0?'
p32
tp33
Rp34
ag17
(g10
S'\x03\xc9G\xaf\xcdx\xe0?'
p35
tp36
Rp37
aatp38
.