(cnumpy.core.multiarray
_reconstruct
p0
(cnumpy
ndarray
p1
(I0
tp2
S'b'
p3
tp4
Rp5
(I1
(I3
tp6
cnumpy
dtype
p7
(S'f8'
p8
I0
I1
tp9
Rp10
(I3
S'<'
p11
NNNI-1
I-1
I0
tp12
bI00
S'F&"-\xd7\xb6.@\t\x01\x89v\x8c\xe7x?Uw!}\x99\x84\xe0?'
p13
tp14
b(lp15
(lp16
cnumpy.core.multiarray
scalar
p17
(g10
S'\x9d`y\\%\xe4-@'
p18
tp19
Rp20
ag17
(g10
S'\xef\xeb\xca\xfd\x88\x89/@'
p21
tp22
Rp23
aa(lp24
g17
(g10
S'\xa8p\xbcG%iw?'
p25
tp26
Rp27
ag17
(g10
S'j\x91U\xa5\xf3ez?'
p28
tp29
Rp30
aa(lp31
g17
(g10
S'\xf4\xfe\xe3\xb9N\x83\xe0?'
p32
tp33
Rp34
ag17
(g10
S'\xb6\xef^@\xe4\x85\xe0?'
p35
tp36
Rp37
aatp38
.