(cnumpy.core.multiarray
_reconstruct
p0
(cnumpy
ndarray
p1
(I0
tp2
S'b'
p3
tp4
Rp5
(I1
(I3
tp6
cnumpy
dtype
p7
(S'f8'
p8
I0
I1
tp9
Rp10
(I3
S'<'
p11
NNNI-1
I-1
I0
tp12
bI00
S'\xc9@\xf7B\x98Gc@\xeb]\xac\x02\xab/Z?\x9de^\xc6\x16\x9c\xe0?'
p13
tp14
b(lp15
(lp16
cnumpy.core.multiarray
scalar
p17
(g10
S'\xedN\xaab\x0c\x19`@'
p18
tp19
Rp20
ag17
(g10
S'\xa52D#$vf@'
p21
tp22
Rp23
aa(lp24
g17
(g10
S'\xc2\xf5\xf3U\xa4\x9cG?'
p25
tp26
Rp27
ag17
(g10
S'z`/\xed\x81Hd?'
p28
tp29
Rp30
aa(lp31
g17
(g10
S'@\xc8\xd5_\xed\x99\xe0?'
p32
tp33
Rp34
ag17
(g10
S'\xfa\x02\xe7,@\x9e\xe0?'
p35
tp36
Rp37
aatp38
.