(cnumpy.core.multiarray
_reconstruct
p0
(cnumpy
ndarray
p1
(I0
tp2
S'b'
p3
tp4
Rp5
(I1
(I3
tp6
cnumpy
dtype
p7
(S'f8'
p8
I0
I1
tp9
Rp10
(I3
S'<'
p11
NNNI-1
I-1
I0
tp12
bI00
S'\xea7t\xc5\xca-\\@FFjY\r\xd4{?wnv\xbb\xad\x93\xe0?'
p13
tp14
b(lp15
(lp16
cnumpy.core.multiarray
scalar
p17
(g10
S'@\xed<\x0e\x94NV@'
p18
tp19
Rp20
ag17
(g10
S'J\xc1U\xbe\x80\x06a@'
p21
tp22
Rp23
aa(lp24
g17
(g10
S'x\x15\xd1\xc4\xc19n?'
p25
tp26
Rp27
ag17
(g10
S'\xe8\x006\xe8\x9cE\x84?'
p28
tp29
Rp30
aa(lp31
g17
(g10
S'\x86\xa6\x99\x89j\x92\xe0?'
p32
tp33
Rp34
ag17
(g10
S'h6S\xed\xf0\x94\xe0?'
p35
tp36
Rp37
aatp38
.