(cnumpy.core.multiarray
_reconstruct
p0
(cnumpy
ndarray
p1
(I0
tp2
S'b'
p3
tp4
Rp5
(I1
(I3
tp6
cnumpy
dtype
p7
(S'f8'
p8
I0
I1
tp9
Rp10
(I3
S'<'
p11
NNNI-1
I-1
I0
tp12
bI00
S'\x84T\xec^\xb1\x8dP@\xbf\x91\\\xef\xccZ|?\xd0\xb2\xba\xd6e\x88\xe0?'
p13
tp14
b(lp15
(lp16
cnumpy.core.multiarray
scalar
p17
(g10
S"\t;xA'\x04M@"
p18
tp19
Rp20
ag17
(g10
S'\x83\x8b\x1c\x1dO\x99R@'
p21
tp22
Rp23
aa(lp24
g17
(g10
S'\\L%{J\xb5t?'
p25
tp26
Rp27
ag17
(g10
S"\x91\xeb\xc9\xb1'\x00\x82?"
p28
tp29
Rp30
aa(lp31
g17
(g10
S'\xe9x\xf7S#\x87\xe0?'
p32
tp33
Rp34
ag17
(g10
S'\xb7\xec}Y\xa8\x89\xe0?'
p35
tp36
Rp37
aatp38
.