(cnumpy.core.multiarray
_reconstruct
p0
(cnumpy
ndarray
p1
(I0
tp2
S'b'
p3
tp4
Rp5
(I1
(I3
tp6
cnumpy
dtype
p7
(S'f8'
p8
I0
I1
tp9
Rp10
(I3
S'<'
p11
NNNI-1
I-1
I0
tp12
bI00
S'j-\x83\xb3\xc2\x8ck@\xe7\xa6|!+mb?}\xb1\x05\xc23\x8a\xe0?'
p13
tp14
b(lp15
(lp16
cnumpy.core.multiarray
scalar
p17
(g10
S'wH\x05\xc4\x8f_d@'
p18
tp19
Rp20
ag17
(g10
S'.\x89\x80\xd1\xfa\\q@'
p21
tp22
Rp23
aa(lp24
g17
(g10
S'\xd4\r7I\r\xd8@?'
p25
tp26
Rp27
ag17
(g10
S',\xc5Ux)Rp?'
p28
tp29
Rp30
aa(lp31
g17
(g10
S'\xe7\x85l\x14[\x88\xe0?'
p32
tp33
Rp34
ag17
(g10
S'\x13\xdd\x9eo\x0c\x8c\xe0?'
p35
tp36
Rp37
aatp38
.