(cnumpy.core.multiarray
_reconstruct
p0
(cnumpy
ndarray
p1
(I0
tp2
S'b'
p3
tp4
Rp5
(I1
(I3
tp6
cnumpy
dtype
p7
(S'f8'
p8
I0
I1
tp9
Rp10
(I3
S'<'
p11
NNNI-1
I-1
I0
tp12
bI00
S'\xa3Q\x8c\xa0X&L@\t\xaf\x03\xa4\xa5>\x81?yy\xc3nw\xa3\xe0?'
p13
tp14
b(lp15
(lp16
cnumpy.core.multiarray
scalar
p17
(g10
S'\x0f\xb7\xfe\xa4Z\xe2H@'
p18
tp19
Rp20
ag17
(g10
S'7\xec\x19\x9cVjO@'
p21
tp22
Rp23
aa(lp24
g17
(g10
S'\xc4\x04\xfa\xa7a\x1fz?'
p25
tp26
Rp27
ag17
(g10
S'\xb0[\nt\x9am\x85?'
p28
tp29
Rp30
aa(lp31
g17
(g10
S'!MB\x80E\xa2\xe0?'
p32
tp33
Rp34
ag17
(g10
S'\xd1\xa5D]\xa9\xa4\xe0?'
p35
tp36
Rp37
aatp38
.