(cnumpy.core.multiarray
_reconstruct
p0
(cnumpy
ndarray
p1
(I0
tp2
S'b'
p3
tp4
Rp5
(I1
(I3
tp6
cnumpy
dtype
p7
(S'f8'
p8
I0
I1
tp9
Rp10
(I3
S'<'
p11
NNNI-1
I-1
I0
tp12
bI00
S'Q\xfc\x0e)\x96?c@\xac\xcf\x8b,\r6Z?%\x9b\xf3\x0e\x15\x9c\xe0?'
p13
tp14
b(lp15
(lp16
cnumpy.core.multiarray
scalar
p17
(g10
S'\xce\xc3>Ft\x13`@'
p18
tp19
Rp20
ag17
(g10
S'\xd44\xdf\x0b\xb8kf@'
p21
tp22
Rp23
aa(lp24
g17
(g10
S' b\xf4\x9e\xd8\xaeG?'
p25
tp26
Rp27
ag17
(g10
S'$\xb7\xce\x04WJd?'
p28
tp29
Rp30
aa(lp31
g17
(g10
S'M\xe9J\xe9\xeb\x99\xe0?'
p32
tp33
Rp34
ag17
(g10
S'\xfdL\x9c4>\x9e\xe0?'
p35
tp36
Rp37
aatp38
.