(cnumpy.core.multiarray
_reconstruct
p0
(cnumpy
ndarray
p1
(I0
tp2
S'b'
p3
tp4
Rp5
(I1
(I3
tp6
cnumpy
dtype
p7
(S'f8'
p8
I0
I1
tp9
Rp10
(I3
S'<'
p11
NNNI-1
I-1
I0
tp12
bI00
S'\xcf\x1fd\x86\x17\x19R@\xb6\x9f\xf3\xab)as?\x1a"}\x10\xc6\x94\xe0?'
p13
tp14
b(lp15
(lp16
cnumpy.core.multiarray
scalar
p17
(g10
S'L\xfe\x93mR\tP@'
p18
tp19
Rp20
ag17
(g10
S'RA4\x9f\xdc(T@'
p21
tp22
Rp23
aa(lp24
g17
(g10
S'%F\xe8h\xd75l?'
p25
tp26
Rp27
ag17
(g10
S'Z\x1cs\xa3g\xa7x?'
p28
tp29
Rp30
aa(lp31
g17
(g10
S'g1\xad\xea^\x93\xe0?'
p32
tp33
Rp34
ag17
(g10
S'\xcd\x12M6-\x96\xe0?'
p35
tp36
Rp37
aatp38
.