(cnumpy.core.multiarray
_reconstruct
p0
(cnumpy
ndarray
p1
(I0
tp2
S'b'
p3
tp4
Rp5
(I1
(I3
tp6
cnumpy
dtype
p7
(S'f8'
p8
I0
I1
tp9
Rp10
(I3
S'<'
p11
NNNI-1
I-1
I0
tp12
bI00
S'\x8c0\xdc\xd7t\x12`@j*\xbd^\xd5\xda\x8a?M\xfd\xd9\xb3\x83\xae\xe0?'
p13
tp14
b(lp15
(lp16
cnumpy.core.multiarray
scalar
p17
(g10
S'$.\xb8v\x86KU@'
p18
tp19
Rp20
ag17
(g10
S'\x06J\\t&\x7fe@'
p21
tp22
Rp23
aa(lp24
g17
(g10
S'\xb4\x9c\xa4\xa5\x93\x00s?'
p25
tp26
Rp27
ag17
(g10
S'=\x03Tu\xb0\x1a\x96?'
p28
tp29
Rp30
aa(lp31
g17
(g10
S'Ag\xa1cl\xad\xe0?'
p32
tp33
Rp34
ag17
(g10
S'Y\x93\x12\x04\x9b\xaf\xe0?'
p35
tp36
Rp37
aatp38
.