(cnumpy.core.multiarray
_reconstruct
p0
(cnumpy
ndarray
p1
(I0
tp2
S'b'
p3
tp4
Rp5
(I1
(I3
tp6
cnumpy
dtype
p7
(S'f8'
p8
I0
I1
tp9
Rp10
(I3
S'<'
p11
NNNI-1
I-1
I0
tp12
bI00
S'\xe5=\x8d\xb4]j-@\xa0F\xacN%\x9fx?\xf8\xaeA\x97Gq\xe0?'
p13
tp14
b(lp15
(lp16
cnumpy.core.multiarray
scalar
p17
(g10
S'\xd0p\xa0_\x92\xa9,@'
p18
tp19
Rp20
ag17
(g10
S'\xfa\nz\t)+.@'
p21
tp22
Rp23
aa(lp24
g17
(g10
S'\x9b6\x08\xb8\x135w?'
p25
tp26
Rp27
ag17
(g10
S'\xa5VP\xe56\tz?'
p28
tp29
Rp30
aa(lp31
g17
(g10
S'n\xa6JL\xf9o\xe0?'
p32
tp33
Rp34
ag17
(g10
S'\x82\xb78\xe2\x95r\xe0?'
p35
tp36
Rp37
aatp38
.