(cnumpy.core.multiarray
_reconstruct
p0
(cnumpy
ndarray
p1
(I0
tp2
S'b'
p3
tp4
Rp5
(I1
(I3
tp6
cnumpy
dtype
p7
(S'f8'
p8
I0
I1
tp9
Rp10
(I3
S'<'
p11
NNNI-1
I-1
I0
tp12
bI00
S'\x95\xea\xb3\xf1&_-@S\xe6\x9b\xc3\x02ew?\x8d\x0c/\xcb\x86\x95\xe0?'
p13
tp14
b(lp15
(lp16
cnumpy.core.multiarray
scalar
p17
(g10
S'\xdf\xf3\x14\xf5P\xa1,@'
p18
tp19
Rp20
ag17
(g10
S'K\xe1R\xee\xfc\x1c.@'
p21
tp22
Rp23
aa(lp24
g17
(g10
S'\x94h*O\xba\rv?'
p25
tp26
Rp27
ag17
(g10
S'\x12d\r8K\xbcx?'
p28
tp29
Rp30
aa(lp31
g17
(g10
S'\xd2\x91\xc1!3\x94\xe0?'
p32
tp33
Rp34
ag17
(g10
S'H\x87\x9ct\xda\x96\xe0?'
p35
tp36
Rp37
aatp38
.