(cnumpy.core.multiarray
_reconstruct
p0
(cnumpy
ndarray
p1
(I0
tp2
S'b'
p3
tp4
Rp5
(I1
(I3
tp6
cnumpy
dtype
p7
(S'f8'
p8
I0
I1
tp9
Rp10
(I3
S'<'
p11
NNNI-1
I-1
I0
tp12
bI00
S'\x80\xde\xe8KY=+@\xf9\xb3\x9d\xfax6\x80?\x9e\xe9\xa1\xa9Xk\xe0?'
p13
tp14
b(lp15
(lp16
cnumpy.core.multiarray
scalar
p17
(g10
S'\xcc\x11^\xd4~\x81*@'
p18
tp19
Rp20
ag17
(g10
S'4\xabs\xc33\xf9+@'
p21
tp22
Rp23
aa(lp24
g17
(g10
S'\x14\xfa\x8e\x85\xe7\x94~?'
p25
tp26
Rp27
ag17
(g10
S'\xe8\xeas2~"\x81?'
p28
tp29
Rp30
aa(lp31
g17
(g10
S'\xaap\'\r"j\xe0?'
p32
tp33
Rp34
ag17
(g10
S'\x92b\x1cF\x8fl\xe0?'
p35
tp36
Rp37
aatp38
.