(cnumpy.core.multiarray
_reconstruct
p0
(cnumpy
ndarray
p1
(I0
tp2
S'b'
p3
tp4
Rp5
(I1
(I3
tp6
cnumpy
dtype
p7
(S'f8'
p8
I0
I1
tp9
Rp10
(I3
S'<'
p11
NNNI-1
I-1
I0
tp12
bI00
S'+$[/\xcb\x91i@\x99\xef\x96\xfa\xe8\x00J?\xdf\x96+;\x03\x9b\xe0?'
p13
tp14
b(lp15
(lp16
cnumpy.core.multiarray
scalar
p17
(g10
S"`EP'\xf4\xe4d@"
p18
tp19
Rp20
ag17
(g10
S'\xf6\x02f7\xa2>n@'
p21
tp22
Rp23
aa(lp24
g17
(g10
S'(\xb1\xber\x1bC$?'
p25
tp26
Rp27
ag17
(g10
S't\x19?\x8c\x85xW?'
p28
tp29
Rp30
aa(lp31
g17
(g10
S'}\x00\x05^\xe0\x97\xe0?'
p32
tp33
Rp34
ag17
(g10
S'A-R\x18&\x9e\xe0?'
p35
tp36
Rp37
aatp38
.