(cnumpy.core.multiarray
_reconstruct
p0
(cnumpy
ndarray
p1
(I0
tp2
S'b'
p3
tp4
Rp5
(I1
(I3
tp6
cnumpy
dtype
p7
(S'f8'
p8
I0
I1
tp9
Rp10
(I3
S'<'
p11
NNNI-1
I-1
I0
tp12
bI00
S'j\\\xd4+z\xb8i@\xb1\xbb*\x11\x01%e?k\xe0\x93\x80,\x9c\xe0?'
p13
tp14
b(lp15
(lp16
cnumpy.core.multiarray
scalar
p17
(g10
S'\x03\x16%\\\xa0\x1ac@'
p18
tp19
Rp20
ag17
(g10
S'h\xd1\xc1\xfd)+p@'
p21
tp22
Rp23
aa(lp24
g17
(g10
S'4\x8fqJ\xa8\xe5F?'
p25
tp26
Rp27
ag17
(g10
S'\xca\x89\xdc\x07LHr?'
p28
tp29
Rp30
aa(lp31
g17
(g10
S'6\xd1\x8c!l\x9a\xe0?'
p32
tp33
Rp34
ag17
(g10
S'\xa0\xef\x9a\xdf\xec\x9d\xe0?'
p35
tp36
Rp37
aatp38
.