(cnumpy.core.multiarray
_reconstruct
p0
(cnumpy
ndarray
p1
(I0
tp2
S'b'
p3
tp4
Rp5
(I1
(I3
tp6
cnumpy
dtype
p7
(S'f8'
p8
I0
I1
tp9
Rp10
(I3
S'<'
p11
NNNI-1
I-1
I0
tp12
bI00
S'\xb7YA\xf8\x99\xc8`@\x08\x10J\xdb\xb4\xb6h?\x89\xb1\xfc\xdc\x15\x99\xe0?'
p13
tp14
b(lp15
(lp16
cnumpy.core.multiarray
scalar
p17
(g10
S'~h\xf5!\xfb\x9f[@'
p18
tp19
Rp20
ag17
(g10
S'/\xff\x87_6\xc1c@'
p21
tp22
Rp23
aa(lp24
g17
(g10
S'\xearCY0\xc6Y?'
p25
tp26
Rp27
ag17
(g10
S'N3\xf9\xc4(Er?'
p28
tp29
Rp30
aa(lp31
g17
(g10
S'\xc3c\xf7Iq\x97\xe0?'
p32
tp33
Rp34
ag17
(g10
S'O\xff\x01p\xba\x9a\xe0?'
p35
tp36
Rp37
aatp38
.