(cnumpy.core.multiarray
_reconstruct
p0
(cnumpy
ndarray
p1
(I0
tp2
S'b'
p3
tp4
Rp5
(I1
(I3
tp6
cnumpy
dtype
p7
(S'f8'
p8
I0
I1
tp9
Rp10
(I3
S'<'
p11
NNNI-1
I-1
I0
tp12
bI00
S'}\xbcqb\x1a\xe2+@\xd1=?aX\x9c\x7f?S\xf6\x9f\xed\xe1f\xe0?'
p13
tp14
b(lp15
(lp16
cnumpy.core.multiarray
scalar
p17
(g10
S'\x8f\x18\x13\xc2\xbe\x1f+@'
p18
tp19
Rp20
ag17
(g10
S'k`\xd0\x02v\xa4,@'
p21
tp22
Rp23
aa(lp24
g17
(g10
S'e\xa9\xa1W\xa6\xc8}?'
p25
tp26
Rp27
ag17
(g10
S'\x1ein5\x05\xb8\x80?'
p28
tp29
Rp30
aa(lp31
g17
(g10
S'\x99:(\n\xa9e\xe0?'
p32
tp33
Rp34
ag17
(g10
S'\r\xb2\x17\xd1\x1ah\xe0?'
p35
tp36
Rp37
aatp38
.