(cnumpy.core.multiarray
_reconstruct
p0
(cnumpy
ndarray
p1
(I0
tp2
S'b'
p3
tp4
Rp5
(I1
(I3
tp6
cnumpy
dtype
p7
(S'f8'
p8
I0
I1
tp9
Rp10
(I3
S'<'
p11
NNNI-1
I-1
I0
tp12
bI00
S'\xb7\x8a\x14\xc4;\x18a@/\xffXF\xfc\\k?n\xff\x9f\x9f\xc3\xa8\xe0?'
p13
tp14
b(lp15
(lp16
cnumpy.core.multiarray
scalar
p17
(g10
S"\xe6'\xa01\xe5\xc3[@"
p18
tp19
Rp20
ag17
(g10
S'{\x01Y\xef\x84Nd@'
p21
tp22
Rp23
aa(lp24
g17
(g10
S'\xe6;\x8dJ\x11\xbc[?'
p25
tp26
Rp27
ag17
(g10
S'6\xb0\xb5\xf3\xf7mt?'
p28
tp29
Rp30
aa(lp31
g17
(g10
S'0&g"/\xa7\xe0?'
p32
tp33
Rp34
ag17
(g10
S'\xac\xd8\xd8\x1cX\xaa\xe0?'
p35
tp36
Rp37
aatp38
.