(cnumpy.core.multiarray
_reconstruct
p0
(cnumpy
ndarray
p1
(I0
tp2
S'b'
p3
tp4
Rp5
(I1
(I3
tp6
cnumpy
dtype
p7
(S'f8'
p8
I0
I1
tp9
Rp10
(I3
S'<'
p11
NNNI-1
I-1
I0
tp12
bI00
S'\xec5[\xd1\xfe@U@{ukI\x02\x12\x8b?\xc5 \xc8Fx\xb9\xe0?'
p13
tp14
b(lp15
(lp16
cnumpy.core.multiarray
scalar
p17
(g10
S'u$Y\xde\xc0|P@'
p18
tp19
Rp20
ag17
(g10
S'cG]\xc4<\x05Z@'
p21
tp22
Rp23
aa(lp24
g17
(g10
S'\xd0\x1e`\x01\xcf\xee~?'
p25
tp26
Rp27
ag17
(g10
S'\xc7m\x13\x89NV\x93?'
p28
tp29
Rp30
aa(lp31
g17
(g10
S'\xfc&T\x19b\xb8\xe0?'
p32
tp33
Rp34
ag17
(g10
S'\x8e\x1a<t\x8e\xba\xe0?'
p35
tp36
Rp37
aatp38
.