(cnumpy.core.multiarray
_reconstruct
p0
(cnumpy
ndarray
p1
(I0
tp2
S'b'
p3
tp4
Rp5
(I1
(I3
tp6
cnumpy
dtype
p7
(S'f8'
p8
I0
I1
tp9
Rp10
(I3
S'<'
p11
NNNI-1
I-1
I0
tp12
bI00
S"'\xf4\x19R\xd1\x08X@n\x05\x05\xaf\xde\xdc\x83?\xa2/s\xe8\x9a\x88\xe0?"
p13
tp14
b(lp15
(lp16
cnumpy.core.multiarray
scalar
p17
(g10
S'F\x96\xd5H\x91\xf2R@'
p18
tp19
Rp20
ag17
(g10
S'\x08R^[\x11\x1f]@'
p21
tp22
Rp23
aa(lp24
g17
(g10
S';\x8dI\xbb\xe2\xa4v?'
p25
tp26
Rp27
ag17
(g10
S'>De\x00Lg\x8c?'
p28
tp29
Rp30
aa(lp31
g17
(g10
S'm\r\x9awr\x87\xe0?'
p32
tp33
Rp34
ag17
(g10
S'\xd7QLY\xc3\x89\xe0?'
p35
tp36
Rp37
aatp38
.