(cnumpy.core.multiarray
_reconstruct
p0
(cnumpy
ndarray
p1
(I0
tp2
S'b'
p3
tp4
Rp5
(I1
(I3
tp6
cnumpy
dtype
p7
(S'f8'
p8
I0
I1
tp9
Rp10
(I3
S'<'
p11
NNNI-1
I-1
I0
tp12
bI00
S'\x1f9\xb6\xe5\x9e\xa7W@\xe4}lyd\x18\x88?d4-\n\xc1\x94\xe0?'
p13
tp14
b(lp15
(lp16
cnumpy.core.multiarray
scalar
p17
(g10
S'D\xed\xd5\x1d-/R@'
p18
tp19
Rp20
ag17
(g10
S'\xfa\x84\x96\xad\x10 ]@'
p21
tp22
Rp23
aa(lp24
g17
(g10
S'\xc8\x89X\xce\x98gz?'
p25
tp26
Rp27
ag17
(g10
S'r[\xd6E~~\x91?'
p28
tp29
Rp30
aa(lp31
g17
(g10
S'\x9eP\xfe\t\xa5\x93\xe0?'
p32
tp33
Rp34
ag17
(g10
S'*\x18\\\n\xdd\x95\xe0?'
p35
tp36
Rp37
aatp38
.