(cnumpy.core.multiarray
_reconstruct
p0
(cnumpy
ndarray
p1
(I0
tp2
S'b'
p3
tp4
Rp5
(I1
(I3
tp6
cnumpy
dtype
p7
(S'f8'
p8
I0
I1
tp9
Rp10
(I3
S'<'
p11
NNNI-1
I-1
I0
tp12
bI00
S'\xc5,\xefA\xd7T/@w\x14GU\xa1\x87x?\xe9\x02\x92\x0b\x8c\x97\xe0?'
p13
tp14
b(lp15
(lp16
cnumpy.core.multiarray
scalar
p17
(g10
S'\x9d\xb6#\xc1Ix.@'
p18
tp19
Rp20
ag17
(g10
S'vQ]a\xb2\x180@'
p21
tp22
Rp23
aa(lp24
g17
(g10
S'\x84e\x0eI\xbc\x03w?'
p25
tp26
Rp27
ag17
(g10
S'j\xc3\x7fa\x86\x0bz?'
p28
tp29
Rp30
aa(lp31
g17
(g10
S'\x87+\x0f)=\x96\xe0?'
p32
tp33
Rp34
ag17
(g10
S'K\xda\x14\xee\xda\x98\xe0?'
p35
tp36
Rp37
aatp38
.