(cnumpy.core.multiarray
_reconstruct
p0
(cnumpy
ndarray
p1
(I0
tp2
S'b'
p3
tp4
Rp5
(I1
(I3
tp6
cnumpy
dtype
p7
(S'f8'
p8
I0
I1
tp9
Rp10
(I3
S'<'
p11
NNNI-1
I-1
I0
tp12
bI00
S"\x17\x05\xb9\x08\x0f\xec^@\x072=TE\t\x89?Z\xc8\xd29'\xa5\xe0?"
p13
tp14
b(lp15
(lp16
cnumpy.core.multiarray
scalar
p17
(g10
S'v(08\x98]U@'
p18
tp19
Rp20
ag17
(g10
S'\xdc\xf0\xa0\xecB=d@'
p21
tp22
Rp23
aa(lp24
g17
(g10
S'\x98,\x9f`\xee\nt?'
p25
tp26
Rp27
ag17
(g10
S'\xe1f\x15\xbc\x89\x06\x94?'
p28
tp29
Rp30
aa(lp31
g17
(g10
S'w|BE\x0e\xa4\xe0?'
p32
tp33
Rp34
ag17
(g10
S'=\x14c.@\xa6\xe0?'
p35
tp36
Rp37
aatp38
.