(cnumpy.core.multiarray
_reconstruct
p0
(cnumpy
ndarray
p1
(I0
tp2
S'b'
p3
tp4
Rp5
(I1
(I3
tp6
cnumpy
dtype
p7
(S'f8'
p8
I0
I1
tp9
Rp10
(I3
S'<'
p11
NNNI-1
I-1
I0
tp12
bI00
S'^<\x0e\xf8\xbd#P@B9l\xde\xefL{?\x8c\xb2\xa4\xc2\x7f\x98\xe0?'
p13
tp14
b(lp15
(lp16
cnumpy.core.multiarray
scalar
p17
(g10
S'\x10d\x1a\x97\x0cpL@'
p18
tp19
Rp20
ag17
(g10
S'\xb4F\x8f\xa4u\x0fR@'
p21
tp22
Rp23
aa(lp24
g17
(g10
S"b\xde\xf5p'&t?"
p25
tp26
Rp27
ag17
(g10
S'\x11J\xf1%\xdc9\x81?'
p28
tp29
Rp30
aa(lp31
g17
(g10
S'Z\xe8\x8bw9\x97\xe0?'
p32
tp33
Rp34
ag17
(g10
S'\xbe|\xbd\r\xc6\x99\xe0?'
p35
tp36
Rp37
aatp38
.