(cnumpy.core.multiarray
_reconstruct
p0
(cnumpy
ndarray
p1
(I0
tp2
S'b'
p3
tp4
Rp5
(I1
(I3
tp6
cnumpy
dtype
p7
(S'f8'
p8
I0
I1
tp9
Rp10
(I3
S'<'
p11
NNNI-1
I-1
I0
tp12
bI00
S'\x1b\xccL\xaf]j-@\xb8\x18oW%\x9fx?\x89\xbfE\x97Gq\xe0?'
p13
tp14
b(lp15
(lp16
cnumpy.core.multiarray
scalar
p17
(g10
S'\x9fmKZ\x92\xa9,@'
p18
tp19
Rp20
ag17
(g10
S'\x97*N\x04)+.@'
p21
tp22
Rp23
aa(lp24
g17
(g10
S'P\xfea\xc0\x135w?'
p25
tp26
Rp27
ag17
(g10
S' 3|\xee6\tz?'
p28
tp29
Rp30
aa(lp31
g17
(g10
S'\x02\xf2NL\xf9o\xe0?'
p32
tp33
Rp34
ag17
(g10
S'\x10\x8d<\xe2\x95r\xe0?'
p35
tp36
Rp37
aatp38
.