(cnumpy.core.multiarray
_reconstruct
p0
(cnumpy
ndarray
p1
(I0
tp2
S'b'
p3
tp4
Rp5
(I1
(I3
tp6
cnumpy
dtype
p7
(S'f8'
p8
I0
I1
tp9
Rp10
(I3
S'<'
p11
NNNI-1
I-1
I0
tp12
bI00
S'L#\x87E2=.@\x02\xf2d\x8c\xdf\x8av?\\f\xd6A~\x9b\xe0?'
p13
tp14
b(lp15
(lp16
cnumpy.core.multiarray
scalar
p17
(g10
S'$\xfdW\xebxv-@'
p18
tp19
Rp20
ag17
(g10
S'tI\xb6\x9f\xeb\x03/@'
p21
tp22
Rp23
aa(lp24
g17
(g10
S'\xaesz\xf1\x8c7u?'
p25
tp26
Rp27
ag17
(g10
S"VpO'2\xdew?"
p28
tp29
Rp30
aa(lp31
g17
(g10
S'\x0b\xa9\\\x04&\x9a\xe0?'
p32
tp33
Rp34
ag17
(g10
S'\xad#P\x7f\xd6\x9c\xe0?'
p35
tp36
Rp37
aatp38
.