(cnumpy.core.multiarray
_reconstruct
p0
(cnumpy
ndarray
p1
(I0
tp2
S'b'
p3
tp4
Rp5
(I1
(I3
tp6
cnumpy
dtype
p7
(S'f8'
p8
I0
I1
tp9
Rp10
(I3
S'<'
p11
NNNI-1
I-1
I0
tp12
bI00
S'C\x1d\x14$\x99q.@"j\xc4\xb7\x80\xd3v?\xfb\x1a9\xe8\xbc\x8f\xe0?'
p13
tp14
b(lp15
(lp16
cnumpy.core.multiarray
scalar
p17
(g10
S'\xeaW:n\x89\xa8-@'
p18
tp19
Rp20
ag17
(g10
S'\x9c\xe2\xed\xd9\xa8:/@'
p21
tp22
Rp23
aa(lp24
g17
(g10
S'\xd0g\xfej4{u?'
p25
tp26
Rp27
ag17
(g10
S'tl\x8a\x04\xcd+x?'
p28
tp29
Rp30
aa(lp31
g17
(g10
S'\xe2\x0b/eg\x8e\xe0?'
p32
tp33
Rp34
ag17
(g10
S'\x14*Ck\x12\x91\xe0?'
p35
tp36
Rp37
aatp38
.