(cnumpy.core.multiarray
_reconstruct
p0
(cnumpy
ndarray
p1
(I0
tp2
S'b'
p3
tp4
Rp5
(I1
(I3
tp6
cnumpy
dtype
p7
(S'f8'
p8
I0
I1
tp9
Rp10
(I3
S'<'
p11
NNNI-1
I-1
I0
tp12
bI00
S'X\xb6ZJ\xc5O_@\xe8\xb6RA\xbc\xa3p?\xd6\xfdr\xc1z\x8d\xe0?'
p13
tp14
b(lp15
(lp16
cnumpy.core.multiarray
scalar
p17
(g10
S'\xd0\x9dX\x9fO\x81Y@'
p18
tp19
Rp20
ag17
(g10
S'pg\xaez\x1d\x8fb@'
p21
tp22
Rp23
aa(lp24
g17
(g10
S'\xbc`\x18\xd0\x17\xeea?'
p25
tp26
Rp27
ag17
(g10
S'r=\x99\x9alPx?'
p28
tp29
Rp30
aa(lp31
g17
(g10
S'Px\x8fn\xff\x8b\xe0?'
p32
tp33
Rp34
ag17
(g10
S'\\\x83V\x14\xf6\x8e\xe0?'
p35
tp36
Rp37
aatp38
.