(cnumpy.core.multiarray
_reconstruct
p0
(cnumpy
ndarray
p1
(I0
tp2
S'b'
p3
tp4
Rp5
(I1
(I3
tp6
cnumpy
dtype
p7
(S'f8'
p8
I0
I1
tp9
Rp10
(I3
S'<'
p11
NNNI-1
I-1
I0
tp12
bI00
S'Zq\x99\x14x\xb8i@?\x16\tv\x07%e?\x1d!9\x81,\x9c\xe0?'
p13
tp14
b(lp15
(lp16
cnumpy.core.multiarray
scalar
p17
(g10
S'\xc5\x14r\x92\x9e\x1ac@'
p18
tp19
Rp20
ag17
(g10
S'\xf7f`\xcb(+p@'
p21
tp22
Rp23
aa(lp24
g17
(g10
S'd\xb8\xe7\xa6\xb2\xe5F?'
p25
tp26
Rp27
ag17
(g10
S'2\x1f,!QHr?'
p28
tp29
Rp30
aa(lp31
g17
(g10
S'\xb3,h"l\x9a\xe0?'
p32
tp33
Rp34
ag17
(g10
S'\x87\x15\n\xe0\xec\x9d\xe0?'
p35
tp36
Rp37
aatp38
.