(cnumpy.core.multiarray
_reconstruct
p0
(cnumpy
ndarray
p1
(I0
tp2
S'b'
p3
tp4
Rp5
(I1
(I3
tp6
cnumpy
dtype
p7
(S'f8'
p8
I0
I1
tp9
Rp10
(I3
S'<'
p11
NNNI-1
I-1
I0
tp12
bI00
S'!ZYX\xde\xa1\\@\x95[\xa1~\x94Iw?n/w\x00\xe2\xa0\xe0?'
p13
tp14
b(lp15
(lp16
cnumpy.core.multiarray
scalar
p17
(g10
S'WR/\xfa\x94\x02W@'
p18
tp19
Rp20
ag17
(g10
S'\xf6\xb0A\xdb\x93 a@'
p21
tp22
Rp23
aa(lp24
g17
(g10
S'\xa8~$\x89\xb7\xaci?'
p25
tp26
Rp27
ag17
(g10
S'\xeb;X\x9cf\xde\x80?'
p28
tp29
Rp30
aa(lp31
g17
(g10
S'-\x01K/\x8d\x9f\xe0?'
p32
tp33
Rp34
ag17
(g10
S'\xaf]\xa3\xd16\xa2\xe0?'
p35
tp36
Rp37
aatp38
.