(cnumpy.core.multiarray
_reconstruct
p0
(cnumpy
ndarray
p1
(I0
tp2
S'b'
p3
tp4
Rp5
(I1
(I3
tp6
cnumpy
dtype
p7
(S'f8'
p8
I0
I1
tp9
Rp10
(I3
S'<'
p11
NNNI-1
I-1
I0
tp12
bI00
S'\xc9\n\x97z#\x02P@\n\x80cy\x11\x83y?\x83_\x10_\xbb\x97\xe0?'
p13
tp14
b(lp15
(lp16
cnumpy.core.multiarray
scalar
p17
(g10
S"\xb9h`'\xa5_L@"
p18
tp19
Rp20
ag17
(g10
S'6\xe1}at\xd4Q@'
p21
tp22
Rp23
aa(lp24
g17
(g10
S'\xac\x9fW\xd5\xca\x05s?'
p25
tp26
Rp27
ag17
(g10
S'4\xb0\xb7\x0e,\x00\x80?'
p28
tp29
Rp30
aa(lp31
g17
(g10
S'\x1a\xf3\xa5\xa4p\x96\xe0?'
p32
tp33
Rp34
ag17
(g10
S'\xec\xcbz\x19\x06\x99\xe0?'
p35
tp36
Rp37
aatp38
.