(cnumpy.core.multiarray
_reconstruct
p0
(cnumpy
ndarray
p1
(I0
tp2
S'b'
p3
tp4
Rp5
(I1
(I3
tp6
cnumpy
dtype
p7
(S'f8'
p8
I0
I1
tp9
Rp10
(I3
S'<'
p11
NNNI-1
I-1
I0
tp12
bI00
S"\x0c\xeb\xf6\x96)mM@c'5\xdeq&\x7f?\xd1\xf6\xd7 J\x9e\xe0?"
p13
tp14
b(lp15
(lp16
cnumpy.core.multiarray
scalar
p17
(g10
S'\x94A\xdd\x0e/\x05J@'
p18
tp19
Rp20
ag17
(g10
S'BJ\x88\x0f\x92jP@'
p21
tp22
Rp23
aa(lp24
g17
(g10
S'T\xd5$\xd0zqw?'
p25
tp26
Rp27
ag17
(g10
S'\xb9\xbc"v\xb4m\x83?'
p28
tp29
Rp30
aa(lp31
g17
(g10
S'\x1b\xbb\xa0\xd3\x0e\x9d\xe0?'
p32
tp33
Rp34
ag17
(g10
S'\x872\x0fn\x85\x9f\xe0?'
p35
tp36
Rp37
aatp38
.