(cnumpy.core.multiarray
_reconstruct
p0
(cnumpy
ndarray
p1
(I0
tp2
S'b'
p3
tp4
Rp5
(I1
(I3
tp6
cnumpy
dtype
p7
(S'f8'
p8
I0
I1
tp9
Rp10
(I3
S'<'
p11
NNNI-1
I-1
I0
tp12
bI00
S'\x17\xd9T\x0b\xa5\x8f`@8?\x01\x11#cd?Y\x15\xc1\xc51\x85\xe0?'
p13
tp14
b(lp15
(lp16
cnumpy.core.multiarray
scalar
p17
(g10
S'\x82\x1a~F$\xbd[@'
p18
tp19
Rp20
ag17
(g10
S'\xed\xa4j\xf3\xb7@c@'
p21
tp22
Rp23
aa(lp24
g17
(g10
S'\x83\x8b\xa8\xc5O\xc8U?'
p25
tp26
Rp27
ag17
(g10
S'\xae8.?\x1e\xe2m?'
p28
tp29
Rp30
aa(lp31
g17
(g10
S'T9\xba\x1ck\x83\xe0?'
p32
tp33
Rp34
ag17
(g10
S'^\xf1\xc7n\xf8\x86\xe0?'
p35
tp36
Rp37
aatp38
.