(cnumpy.core.multiarray
_reconstruct
p0
(cnumpy
ndarray
p1
(I0
tp2
S'b'
p3
tp4
Rp5
(I1
(I3
tp6
cnumpy
dtype
p7
(S'f8'
p8
I0
I1
tp9
Rp10
(I3
S'<'
p11
NNNI-1
I-1
I0
tp12
bI00
S'\xd2\xe8e\xcd\xc6\x8ck@\x8cP\x9f\xfa#mb?l\x95t\xc13\x8a\xe0?'
p13
tp14
b(lp15
(lp16
cnumpy.core.multiarray
scalar
p17
(g10
S'\\\xdfG\xfd\x92_d@'
p18
tp19
Rp20
ag17
(g10
S'$\xf9\xc1N\xfd\\q@'
p21
tp22
Rp23
aa(lp24
g17
(g10
S'\xf0\x08\xad\x11\xff\xd7@?'
p25
tp26
Rp27
ag17
(g10
S'n\xafi\x18$Rp?'
p28
tp29
Rp30
aa(lp31
g17
(g10
S'\x1f~\x84\x13[\x88\xe0?'
p32
tp33
Rp34
ag17
(g10
S'\xb9\xacdo\x0c\x8c\xe0?'
p35
tp36
Rp37
aatp38
.