(cnumpy.core.multiarray
_reconstruct
p0
(cnumpy
ndarray
p1
(I0
tp2
S'b'
p3
tp4
Rp5
(I1
(I3
tp6
cnumpy
dtype
p7
(S'f8'
p8
I0
I1
tp9
Rp10
(I3
S'<'
p11
NNNI-1
I-1
I0
tp12
bI00
S'\xcc\x9fB\xf5\xec$]@\xd9\xa5L\x82/\xcb\x8f?4g+RB\x82\xe0?'
p13
tp14
b(lp15
(lp16
cnumpy.core.multiarray
scalar
p17
(g10
S'PE\x10\x0f)sS@'
p18
tp19
Rp20
ag17
(g10
S'$}\xbamXkc@'
p21
tp22
Rp23
aa(lp24
g17
(g10
S'\xbc\x96\x1ej\x95[x?'
p25
tp26
Rp27
ag17
(g10
S"*\x00\xc5'J\xb4\x99?"
p28
tp29
Rp30
aa(lp31
g17
(g10
S'Tx\xe5:4\x81\xe0?'
p32
tp33
Rp34
ag17
(g10
S'\x14VqiP\x83\xe0?'
p35
tp36
Rp37
aatp38
.