(cnumpy.core.multiarray
_reconstruct
p0
(cnumpy
ndarray
p1
(I0
tp2
S'b'
p3
tp4
Rp5
(I1
(I3
tp6
cnumpy
dtype
p7
(S'f8'
p8
I0
I1
tp9
Rp10
(I3
S'<'
p11
NNNI-1
I-1
I0
tp12
bI00
S'8Pi\x94Y&L@\xf5\x91\x19\x8a\xa4>\x81?#y\x9dnw\xa3\xe0?'
p13
tp14
b(lp15
(lp16
cnumpy.core.multiarray
scalar
p17
(g10
S'\x1e\xc7%\x85[\xe2H@'
p18
tp19
Rp20
ag17
(g10
S'R\xd9\xac\xa3WjO@'
p21
tp22
Rp23
aa(lp24
g17
(g10
S'q\x1f~\xee_\x1fz?'
p25
tp26
Rp27
ag17
(g10
S'2\x14\xf4\x1c\x99m\x85?'
p28
tp29
Rp30
aa(lp31
g17
(g10
S'\xfc\xca\x16\x80E\xa2\xe0?'
p32
tp33
Rp34
ag17
(g10
S"J'$]\xa9\xa4\xe0?"
p35
tp36
Rp37
aatp38
.