(cnumpy.core.multiarray
_reconstruct
p0
(cnumpy
ndarray
p1
(I0
tp2
S'b'
p3
tp4
Rp5
(I1
(I3
tp6
cnumpy
dtype
p7
(S'f8'
p8
I0
I1
tp9
Rp10
(I3
S'<'
p11
NNNI-1
I-1
I0
tp12
bI00
S'>\xf9^\xa8\x95\xed-@s\xab\x04Fa\xabz?_\x9a\x8a\xe7\xb2\x88\xe0?'
p13
tp14
b(lp15
(lp16
cnumpy.core.multiarray
scalar
p17
(g10
S'\xdb\x99\xb9(\xc0\x1c-@'
p18
tp19
Rp20
ag17
(g10
S'\xa1X\x04(k\xbe.@'
p21
tp22
Rp23
aa(lp24
g17
(g10
S'\xedc\x91rJ\x11y?'
p25
tp26
Rp27
ag17
(g10
S'\xf9\xf2w\x19xE|?'
p28
tp29
Rp30
aa(lp31
g17
(g10
S'1\xc9\xbf\xedj\x87\xe0?'
p32
tp33
Rp34
ag17
(g10
S'\x8dkU\xe1\xfa\x89\xe0?'
p35
tp36
Rp37
aatp38
.