(cnumpy.core.multiarray
_reconstruct
p0
(cnumpy
ndarray
p1
(I0
tp2
S'b'
p3
tp4
Rp5
(I1
(I3
tp6
cnumpy
dtype
p7
(S'f8'
p8
I0
I1
tp9
Rp10
(I3
S'<'
p11
NNNI-1
I-1
I0
tp12
bI00
S'q4\xc7IK\xd1[@\xaf\x8b\xa7}\x93,z?4Ew=\x89\x9c\xe0?'
p13
tp14
b(lp15
(lp16
cnumpy.core.multiarray
scalar
p17
(g10
S'\xa7\xac<\xbep8V@'
p18
tp19
Rp20
ag17
(g10
S'\x1d\xde\xa8\xea\x12\xb5`@'
p21
tp22
Rp23
aa(lp24
g17
(g10
S'\t\x0b)?\xa6\xedl?'
p25
tp26
Rp27
ag17
(g10
S'\xedH\xdd\xed)\xf1\x82?'
p28
tp29
Rp30
aa(lp31
g17
(g10
S'w\x1eX8?\x9b\xe0?'
p32
tp33
Rp34
ag17
(g10
S'\xf1k\x96B\xd3\x9d\xe0?'
p35
tp36
Rp37
aatp38
.