(cnumpy.core.multiarray
_reconstruct
p0
(cnumpy
ndarray
p1
(I0
tp2
S'b'
p3
tp4
Rp5
(I1
(I3
tp6
cnumpy
dtype
p7
(S'f8'
p8
I0
I1
tp9
Rp10
(I3
S'<'
p11
NNNI-1
I-1
I0
tp12
bI00
S'\xe7$\xa3\xcd\xe0\n-@u\x15\x81\xe7\xf0\x02}?%MI\xac\xear\xe0?'
p13
tp14
b(lp15
(lp16
cnumpy.core.multiarray
scalar
p17
(g10
S'\x07\x11\xa5\xff\x08@,@'
p18
tp19
Rp20
ag17
(g10
S'\xc78\xa1\x9b\xb8\xd5-@'
p21
tp22
Rp23
aa(lp24
g17
(g10
S'\x92\xe0T\x8a\xb9L{?'
p25
tp26
Rp27
ag17
(g10
S'XJ\xadD(\xb9~?'
p28
tp29
Rp30
aa(lp31
g17
(g10
S'3\x93\xe1\xf7\xaaq\xe0?'
p32
tp33
Rp34
ag17
(g10
S'\x17\x07\xb1`*t\xe0?'
p35
tp36
Rp37
aatp38
.