(cnumpy.core.multiarray
_reconstruct
p0
(cnumpy
ndarray
p1
(I0
tp2
S'b'
p3
tp4
Rp5
(I1
(I3
tp6
cnumpy
dtype
p7
(S'f8'
p8
I0
I1
tp9
Rp10
(I3
S'<'
p11
NNNI-1
I-1
I0
tp12
bI00
S'\xca\xb1&\x85;\x18a@+\xaa\t3\xfd\\k?\xd4j\xaf\x9f\xc3\xa8\xe0?'
p13
tp14
b(lp15
(lp16
cnumpy.core.multiarray
scalar
p17
(g10
S'F\xf4a\xda\xe4\xc3[@'
p18
tp19
Rp20
ag17
(g10
S'qi\x1c\x9d\x84Nd@'
p21
tp22
Rp23
aa(lp24
g17
(g10
S'\xb3\xda\x96"\x13\xbc[?'
p25
tp26
Rp27
ag17
(g10
S'~\xf3cj\xf8mt?'
p28
tp29
Rp30
aa(lp31
g17
(g10
S'hE\x81"/\xa7\xe0?'
p32
tp33
Rp34
ag17
(g10
S'@\x90\xdd\x1cX\xaa\xe0?'
p35
tp36
Rp37
aatp38
.