(cnumpy.core.multiarray
_reconstruct
p0
(cnumpy
ndarray
p1
(I0
tp2
S'b'
p3
tp4
Rp5
(I1
(I3
tp6
cnumpy
dtype
p7
(S'f8'
p8
I0
I1
tp9
Rp10
(I3
S'<'
p11
NNNI-1
I-1
I0
tp12
bI00
S'\xce4\xbbSw$_@\x82b-\xcfx\x1b\x85?J\x0bmN\xb5\x8c\xe0?'
p13
tp14
b(lp15
(lp16
cnumpy.core.multiarray
scalar
p17
(g10
S'\x06\x8d \x8euQV@'
p18
tp19
Rp20
ag17
(g10
S'K\xee\xaa\x8c\xbc\xfbc@'
p21
tp22
Rp23
aa(lp24
g17
(g10
S'*\x90\xad\x96=5r?'
p25
tp26
Rp27
ag17
(g10
S'x\xfe\x81i)\x8e\x90?'
p28
tp29
Rp30
aa(lp31
g17
(g10
S'\xc9\xb8\x82\xd9\x90\x8b\xe0?'
p32
tp33
Rp34
ag17
(g10
S'\xcb]W\xc3\xd9\x8d\xe0?'
p35
tp36
Rp37
aatp38
.