(cnumpy.core.multiarray
_reconstruct
p0
(cnumpy
ndarray
p1
(I0
tp2
S'b'
p3
tp4
Rp5
(I1
(I3
tp6
cnumpy
dtype
p7
(S'f8'
p8
I0
I1
tp9
Rp10
(I3
S'<'
p11
NNNI-1
I-1
I0
tp12
bI00
S'\x9d \xc1\xff\xb1\xcbd@\x97\xaf*\x99^\xdcK?8\\F\xd1S\x8b\xe0?'
p13
tp14
b(lp15
(lp16
cnumpy.core.multiarray
scalar
p17
(g10
S'\xe1\x12\xb1\xcfS\xa8a@'
p18
tp19
Rp20
ag17
(g10
S'Y.\xd1/\x10\xefg@'
p21
tp22
Rp23
aa(lp24
g17
(g10
S'\x0ep\x91\xf4n\xce3?'
p25
tp26
Rp27
ag17
(g10
S'\x94S\x06\xdc\xc2\xe8V?'
p28
tp29
Rp30
aa(lp31
g17
(g10
S'\xb9q/"N\x88\xe0?'
p32
tp33
Rp34
ag17
(g10
S'\xb7F]\x80Y\x8e\xe0?'
p35
tp36
Rp37
aatp38
.