(cnumpy.core.multiarray
_reconstruct
p0
(cnumpy
ndarray
p1
(I0
tp2
S'b'
p3
tp4
Rp5
(I1
(I3
tp6
cnumpy
dtype
p7
(S'f8'
p8
I0
I1
tp9
Rp10
(I3
S'<'
p11
NNNI-1
I-1
I0
tp12
bI00
S'2\xd5\xf942=.@Z\xb9\xf0\xa5\xdf\x8av?\xc3/\xe4A~\x9b\xe0?'
p13
tp14
b(lp15
(lp16
cnumpy.core.multiarray
scalar
p17
(g10
S'K\xe3\xca\xdaxv-@'
p18
tp19
Rp20
ag17
(g10
S'\x19\xc7(\x8f\xeb\x03/@'
p21
tp22
Rp23
aa(lp24
g17
(g10
S'\xe8\xc1\xf2\t\x8d7u?'
p25
tp26
Rp27
ag17
(g10
S'\xcc\xb0\xeeA2\xdew?'
p28
tp29
Rp30
aa(lp31
g17
(g10
S',Ck\x04&\x9a\xe0?'
p32
tp33
Rp34
ag17
(g10
S'Z\x1c]\x7f\xd6\x9c\xe0?'
p35
tp36
Rp37
aatp38
.