(cnumpy.core.multiarray
_reconstruct
p0
(cnumpy
ndarray
p1
(I0
tp2
S'b'
p3
tp4
Rp5
(I1
(I3
tp6
cnumpy
dtype
p7
(S'f8'
p8
I0
I1
tp9
Rp10
(I3
S'<'
p11
NNNI-1
I-1
I0
tp12
bI00
S'*\xa0\x87\xd8\x9e\xea+@\xec\tA:m\xe5~?B\xd0S|(\x93\xe0?'
p13
tp14
b(lp15
(lp16
cnumpy.core.multiarray
scalar
p17
(g10
S"L\xc4\xc8\xd7\x88'+@"
p18
tp19
Rp20
ag17
(g10
S'\x08|F\xd9\xb4\xad,@'
p21
tp22
Rp23
aa(lp24
g17
(g10
S'\x04\xef\x01(\xe4\x18}?'
p25
tp26
Rp27
ag17
(g10
S'j\x12@&\xfbX\x80?'
p28
tp29
Rp30
aa(lp31
g17
(g10
S'\xa18\xa0c\xed\x91\xe0?'
p32
tp33
Rp34
ag17
(g10
S'\xe3g\x07\x95c\x94\xe0?'
p35
tp36
Rp37
aatp38
.