(cnumpy.core.multiarray
_reconstruct
p0
(cnumpy
ndarray
p1
(I0
tp2
S'b'
p3
tp4
Rp5
(I1
(I3
tp6
cnumpy
dtype
p7
(S'f8'
p8
I0
I1
tp9
Rp10
(I3
S'<'
p11
NNNI-1
I-1
I0
tp12
bI00
S'\xdb\xe1;\x16\xb2\xcbd@a\x15\x92D^\xdcK?>\x04A\xd1S\x8b\xe0?'
p13
tp14
b(lp15
(lp16
cnumpy.core.multiarray
scalar
p17
(g10
S'P\xecu\xd6S\xa8a@'
p18
tp19
Rp20
ag17
(g10
S'f\xd7\x01V\x10\xefg@'
p21
tp22
Rp23
aa(lp24
g17
(g10
S'\xfcx\xf1Wn\xce3?'
p25
tp26
Rp27
ag17
(g10
S'"\xb7\x95\xae\xc2\xe8V?'
p28
tp29
Rp30
aa(lp31
g17
(g10
S'\x1d}""N\x88\xe0?'
p32
tp33
Rp34
ag17
(g10
S'_\x8b_\x80Y\x8e\xe0?'
p35
tp36
Rp37
aatp38
.