(cnumpy.core.multiarray
_reconstruct
p0
(cnumpy
ndarray
p1
(I0
tp2
S'b'
p3
tp4
Rp5
(I1
(I3
tp6
cnumpy
dtype
p7
(S'f8'
p8
I0
I1
tp9
Rp10
(I3
S'<'
p11
NNNI-1
I-1
I0
tp12
bI00
S'\xa7$n\xcd\xa8\x1dP@\r\xec1h\x9d\xdb~?\x07)#\xab]\xae\xe0?'
p13
tp14
b(lp15
(lp16
cnumpy.core.multiarray
scalar
p17
(g10
S'P\xcb`\xb5B*L@'
p18
tp19
Rp20
ag17
(g10
S'\xa6\xe3+@0&R@'
p21
tp22
Rp23
aa(lp24
g17
(g10
S'prB!\xab\x84v?'
p25
tp26
Rp27
ag17
(g10
S'\xd5\xb2\x90\xd7G\x99\x83?'
p28
tp29
Rp30
aa(lp31
g17
(g10
S'\t\xd9\xe3\xf6"\xad\xe0?'
p32
tp33
Rp34
ag17
(g10
S'\x05yb_\x98\xaf\xe0?'
p35
tp36
Rp37
aatp38
.