(cnumpy.core.multiarray
_reconstruct
p0
(cnumpy
ndarray
p1
(I0
tp2
S'b'
p3
tp4
Rp5
(I1
(I2
tp6
cnumpy
dtype
p7
(S'f8'
p8
I0
I1
tp9
Rp10
(I3
S'<'
p11
NNNI-1
I-1
I0
tp12
bI00
S'\xd7/Uoa\xad\xf2?\xce\xa6\x11J\xbbM\xe0?'
p13
tp14
b(lp15
(lp16
cnumpy.core.multiarray
scalar
p17
(g10
S'\x1a\xf6a\x10\xf0!\x0f\xc0'
p18
tp19
Rp20
ag17
(g10
S'\xf9\x92\xdb\xbf\xa8\xe7\x18@'
p21
tp22
Rp23
aa(lp24
g17
(g10
S'\xdb\xd19\x0f\xfeK\xe0?'
p25
tp26
Rp27
ag17
(g10
S'\xc1{\xe9\x84xO\xe0?'
p28
tp29
Rp30
aatp31
.