(cnumpy.core.multiarray
_reconstruct
p0
(cnumpy
ndarray
p1
(I0
tp2
S'b'
p3
tp4
Rp5
(I1
(I2
tp6
cnumpy
dtype
p7
(S'f8'
p8
I0
I1
tp9
Rp10
(I3
S'<'
p11
NNNI-1
I-1
I0
tp12
bI00
S'L\xbb\xdd\x8b$C\xc4?S\x15\x10\xb1X\x97\xe0?'
p13
tp14
b(lp15
(lp16
cnumpy.core.multiarray
scalar
p17
(g10
S'Px$\xadl9\x82\xbf'
p18
tp19
Rp20
ag17
(g10
S'\x0e\xdfF\xf1\xef\xd4\xd4?'
p21
tp22
Rp23
aa(lp24
g17
(g10
S'*\xf8m\xf9\x88\x95\xe0?'
p25
tp26
Rp27
ag17
(g10
S'|2\xb2h(\x99\xe0?'
p28
tp29
Rp30
aatp31
.