(cnumpy.core.multiarray
_reconstruct
p0
(cnumpy
ndarray
p1
(I0
tp2
S'b'
p3
tp4
Rp5
(I1
(I2
tp6
cnumpy
dtype
p7
(S'f8'
p8
I0
I1
tp9
Rp10
(I3
S'<'
p11
NNNI-1
I-1
I0
tp12
bI00
S'\xab\xbdcMW%\xc7?\x1e\x83\x10Sw\xa5\xe0?'
p13
tp14
b(lp15
(lp16
cnumpy.core.multiarray
scalar
p17
(g10
S'\x80\xf2\x9e\x81\xec\x8f\x92\xbf'
p18
tp19
Rp20
ag17
(g10
S'\xd3\xac}\x15VN\xd8?'
p21
tp22
Rp23
aa(lp24
g17
(g10
S'/\x97\x1c\x14\x9e\xa3\xe0?'
p25
tp26
Rp27
ag17
(g10
S'\ro\x04\x92P\xa7\xe0?'
p28
tp29
Rp30
aatp31
.