(cnumpy.core.multiarray
_reconstruct
p0
(cnumpy
ndarray
p1
(I0
tp2
S'b'
p3
tp4
Rp5
(I1
(I2
tp6
cnumpy
dtype
p7
(S'f8'
p8
I0
I1
tp9
Rp10
(I3
S'<'
p11
NNNI-1
I-1
I0
tp12
bI00
S'\xc5F\xcf\xbe\xce\x03\xd0?\xfe\xb0V\x1du\xe0\xe0?'
p13
tp14
b(lp15
(lp16
cnumpy.core.multiarray
scalar
p17
(g10
S'\xd4 S9\xd0\x90\xb6\xbf'
p18
tp19
Rp20
ag17
(g10
S'\xe0\xaa\xf9\xc5\xe8\xd5\xe2?'
p21
tp22
Rp23
aa(lp24
g17
(g10
S'y=\x89\xf4\x92\xde\xe0?'
p25
tp26
Rp27
ag17
(g10
S'\x83$$FW\xe2\xe0?'
p28
tp29
Rp30
aatp31
.