(cnumpy.core.multiarray
_reconstruct
p0
(cnumpy
ndarray
p1
(I0
tp2
S'b'
p3
tp4
Rp5
(I1
(I2
tp6
cnumpy
dtype
p7
(S'f8'
p8
I0
I1
tp9
Rp10
(I3
S'<'
p11
NNNI-1
I-1
I0
tp12
bI00
S'TA\xf4\xc5x\xe9\xb1?ARy\xd8\xaf\xa9\xe0?'
p13
tp14
b(lp15
(lp16
cnumpy.core.multiarray
scalar
p17
(g10
S'pLSP[\xcc\x8d?'
p18
tp19
Rp20
ag17
(g10
S'\x8d\x0c\xef\x10\xb3\x0c\xc0?'
p21
tp22
Rp23
aa(lp24
g17
(g10
S'\x9d\xff9\xe3\xdc\xa7\xe0?'
p25
tp26
Rp27
ag17
(g10
S'\xe5\xa4\xb8\xcd\x82\xab\xe0?'
p28
tp29
Rp30
aatp31
.