(cnumpy.core.multiarray
_reconstruct
p0
(cnumpy
ndarray
p1
(I0
tp2
S'b'
p3
tp4
Rp5
(I1
(I2
tp6
cnumpy
dtype
p7
(S'f8'
p8
I0
I1
tp9
Rp10
(I3
S'<'
p11
NNNI-1
I-1
I0
tp12
bI00
S'\x08\xa5\xfb\xf7\x92`\n@\x9a\xb9V\x109\xa8\xe0?'
p13
tp14
b(lp15
(lp16
cnumpy.core.multiarray
scalar
p17
(g10
S'\x9d\xd8\xf8\x0fg\xf8V\xc0'
p18
tp19
Rp20
ag17
(g10
S'\xed\x92x?p\x9eX@'
p21
tp22
Rp23
aa(lp24
g17
(g10
S'\xed6\xda\xd2=\xa6\xe0?'
p25
tp26
Rp27
ag17
(g10
S'G<\xd3M4\xaa\xe0?'
p28
tp29
Rp30
aatp31
.