(cnumpy.core.multiarray
_reconstruct
p0
(cnumpy
ndarray
p1
(I0
tp2
S'b'
p3
tp4
Rp5
(I1
(I2
tp6
cnumpy
dtype
p7
(S'f8'
p8
I0
I1
tp9
Rp10
(I3
S'<'
p11
NNNI-1
I-1
I0
tp12
bI00
S'N\xe2\xbe\xedD\xeb\x01@Z\x11L\xb0\xe3w\xe0?'
p13
tp14
b(lp15
(lp16
cnumpy.core.multiarray
scalar
p17
(g10
S'\x14\x97\xa0\xdcs\xc0=\xc0'
p18
tp19
Rp20
ag17
(g10
S"\xd4'\x08\x8c\xa2\x1dA@"
p21
tp22
Rp23
aa(lp24
g17
(g10
S'\x01C\xfc\xd8\x1av\xe0?'
p25
tp26
Rp27
ag17
(g10
S'\xb3\xdf\x9b\x87\xacy\xe0?'
p28
tp29
Rp30
aatp31
.