(cnumpy.core.multiarray
_reconstruct
p0
(cnumpy
ndarray
p1
(I0
tp2
S'b'
p3
tp4
Rp5
(I1
(I2
tp6
cnumpy
dtype
p7
(S'f8'
p8
I0
I1
tp9
Rp10
(I3
S'<'
p11
NNNI-1
I-1
I0
tp12
bI00
S'\x08\xb1\xf0\x1d!\x1c @\x91F\xa7\xc12P\xe0?'
p13
tp14
b(lp15
(lp16
cnumpy.core.multiarray
scalar
p17
(g10
S'\x0f\xf2g\xbdG\xcf\x94\xc0'
p18
tp19
Rp20
ag17
(g10
S'\xd3\xb4\xdfA\xb8\x0f\x95@'
p21
tp22
Rp23
aa(lp24
g17
(g10
S'x\x83\x1co}N\xe0?'
p25
tp26
Rp27
ag17
(g10
S'\xaa\t2\x14\xe8Q\xe0?'
p28
tp29
Rp30
aatp31
.