(cnumpy.core.multiarray
_reconstruct
p0
(cnumpy
ndarray
p1
(I0
tp2
S'b'
p3
tp4
Rp5
(I1
(I2
tp6
cnumpy
dtype
p7
(S'f8'
p8
I0
I1
tp9
Rp10
(I3
S'<'
p11
NNNI-1
I-1
I0
tp12
bI00
S'\x08\x93\x94\x98\x87\xf0\xc0?0\xb3\xa3\x81uA\xe0?'
p13
tp14
b(lp15
(lp16
cnumpy.core.multiarray
scalar
p17
(g10
S',\xc2\xaf\x0f\xde\xe4\xa3\xbf'
p18
tp19
Rp20
ag17
(g10
S'N\x8b\x8aZ#m\xd3?'
p21
tp22
Rp23
aa(lp24
g17
(g10
S'\xcf\xca\xb8\x98\xb2?\xe0?'
p25
tp26
Rp27
ag17
(g10
S'\x91\x9b\x8ej8C\xe0?'
p28
tp29
Rp30
aatp31
.