(cnumpy.core.multiarray
_reconstruct
p0
(cnumpy
ndarray
p1
(I0
tp2
S'b'
p3
tp4
Rp5
(I1
(I2
tp6
cnumpy
dtype
p7
(S'f8'
p8
I0
I1
tp9
Rp10
(I3
S'<'
p11
NNNI-1
I-1
I0
tp12
bI00
S'\xde?\x9c\x16\x91\n)@92.\x1b\xa2\x81\xe0?'
p13
tp14
b(lp15
(lp16
cnumpy.core.multiarray
scalar
p17
(g10
S'\xde?\x9c\x16\x91\n)@'
p18
tp19
Rp20
ag17
(g10
S'\xde?\x9c\x16\x91\n)@'
p21
tp22
Rp23
aa(lp24
g17
(g10
S'\xac\x95\x9b\x07\xd4\x7f\xe0?'
p25
tp26
Rp27
ag17
(g10
S'\xc6\xce\xc0.p\x83\xe0?'
p28
tp29
Rp30
aatp31
.