(cnumpy.core.multiarray
_reconstruct
p0
(cnumpy
ndarray
p1
(I0
tp2
S'b'
p3
tp4
Rp5
(I1
(I2
tp6
cnumpy
dtype
p7
(S'f8'
p8
I0
I1
tp9
Rp10
(I3
S'<'
p11
NNNI-1
I-1
I0
tp12
bI00
S'\x1cUc.\xda\x92\xf2?\xfb\xefD\x86\x16\xad\xe0?'
p13
tp14
b(lp15
(lp16
cnumpy.core.multiarray
scalar
p17
(g10
S'Y\xbb\xddQ\xe3\x98\x10\xc0'
p18
tp19
Rp20
ag17
(g10
S'\xe7e\x0fiP\xe2\x19@'
p21
tp22
Rp23
aa(lp24
g17
(g10
S'\xa3\xed\x8b\xd3H\xab\xe0?'
p25
tp26
Rp27
ag17
(g10
S'S\xf2\xfd8\xe4\xae\xe0?'
p28
tp29
Rp30
aatp31
.