(cnumpy.core.multiarray
_reconstruct
p0
(cnumpy
ndarray
p1
(I0
tp2
S'b'
p3
tp4
Rp5
(I1
(I2
tp6
cnumpy
dtype
p7
(S'f8'
p8
I0
I1
tp9
Rp10
(I3
S'<'
p11
NNNI-1
I-1
I0
tp12
bI00
S'1\x8c\x1dJ%\xb1\xcc?\x8a\xb6\x07.\x07\xfd\xe0?'
p13
tp14
b(lp15
(lp16
cnumpy.core.multiarray
scalar
p17
(g10
S'\xfa(.\xb7\x8b\x9c\xb1\xbf'
p18
tp19
Rp20
ag17
(g10
S'8\x8b\xf4\x1b$\x8c\xe0?'
p21
tp22
Rp23
aa(lp24
g17
(g10
S"'\x1c\x97\x87$\xfb\xe0?"
p25
tp26
Rp27
ag17
(g10
S'\xedPx\xd4\xe9\xfe\xe0?'
p28
tp29
Rp30
aatp31
.