(cnumpy.core.multiarray
_reconstruct
p0
(cnumpy
ndarray
p1
(I0
tp2
S'b'
p3
tp4
Rp5
(I1
(I2
tp6
cnumpy
dtype
p7
(S'f8'
p8
I0
I1
tp9
Rp10
(I3
S'<'
p11
NNNI-1
I-1
I0
tp12
bI00
S'iM\xb22\xe4\xf7\x04@\x84\xb3\xcc\x93\xb4\xa0\xe0?'
p13
tp14
b(lp15
(lp16
cnumpy.core.multiarray
scalar
p17
(g10
S'\x14\x99\xb1\xa4\xf9\x83A\xc0'
p18
tp19
Rp20
ag17
(g10
S'\xc2\xe2\x07+\xf6"D@'
p21
tp22
Rp23
aa(lp24
g17
(g10
S'\xe00W\xe0\xe1\x9e\xe0?'
p25
tp26
Rp27
ag17
(g10
S'(6BG\x87\xa2\xe0?'
p28
tp29
Rp30
aatp31
.