(cnumpy.core.multiarray
_reconstruct
p0
(cnumpy
ndarray
p1
(I0
tp2
S'b'
p3
tp4
Rp5
(I1
(I2
tp6
cnumpy
dtype
p7
(S'f8'
p8
I0
I1
tp9
Rp10
(I3
S'<'
p11
NNNI-1
I-1
I0
tp12
bI00
S'\xc2\xbf\xb9\xf3\x99#\xd9?\xc2y)1\xea\t\xe1?'
p13
tp14
b(lp15
(lp16
cnumpy.core.multiarray
scalar
p17
(g10
S'r\xa3-5\x1f\xb6\xd6\xbf'
p18
tp19
Rp20
ag17
(g10
S'\xbeH(\xc7T?\xf2?'
p21
tp22
Rp23
aa(lp24
g17
(g10
S'\xbb\xa4r\x00\xfa\x07\xe1?'
p25
tp26
Rp27
ag17
(g10
S'\xc9N\xe0a\xda\x0b\xe1?'
p28
tp29
Rp30
aatp31
.