(cnumpy.core.multiarray
_reconstruct
p0
(cnumpy
ndarray
p1
(I0
tp2
S'b'
p3
tp4
Rp5
(I1
(I2
tp6
cnumpy
dtype
p7
(S'f8'
p8
I0
I1
tp9
Rp10
(I3
S'<'
p11
NNNI-1
I-1
I0
tp12
bI00
S'lT\xb7\xf9\x8d\xc0\xd2?\xaa\xfa\x10Cb\xe5\xe0?'
p13
tp14
b(lp15
(lp16
cnumpy.core.multiarray
scalar
p17
(g10
S'f\xc9g\xc7\xa4\xe9\xc2\xbf'
p18
tp19
Rp20
ag17
(g10
S'\xc6F\x91+\xf7z\xe7?'
p21
tp22
Rp23
aa(lp24
g17
(g10
S'b\x82O\x9d\x81\xe3\xe0?'
p25
tp26
Rp27
ag17
(g10
S'\xf2r\xd2\xe8B\xe7\xe0?'
p28
tp29
Rp30
aatp31
.