(cnumpy.core.multiarray
_reconstruct
p0
(cnumpy
ndarray
p1
(I0
tp2
S'b'
p3
tp4
Rp5
(I1
(I2
tp6
cnumpy
dtype
p7
(S'f8'
p8
I0
I1
tp9
Rp10
(I3
S'<'
p11
NNNI-1
I-1
I0
tp12
bI00
S"\xed'\xa9\x99\x04J\xe8?7)\xfbL\xe6\xbb\xe0?"
p13
tp14
b(lp15
(lp16
cnumpy.core.multiarray
scalar
p17
(g10
S'D\x8d\tU\x8c\x03\xfd\xbf'
p18
tp19
Rp20
ag17
(g10
S'\x98ZYw\xc8\xa6\n@'
p21
tp22
Rp23
aa(lp24
g17
(g10
S'\x90\xd9\xc0\x95\xd6\xb9\xe0?'
p25
tp26
Rp27
ag17
(g10
S'\xdex5\x04\xf6\xbd\xe0?'
p28
tp29
Rp30
aatp31
.