(cnumpy.core.multiarray
_reconstruct
p0
(cnumpy
ndarray
p1
(I0
tp2
S'b'
p3
tp4
Rp5
(I1
(I2
tp6
cnumpy
dtype
p7
(S'f8'
p8
I0
I1
tp9
Rp10
(I3
S'<'
p11
NNNI-1
I-1
I0
tp12
bI00
S'\x98\xf5\xea&\t\xb0\xc1?g\xea{t\x95#\xe1?'
p13
tp14
b(lp15
(lp16
cnumpy.core.multiarray
scalar
p17
(g10
S'\x00}\xbb\x93rO\x95\xbf'
p18
tp19
Rp20
ag17
(g10
S'h\xad&P\x00\x05\xd3?'
p21
tp22
Rp23
aa(lp24
g17
(g10
S's2\xa9cr!\xe1?'
p25
tp26
Rp27
ag17
(g10
S'[\xa2N\x85\xb8%\xe1?'
p28
tp29
Rp30
aatp31
.