(cnumpy.core.multiarray
_reconstruct
p0
(cnumpy
ndarray
p1
(I0
tp2
S'b'
p3
tp4
Rp5
(I1
(I2
tp6
cnumpy
dtype
p7
(S'f8'
p8
I0
I1
tp9
Rp10
(I3
S'<'
p11
NNNI-1
I-1
I0
tp12
bI00
S'\xa8-\xf2\x86\x0b\xa1\xbd?\xa7\x87rh\xadl\xe0?'
p13
tp14
b(lp15
(lp16
cnumpy.core.multiarray
scalar
p17
(g10
S'\x00\xf2\x05H.yP?'
p18
tp19
Rp20
ag17
(g10
S'\xc4!b*\x19\x80\xcd?'
p21
tp22
Rp23
aa(lp24
g17
(g10
S'\xab\x17\xe6\xad\xe3j\xe0?'
p25
tp26
Rp27
ag17
(g10
S'\xa3\xf7\xfe"wn\xe0?'
p28
tp29
Rp30
aatp31
.