(cnumpy.core.multiarray
_reconstruct
p0
(cnumpy
ndarray
p1
(I0
tp2
S'b'
p3
tp4
Rp5
(I1
(I2
tp6
cnumpy
dtype
p7
(S'f8'
p8
I0
I1
tp9
Rp10
(I3
S'<'
p11
NNNI-1
I-1
I0
tp12
bI00
S'\x17\xe8\x1c\xb36t\x1b@[]\xbc\xca\xd5O\xe0?'
p13
tp14
b(lp15
(lp16
cnumpy.core.multiarray
scalar
p17
(g10
S'\xfcP\xa8\xbd\xdc%\x86\xc0'
p18
tp19
Rp20
ag17
(g10
S'\x9c\xc4t\x98\xad\x93\x86@'
p21
tp22
Rp23
aa(lp24
g17
(g10
S'h\xd0\x103\x0eN\xe0?'
p25
tp26
Rp27
ag17
(g10
S'N\xeagb\x9dQ\xe0?'
p28
tp29
Rp30
aatp31
.