(cnumpy.core.multiarray
_reconstruct
p0
(cnumpy
ndarray
p1
(I0
tp2
S'b'
p3
tp4
Rp5
(I1
(I2
tp6
cnumpy
dtype
p7
(S'f8'
p8
I0
I1
tp9
Rp10
(I3
S'<'
p11
NNNI-1
I-1
I0
tp12
bI00
S'\x99\x97=\x04\xe8)\xb6?> \xcd0\xbfM\xe0?'
p13
tp14
b(lp15
(lp16
cnumpy.core.multiarray
scalar
p17
(g10
S'`\x7ftF\xb5\xca\x94?'
p18
tp19
Rp20
ag17
(g10
S'\xad\x07o[\x91\x90\xc3?'
p21
tp22
Rp23
aa(lp24
g17
(g10
S'\xb5\x8e\xe5\xfa\x01L\xe0?'
p25
tp26
Rp27
ag17
(g10
S'\xc7\xb1\xb4f|O\xe0?'
p28
tp29
Rp30
aatp31
.