(cnumpy.core.multiarray
_reconstruct
p0
(cnumpy
ndarray
p1
(I0
tp2
S'b'
p3
tp4
Rp5
(I1
(I2
tp6
cnumpy
dtype
p7
(S'f8'
p8
I0
I1
tp9
Rp10
(I3
S'<'
p11
NNNI-1
I-1
I0
tp12
bI00
S"\x98'F\xd4\xad\x08\xef?l\xb2\xa0/D+\xe0?"
p13
tp14
b(lp15
(lp16
cnumpy.core.multiarray
scalar
p17
(g10
S'\xf0c\xb9m;\xab\x03\xc0'
p18
tp19
Rp20
ag17
(g10
S'\xde;\xee+\xc9\x97\x11@'
p21
tp22
Rp23
aa(lp24
g17
(g10
S'\xf9\xbbx\xbc\x90)\xe0?'
p25
tp26
Rp27
ag17
(g10
S'\xdf\xa8\xc8\xa2\xf7,\xe0?'
p28
tp29
Rp30
aatp31
.