(cnumpy.core.multiarray
_reconstruct
p0
(cnumpy
ndarray
p1
(I0
tp2
S'b'
p3
tp4
Rp5
(I1
(I2
tp6
cnumpy
dtype
p7
(S'f8'
p8
I0
I1
tp9
Rp10
(I3
S'<'
p11
NNNI-1
I-1
I0
tp12
bI00
S'|>\x91\xe3_`\xec?\x89\x00\xf4v\x96m\xe0?'
p13
tp14
b(lp15
(lp16
cnumpy.core.multiarray
scalar
p17
(g10
S'\x8f\xe2\xf0\x8e\xf7\x81\x03\xc0'
p18
tp19
Rp20
ag17
(g10
S'\xe6\xc0\\\xc0\x13\xd9\x10@'
p21
tp22
Rp23
aa(lp24
g17
(g10
S'\xb1~\x99\xac\xa6k\xe0?'
p25
tp26
Rp27
ag17
(g10
S'a\x82NA\x86o\xe0?'
p28
tp29
Rp30
aatp31
.