(cnumpy.core.multiarray
_reconstruct
p0
(cnumpy
ndarray
p1
(I0
tp2
S'b'
p3
tp4
Rp5
(I1
(I2
tp6
cnumpy
dtype
p7
(S'f8'
p8
I0
I1
tp9
Rp10
(I3
S'<'
p11
NNNI-1
I-1
I0
tp12
bI00
S'\x00\xc0\x8e\xc4U\x13\xcf=/\xa2#\x8e\xd31\xe0?'
p13
tp14
b(lp15
(lp16
cnumpy.core.multiarray
scalar
p17
(g10
S'\x0b(\x8b\x0f\xa2\xd1\x8d\xbf'
p18
tp19
Rp20
ag17
(g10
S'\xc3\x92m\x13\xa2\xd1\x8d?'
p21
tp22
Rp23
aa(lp24
g17
(g10
S'Z\xfc&W\x120\xe0?'
p25
tp26
Rp27
ag17
(g10
S'\x04H \xc5\x943\xe0?'
p28
tp29
Rp30
aatp31
.