(cnumpy.core.multiarray
_reconstruct
p0
(cnumpy
ndarray
p1
(I0
tp2
S'b'
p3
tp4
Rp5
(I1
(I2
tp6
cnumpy
dtype
p7
(S'f8'
p8
I0
I1
tp9
Rp10
(I3
S'<'
p11
NNNI-1
I-1
I0
tp12
bI00
S'\x0c\xbc\xe7\x90O\xd5\xee?\x99\x11\x8c\xc4\x8bZ\xe0?'
p13
tp14
b(lp15
(lp16
cnumpy.core.multiarray
scalar
p17
(g10
S'h\xb7\xbd\xbc@\xbe\x03\xc0'
p18
tp19
Rp20
ag17
(g10
S'\xb7\xca\x98Bt\x94\x11@'
p21
tp22
Rp23
aa(lp24
g17
(g10
S'\x8f\xc7K`\xc5X\xe0?'
p25
tp26
Rp27
ag17
(g10
S'\xa3[\xcc(R\\\xe0?'
p28
tp29
Rp30
aatp31
.