(cnumpy.core.multiarray
_reconstruct
p0
(cnumpy
ndarray
p1
(I0
tp2
S'b'
p3
tp4
Rp5
(I1
(I2
tp6
cnumpy
dtype
p7
(S'f8'
p8
I0
I1
tp9
Rp10
(I3
S'<'
p11
NNNI-1
I-1
I0
tp12
bI00
S'\xf0\xd8\xea\t\x9c\x8f\xe2>X\xc6\xdb\xe0\xe5\xa0\xe0?'
p13
tp14
b(lp15
(lp16
cnumpy.core.multiarray
scalar
p17
(g10
S'rhqtI\xb8\x8f\xbf'
p18
tp19
Rp20
ag17
(g10
S'\xde]vB\x91\xc1\x8f?'
p21
tp22
Rp23
aa(lp24
g17
(g10
S'\x0fy\x91\xee\x07\x9f\xe0?'
p25
tp26
Rp27
ag17
(g10
S'\xa1\x13&\xd3\xc3\xa2\xe0?'
p28
tp29
Rp30
aatp31
.