(cnumpy.core.multiarray
_reconstruct
p0
(cnumpy
ndarray
p1
(I0
tp2
S'b'
p3
tp4
Rp5
(I1
(I2
tp6
cnumpy
dtype
p7
(S'f8'
p8
I0
I1
tp9
Rp10
(I3
S'<'
p11
NNNI-1
I-1
I0
tp12
bI00
S'\xe6J\xc4\xeb\xa5\x03\xd1?\xbfQK$\xa6\x07\xe1?'
p13
tp14
b(lp15
(lp16
cnumpy.core.multiarray
scalar
p17
(g10
S'\xb8O\\\x17A}\xc9\xbf'
p18
tp19
Rp20
ag17
(g10
S'\xd4^\x9b1\xf6b\xe7?'
p21
tp22
Rp23
aa(lp24
g17
(g10
S'\x0b\xde\x98B\x9e\x05\xe1?'
p25
tp26
Rp27
ag17
(g10
S's\xc5\xfd\x05\xae\t\xe1?'
p28
tp29
Rp30
aatp31
.