(cnumpy.core.multiarray
_reconstruct
p0
(cnumpy
ndarray
p1
(I0
tp2
S'b'
p3
tp4
Rp5
(I1
(I2
tp6
cnumpy
dtype
p7
(S'f8'
p8
I0
I1
tp9
Rp10
(I3
S'<'
p11
NNNI-1
I-1
I0
tp12
bI00
S'\xcb4\xb2\xcfT\xdf\x8a?\xe9\xb8\xeb\xb8\xbd\x87\xe0?'
p13
tp14
b(lp15
(lp16
cnumpy.core.multiarray
scalar
p17
(g10
S'\x04\x1dq\x14\xf44c\xbf'
p18
tp19
Rp20
ag17
(g10
S'lX@R\xf3E\x9d?'
p21
tp22
Rp23
aa(lp24
g17
(g10
S'\xb1\xfa\xac[\xf6\x85\xe0?'
p25
tp26
Rp27
ag17
(g10
S'!w*\x16\x85\x89\xe0?'
p28
tp29
Rp30
aatp31
.