(cnumpy.core.multiarray
_reconstruct
p0
(cnumpy
ndarray
p1
(I0
tp2
S'b'
p3
tp4
Rp5
(I1
(I2
tp6
cnumpy
dtype
p7
(S'f8'
p8
I0
I1
tp9
Rp10
(I3
S'<'
p11
NNNI-1
I-1
I0
tp12
bI00
S'\xf8\xe7s7\x17p$?\xd0\x02(>\x8d\xb1\xe0?'
p13
tp14
b(lp15
(lp16
cnumpy.core.multiarray
scalar
p17
(g10
S'\xe8F\xe9\xb9\xd6\xaf\x8f\xbf'
p18
tp19
Rp20
ag17
(g10
S'\x14s\xd2\xb9\xab)\x90?'
p21
tp22
Rp23
aa(lp24
g17
(g10
S'\x10\xa8t\x11\xb0\xaf\xe0?'
p25
tp26
Rp27
ag17
(g10
S'\x90]\xdbjj\xb3\xe0?'
p28
tp29
Rp30
aatp31
.