(cnumpy.core.multiarray
_reconstruct
p0
(cnumpy
ndarray
p1
(I0
tp2
S'b'
p3
tp4
Rp5
(I1
(I2
tp6
cnumpy
dtype
p7
(S'f8'
p8
I0
I1
tp9
Rp10
(I3
S'<'
p11
NNNI-1
I-1
I0
tp12
bI00
S'\xf0\xa7\x04\xc9\xe0x\xb3?\x89\xd7\x8a\xc2~3\xe0?'
p13
tp14
b(lp15
(lp16
cnumpy.core.multiarray
scalar
p17
(g10
S'\xd0\xb7K\x7fi\xeez\xbf'
p18
tp19
Rp20
ag17
(g10
S'\xae\x05\xff\x14TP\xc4?'
p21
tp22
Rp23
aa(lp24
g17
(g10
S'\xd6g\xd7\xf0\xc51\xe0?'
p25
tp26
Rp27
ag17
(g10
S'<G>\x9475\xe0?'
p28
tp29
Rp30
aatp31
.