(cnumpy.core.multiarray
_reconstruct
p0
(cnumpy
ndarray
p1
(I0
tp2
S'b'
p3
tp4
Rp5
(I1
(I2
tp6
cnumpy
dtype
p7
(S'f8'
p8
I0
I1
tp9
Rp10
(I3
S'<'
p11
NNNI-1
I-1
I0
tp12
bI00
S'c\xe1\xaf\xa0\x0e\xbd\xe5?"\xe7\xda\\\xbbM\xe0?'
p13
tp14
b(lp15
(lp16
cnumpy.core.multiarray
scalar
p17
(g10
S'\xb4e\xc1\xf5\xe2\x8d\xf0\xbf'
p18
tp19
Rp20
ag17
(g10
S'\x8b\xa38\xcbx%\x03@'
p21
tp22
Rp23
aa(lp24
g17
(g10
S'\xbf\x13\xb8"\xfeK\xe0?'
p25
tp26
Rp27
ag17
(g10
S'\x85\xba\xfd\x96xO\xe0?'
p28
tp29
Rp30
aatp31
.