(cnumpy.core.multiarray
_reconstruct
p0
(cnumpy
ndarray
p1
(I0
tp2
S'b'
p3
tp4
Rp5
(I1
(I2
tp6
cnumpy
dtype
p7
(S'f8'
p8
I0
I1
tp9
Rp10
(I3
S'<'
p11
NNNI-1
I-1
I0
tp12
bI00
S'\xe0\xe7\xf5s\x8b\xca\x03@\x11\xb3\xa7V\xf8k\xe0?'
p13
tp14
b(lp15
(lp16
cnumpy.core.multiarray
scalar
p17
(g10
S'\x97/\xfaOT\xfe<\xc0'
p18
tp19
Rp20
ag17
(g10
S'\xc8\xd4{\x96{\xf8@@'
p21
tp22
Rp23
aa(lp24
g17
(g10
S'd\xb3\xef\x0f,j\xe0?'
p25
tp26
Rp27
ag17
(g10
S'\xbe\xb2_\x9d\xc4m\xe0?'
p28
tp29
Rp30
aatp31
.