(cnumpy.core.multiarray
_reconstruct
p0
(cnumpy
ndarray
p1
(I0
tp2
S'b'
p3
tp4
Rp5
(I1
(I2
tp6
cnumpy
dtype
p7
(S'f8'
p8
I0
I1
tp9
Rp10
(I3
S'<'
p11
NNNI-1
I-1
I0
tp12
bI00
S'\x00\x80\n\x1f\x97d\x84=2\x9d\x9e\xa7\xafA\xe0?'
p13
tp14
b(lp15
(lp16
cnumpy.core.multiarray
scalar
p17
(g10
S',\x1b=\xb7\xe8\xc7\x8d\xbf'
p18
tp19
Rp20
ag17
(g10
S'Z\xe4e\xb7\xe8\xc7\x8d?'
p21
tp22
Rp23
aa(lp24
g17
(g10
S'\xb6\x1aO\xc5\xf0?\xe0?'
p25
tp26
Rp27
ag17
(g10
S'\xae\x1f\xee\x89nC\xe0?'
p28
tp29
Rp30
aatp31
.