(cnumpy.core.multiarray
_reconstruct
p0
(cnumpy
ndarray
p1
(I0
tp2
S'b'
p3
tp4
Rp5
(I1
(I2
tp6
cnumpy
dtype
p7
(S'f8'
p8
I0
I1
tp9
Rp10
(I3
S'<'
p11
NNNI-1
I-1
I0
tp12
bI00
S'\xfa\xb3\xda\x1f\xc2\xcf\x16@\xe1R\xdb\xd4\x94\xec\xe0?'
p13
tp14
b(lp15
(lp16
cnumpy.core.multiarray
scalar
p17
(g10
S'`\x9e\x0e\x8e\xe2rx\xc0'
p18
tp19
Rp20
ag17
(g10
S'\x00t\r\x9f`)y@'
p21
tp22
Rp23
aa(lp24
g17
(g10
S'\xbc\xbc\xead\xb7\xea\xe0?'
p25
tp26
Rp27
ag17
(g10
S'\x06\xe9\xcbDr\xee\xe0?'
p28
tp29
Rp30
aatp31
.