(cnumpy.core.multiarray
_reconstruct
p0
(cnumpy
ndarray
p1
(I0
tp2
S'b'
p3
tp4
Rp5
(I1
(I2
tp6
cnumpy
dtype
p7
(S'f8'
p8
I0
I1
tp9
Rp10
(I3
S'<'
p11
NNNI-1
I-1
I0
tp12
bI00
S'B\x00\x91\xb8l\xb7\x10@\xd9NZ\x84\x1e\x85\xe0?'
p13
tp14
b(lp15
(lp16
cnumpy.core.multiarray
scalar
p17
(g10
S'\x92\x19\xdb5<\xe7c\xc0'
p18
tp19
Rp20
ag17
(g10
S'\x96)d\x01\xb3\xf2d@'
p21
tp22
Rp23
aa(lp24
g17
(g10
S'\xd4sQ\nR\x83\xe0?'
p25
tp26
Rp27
ag17
(g10
S'\xde)c\xfe\xea\x86\xe0?'
p28
tp29
Rp30
aatp31
.