(cnumpy.core.multiarray
_reconstruct
p0
(cnumpy
ndarray
p1
(I0
tp2
S'b'
p3
tp4
Rp5
(I1
(I2
tp6
cnumpy
dtype
p7
(S'f8'
p8
I0
I1
tp9
Rp10
(I3
S'<'
p11
NNNI-1
I-1
I0
tp12
bI00
S'\x8c[O\x9a\x10\xf8\x04@Y\xab(\xa6\\\x87\xe0?'
p13
tp14
b(lp15
(lp16
cnumpy.core.multiarray
scalar
p17
(g10
S'\x04\xe4\xddc\x15TA\xc0'
p18
tp19
Rp20
ag17
(g10
S"v\xcf'w\x17\xf3C@"
p21
tp22
Rp23
aa(lp24
g17
(g10
S"'q-\xaa\x8b\x85\xe0?"
p25
tp26
Rp27
ag17
(g10
S'\x8b\xe5#\xa2-\x89\xe0?'
p28
tp29
Rp30
aatp31
.