(cnumpy.core.multiarray
_reconstruct
p0
(cnumpy
ndarray
p1
(I0
tp2
S'b'
p3
tp4
Rp5
(I1
(I2
tp6
cnumpy
dtype
p7
(S'f8'
p8
I0
I1
tp9
Rp10
(I3
S'<'
p11
NNNI-1
I-1
I0
tp12
bI00
S'\xe1\x15\xf8\x9b\xfa}\xc0?\xe1\xcek\xfc\x08V\xe0?'
p13
tp14
b(lp15
(lp16
cnumpy.core.multiarray
scalar
p17
(g10
S'\x007\xa2\x94\xd7up\xbf'
p18
tp19
Rp20
ag17
(g10
S'\xbd\x9eJ\xfa\xd1\xbf\xd0?'
p21
tp22
Rp23
aa(lp24
g17
(g10
S'\xce1\xa7\xdb;T\xe0?'
p25
tp26
Rp27
ag17
(g10
S'\xf4k0\x1d\xd6W\xe0?'
p28
tp29
Rp30
aatp31
.