(cnumpy.core.multiarray
_reconstruct
p0
(cnumpy
ndarray
p1
(I0
tp2
S'b'
p3
tp4
Rp5
(I1
(I2
tp6
cnumpy
dtype
p7
(S'f8'
p8
I0
I1
tp9
Rp10
(I3
S'<'
p11
NNNI-1
I-1
I0
tp12
bI00
S'\x1d\xcf${!\xbc\xb2?\xa2\x06\xcc\xfbo\xae\xe0?'
p13
tp14
b(lp15
(lp16
cnumpy.core.multiarray
scalar
p17
(g10
S'\xd8\xd3\x8ag>\xf4\x8c?'
p18
tp19
Rp20
ag17
(g10
S'\xe0!\xac\x94\xdd\xec\xc0?'
p21
tp22
Rp23
aa(lp24
g17
(g10
S'\xfd\x9a3\xad\x97\xac\xe0?'
p25
tp26
Rp27
ag17
(g10
S'GrdJH\xb0\xe0?'
p28
tp29
Rp30
aatp31
.