(cnumpy.core.multiarray
_reconstruct
p0
(cnumpy
ndarray
p1
(I0
tp2
S'b'
p3
tp4
Rp5
(I1
(I2
tp6
cnumpy
dtype
p7
(S'f8'
p8
I0
I1
tp9
Rp10
(I3
S'<'
p11
NNNI-1
I-1
I0
tp12
bI00
S'\xc7,eb\xb9\xed\xeb?\xc4\x91\xb4i\x15,\xe1?'
p13
tp14
b(lp15
(lp16
cnumpy.core.multiarray
scalar
p17
(g10
S'\x9f\x08\x8c\x0e\x1b\xaa\x02\xc0'
p18
tp19
Rp20
ag17
(g10
S'\x81O\xdf\xdf{P\x10@'
p21
tp22
Rp23
aa(lp24
g17
(g10
S'h\x8f\xd8\xd9**\xe1?'
p25
tp26
Rp27
ag17
(g10
S' \x94\x90\xf9\xff-\xe1?'
p28
tp29
Rp30
aatp31
.