(cnumpy.core.multiarray
_reconstruct
p0
(cnumpy
ndarray
p1
(I0
tp2
S'b'
p3
tp4
Rp5
(I1
(I2
tp6
cnumpy
dtype
p7
(S'f8'
p8
I0
I1
tp9
Rp10
(I3
S'<'
p11
NNNI-1
I-1
I0
tp12
bI00
S'\x0b\x95C%\xd1\xf7\x04@\xaa\xe6\x868\xca\x7f\xe0?'
p13
tp14
b(lp15
(lp16
cnumpy.core.multiarray
scalar
p17
(g10
S'\xa9u\x84\xe6\x00>C\xc0'
p18
tp19
Rp20
ag17
(g10
S'K\xe8,\x0b\xfb\xdcE@'
p21
tp22
Rp23
aa(lp24
g17
(g10
S'\r\xe8Zq\xc8}\xe0?'
p25
tp26
Rp27
ag17
(g10
S'G\xe5\xb2\xff\xcb\x81\xe0?'
p28
tp29
Rp30
aatp31
.