(cnumpy.core.multiarray
_reconstruct
p0
(cnumpy
ndarray
p1
(I0
tp2
S'b'
p3
tp4
Rp5
(I1
(I2
tp6
cnumpy
dtype
p7
(S'f8'
p8
I0
I1
tp9
Rp10
(I3
S'<'
p11
NNNI-1
I-1
I0
tp12
bI00
S'\xb0\x06\xd1\x87\xa9\xd8\xa2?\xac\xd6\xc5\xae\xe7w\xe0?'
p13
tp14
b(lp15
(lp16
cnumpy.core.multiarray
scalar
p17
(g10
S'x~,\xf1\xf4\x9fw?'
p18
tp19
Rp20
ag17
(g10
S'\xc8>\xbe8\xaa^\xb1?'
p21
tp22
Rp23
aa(lp24
g17
(g10
S'\xd5\xc0\xa9F\x18v\xe0?'
p25
tp26
Rp27
ag17
(g10
S'\x83\xec\xe1\x16\xb7y\xe0?'
p28
tp29
Rp30
aatp31
.