(cnumpy.core.multiarray
_reconstruct
p0
(cnumpy
ndarray
p1
(I0
tp2
S'b'
p3
tp4
Rp5
(I1
(I2
tp6
cnumpy
dtype
p7
(S'f8'
p8
I0
I1
tp9
Rp10
(I3
S'<'
p11
NNNI-1
I-1
I0
tp12
bI00
S'\xc4\x86\xc4\xecn\xb8\xca?+\xbb\xfd\xd1R\x96\xe0?'
p13
tp14
b(lp15
(lp16
cnumpy.core.multiarray
scalar
p17
(g10
S'\xd0\x1f\xbd\xaa\x03\x19\xa7\xbf'
p18
tp19
Rp20
ag17
(g10
S'\xbe*\x1cb\x8f\x9b\xdd?'
p21
tp22
Rp23
aa(lp24
g17
(g10
S'\xe1I}&\x82\x94\xe0?'
p25
tp26
Rp27
ag17
(g10
S'u,~}#\x98\xe0?'
p28
tp29
Rp30
aatp31
.