(cnumpy.core.multiarray
_reconstruct
p0
(cnumpy
ndarray
p1
(I0
tp2
S'b'
p3
tp4
Rp5
(I1
(I2
tp6
cnumpy
dtype
p7
(S'f8'
p8
I0
I1
tp9
Rp10
(I3
S'<'
p11
NNNI-1
I-1
I0
tp12
bI00
S'`B\x18\xd3\xfa/\xcc>\x0e$\xd2\xd6\xd4\x94\xe0?'
p13
tp14
b(lp15
(lp16
cnumpy.core.multiarray
scalar
p17
(g10
S'\x98\x95\x0eO\xa0{}\xbf'
p18
tp19
Rp20
ag17
(g10
S'\xa8[\xc3M\xac\x82}?'
p21
tp22
Rp23
aa(lp24
g17
(g10
S'\xc01H\x8f\x01\x93\xe0?'
p25
tp26
Rp27
ag17
(g10
S'\\\x16\\\x1e\xa8\x96\xe0?'
p28
tp29
Rp30
aatp31
.