(cnumpy.core.multiarray
_reconstruct
p0
(cnumpy
ndarray
p1
(I0
tp2
S'b'
p3
tp4
Rp5
(I1
(I2
tp6
cnumpy
dtype
p7
(S'f8'
p8
I0
I1
tp9
Rp10
(I3
S'<'
p11
NNNI-1
I-1
I0
tp12
bI00
S'\xa4Cz8\x0e\xb0\xe2?\xd4\xc9O\xe1\x02,\xe1?'
p13
tp14
b(lp15
(lp16
cnumpy.core.multiarray
scalar
p17
(g10
S'\xad\xf3W~\x06\x07\xf2\xbf'
p18
tp19
Rp20
ag17
(g10
S'\xa8\x1bi[\x8a[\x02@'
p21
tp22
Rp23
aa(lp24
g17
(g10
S'I\xec\xd7\x82\x17*\xe1?'
p25
tp26
Rp27
ag17
(g10
S'_\xa7\xc7?\xee-\xe1?'
p28
tp29
Rp30
aatp31
.