(cnumpy.core.multiarray
_reconstruct
p0
(cnumpy
ndarray
p1
(I0
tp2
S'b'
p3
tp4
Rp5
(I1
(I2
tp6
cnumpy
dtype
p7
(S'f8'
p8
I0
I1
tp9
Rp10
(I3
S'<'
p11
NNNI-1
I-1
I0
tp12
bI00
S'\xbfg\xaf\x1e9\xa0 @@\t\xc5W\x17\x8a\xe0?'
p13
tp14
b(lp15
(lp16
cnumpy.core.multiarray
scalar
p17
(g10
S'\xf1c\xf2.\xb9\x1d\x9a\xc0'
p18
tp19
Rp20
ag17
(g10
S'\x8f!m\x13:`\x9a@'
p21
tp22
Rp23
aa(lp24
g17
(g10
S'k\x1a\x15\tD\x88\xe0?'
p25
tp26
Rp27
ag17
(g10
S'\x15\xf8t\xa6\xea\x8b\xe0?'
p28
tp29
Rp30
aatp31
.