(cnumpy.core.multiarray
_reconstruct
p0
(cnumpy
ndarray
p1
(I0
tp2
S'b'
p3
tp4
Rp5
(I1
(I2
tp6
cnumpy
dtype
p7
(S'f8'
p8
I0
I1
tp9
Rp10
(I3
S'<'
p11
NNNI-1
I-1
I0
tp12
bI00
S'\x89\xbc\xb7\x9d\x98`\xf1?\x1fQ\xdbk\xbbM\xe0?'
p13
tp14
b(lp15
(lp16
cnumpy.core.multiarray
scalar
p17
(g10
S'\xf6\xac\x1dM!\xca\t\xc0'
p18
tp19
Rp20
ag17
(g10
S'\xbf\xb4j\xf5\\\x95\x15@'
p21
tp22
Rp23
aa(lp24
g17
(g10
S'&\xb5\x980\xfeK\xe0?'
p25
tp26
Rp27
ag17
(g10
S'\x18\xed\x1d\xa7xO\xe0?'
p28
tp29
Rp30
aatp31
.