(cnumpy.core.multiarray
_reconstruct
p0
(cnumpy
ndarray
p1
(I0
tp2
S'b'
p3
tp4
Rp5
(I1
(I2
tp6
cnumpy
dtype
p7
(S'f8'
p8
I0
I1
tp9
Rp10
(I3
S'<'
p11
NNNI-1
I-1
I0
tp12
bI00
S'\xa9b\xb2\xdf?\xd4\xc5?\xaa\xd3k\xb5wU\xe0?'
p13
tp14
b(lp15
(lp16
cnumpy.core.multiarray
scalar
p17
(g10
S'\xa0\xfbU\xd2$\x11\x9b\xbf'
p18
tp19
Rp20
ag17
(g10
S'c\xc2\xd7,R\x85\xd7?'
p21
tp22
Rp23
aa(lp24
g17
(g10
S'\xbfOK>\xadS\xe0?'
p25
tp26
Rp27
ag17
(g10
S'\x95W\x8c,BW\xe0?'
p28
tp29
Rp30
aatp31
.