(cnumpy.core.multiarray
_reconstruct
p0
(cnumpy
ndarray
p1
(I0
tp2
S'b'
p3
tp4
Rp5
(I1
(I2
tp6
cnumpy
dtype
p7
(S'f8'
p8
I0
I1
tp9
Rp10
(I3
S'<'
p11
NNNI-1
I-1
I0
tp12
bI00
S'\xecaC\xbd\xf6\x03s?\xcc\xae#"\xfe\x9e\xe0?'
p13
tp14
b(lp15
(lp16
cnumpy.core.multiarray
scalar
p17
(g10
S'\x01mSC\xc0\xc0\x83\xbf'
p18
tp19
Rp20
ag17
(g10
S'vgK\x80[b\x93?'
p21
tp22
Rp23
aa(lp24
g17
(g10
S'\x07T\xb7\xb1$\x9d\xe0?'
p25
tp26
Rp27
ag17
(g10
S'\x91\t\x90\x92\xd7\xa0\xe0?'
p28
tp29
Rp30
aatp31
.