(cnumpy.core.multiarray
_reconstruct
p0
(cnumpy
ndarray
p1
(I0
tp2
S'b'
p3
tp4
Rp5
(I1
(I2
tp6
cnumpy
dtype
p7
(S'f8'
p8
I0
I1
tp9
Rp10
(I3
S'<'
p11
NNNI-1
I-1
I0
tp12
bI00
S'\x83\xbe\x84k\x03m\xba?\xf5$\xc5\xd7*\x89\xe0?'
p13
tp14
b(lp15
(lp16
cnumpy.core.multiarray
scalar
p17
(g10
S'\\\xf2\x85\xb1\xdc\x89\x91?'
p18
tp19
Rp20
ag17
(g10
S'8\x00T\xd5\xc7;\xc8?'
p21
tp22
Rp23
aa(lp24
g17
(g10
S'\xb3\xa9\xd1\xa5l\x87\xe0?'
p25
tp26
Rp27
ag17
(g10
S'7\xa0\xb8\t\xe9\x8a\xe0?'
p28
tp29
Rp30
aatp31
.