(cnumpy.core.multiarray
_reconstruct
p0
(cnumpy
ndarray
p1
(I0
tp2
S'b'
p3
tp4
Rp5
(I1
(I2
tp6
cnumpy
dtype
p7
(S'f8'
p8
I0
I1
tp9
Rp10
(I3
S'<'
p11
NNNI-1
I-1
I0
tp12
bI00
S'\xde\xd7%a/\xf7\xe9?\x9e\x8f\x1a\xb9\xfb\x92\xe0?'
p13
tp14
b(lp15
(lp16
cnumpy.core.multiarray
scalar
p17
(g10
S'\x1c\\\xcb\xb7\xd37\x02\xc0'
p18
tp19
Rp20
ag17
(g10
S'\x0cH^hk3\x0f@'
p21
tp22
Rp23
aa(lp24
g17
(g10
S'-J<v\x05\x91\xe0?'
p25
tp26
Rp27
ag17
(g10
S'\x0f\xd5\xf8\xfb\xf1\x94\xe0?'
p28
tp29
Rp30
aatp31
.