(cnumpy.core.multiarray
_reconstruct
p0
(cnumpy
ndarray
p1
(I0
tp2
S'b'
p3
tp4
Rp5
(I1
(I2
tp6
cnumpy
dtype
p7
(S'f8'
p8
I0
I1
tp9
Rp10
(I3
S'<'
p11
NNNI-1
I-1
I0
tp12
bI00
S'\x90\xc8G\xee\x98\xcb\x15@A\xc6i\x14\xff:\xe0?'
p13
tp14
b(lp15
(lp16
cnumpy.core.multiarray
scalar
p17
(g10
S'g\xa30\x1dr\xcfr\xc0'
p18
tp19
Rp20
ag17
(g10
S'\xab\xe1\xa2\xe4\xce}s@'
p21
tp22
Rp23
aa(lp24
g17
(g10
S'\xb9\xfd5\xc7<9\xe0?'
p25
tp26
Rp27
ag17
(g10
S'\xc9\x8e\x9da\xc1<\xe0?'
p28
tp29
Rp30
aatp31
.