(cnumpy.core.multiarray
_reconstruct
p0
(cnumpy
ndarray
p1
(I0
tp2
S'b'
p3
tp4
Rp5
(I1
(I2
tp6
cnumpy
dtype
p7
(S'f8'
p8
I0
I1
tp9
Rp10
(I3
S'<'
p11
NNNI-1
I-1
I0
tp12
bI00
S'\xfd \xa1\x9ci\xcc\x15@\xf6\xd7\x9b\xe8\xbaM\xe0?'
p13
tp14
b(lp15
(lp16
cnumpy.core.multiarray
scalar
p17
(g10
S'\x8e\x83\x95\x1d\xd1\xb0r\xc0'
p18
tp19
Rp20
ag17
(g10
S'\x96\x8czj4_s@'
p21
tp22
Rp23
aa(lp24
g17
(g10
S'\xcdP\xc6\xac\xfdK\xe0?'
p25
tp26
Rp27
ag17
(g10
S'\x1f_q$xO\xe0?'
p28
tp29
Rp30
aatp31
.