(cnumpy.core.multiarray
_reconstruct
p0
(cnumpy
ndarray
p1
(I0
tp2
S'b'
p3
tp4
Rp5
(I1
(I2
tp6
cnumpy
dtype
p7
(S'f8'
p8
I0
I1
tp9
Rp10
(I3
S'<'
p11
NNNI-1
I-1
I0
tp12
bI00
S"\x1d\xb7P\x8d\xb7o\x89?'\xa1\xfe90}\xe0?"
p13
tp14
b(lp15
(lp16
cnumpy.core.multiarray
scalar
p17
(g10
S'\xe8\xc9.\xc2\xa2\xccd\xbf'
p18
tp19
Rp20
ag17
(g10
S'Z\x90\x96\xe5K\t\x9c?'
p21
tp22
Rp23
aa(lp24
g17
(g10
S'\xdd\x854\xd7l{\xe0?'
p25
tp26
Rp27
ag17
(g10
S'q\xbc\xc8\x9c\xf3~\xe0?'
p28
tp29
Rp30
aatp31
.