(cnumpy.core.multiarray
_reconstruct
p0
(cnumpy
ndarray
p1
(I0
tp2
S'b'
p3
tp4
Rp5
(I1
(I2
tp6
cnumpy
dtype
p7
(S'f8'
p8
I0
I1
tp9
Rp10
(I3
S'<'
p11
NNNI-1
I-1
I0
tp12
bI00
S'"\x14\xe0\x99\xa4\xb4 @K\x9a\'c\xc4\x14\xe0?'
p13
tp14
b(lp15
(lp16
cnumpy.core.multiarray
scalar
p17
(g10
S'\xb9"\xb7\x1a`\x7f\x9a\xc0'
p18
tp19
Rp20
ag17
(g10
S'\t\xa3\x1e\xad2\xc2\x9a@'
p21
tp22
Rp23
aa(lp24
g17
(g10
S'b\x12\x18\x17\xe7\x12\xe0?'
p25
tp26
Rp27
ag17
(g10
S'4"7\xaf\xa1\x16\xe0?'
p28
tp29
Rp30
aatp31
.