(cnumpy.core.multiarray
_reconstruct
p0
(cnumpy
ndarray
p1
(I0
tp2
S'b'
p3
tp4
Rp5
(I1
(I2
tp6
cnumpy
dtype
p7
(S'f8'
p8
I0
I1
tp9
Rp10
(I3
S'<'
p11
NNNI-1
I-1
I0
tp12
bI00
S'\xa6ppv\x1a\x83\xb1?&\xea\x8b\xc0R\x89\xe0?'
p13
tp14
b(lp15
(lp16
cnumpy.core.multiarray
scalar
p17
(g10
S'\xd0C\x15$\xef\xc2\x89\xbf'
p18
tp19
Rp20
ag17
(g10
S'\xe3\xc4\xb1hI\x1f\xc3?'
p21
tp22
Rp23
aa(lp24
g17
(g10
S'\xda\x94\x8fXv\x87\xe0?'
p25
tp26
Rp27
ag17
(g10
S'r?\x88(/\x8b\xe0?'
p28
tp29
Rp30
aatp31
.