(cnumpy.core.multiarray
_reconstruct
p0
(cnumpy
ndarray
p1
(I0
tp2
S'b'
p3
tp4
Rp5
(I1
(I2
tp6
cnumpy
dtype
p7
(S'f8'
p8
I0
I1
tp9
Rp10
(I3
S'<'
p11
NNNI-1
I-1
I0
tp12
bI00
S'\x9a\xe8\xf1M\x0e\x08\x00@\xe46Di\xb1Z\xe0?'
p13
tp14
b(lp15
(lp16
cnumpy.core.multiarray
scalar
p17
(g10
S'$\xaff\x83\x88V2\xc0'
p18
tp19
Rp20
ag17
(g10
S'J)\xe3\x16\x8cX6@'
p21
tp22
Rp23
aa(lp24
g17
(g10
S'\xbaVf\xfb\xb4X\xe0?'
p25
tp26
Rp27
ag17
(g10
S'\x0e\x17"\xd7\xad\\\xe0?'
p28
tp29
Rp30
aatp31
.