(cnumpy.core.multiarray
_reconstruct
p0
(cnumpy
ndarray
p1
(I0
tp2
S'b'
p3
tp4
Rp5
(I1
(I2
tp6
cnumpy
dtype
p7
(S'f8'
p8
I0
I1
tp9
Rp10
(I3
S'<'
p11
NNNI-1
I-1
I0
tp12
bI00
S'\x86X%ESV\xe6?\xb9\xb8h\xc96\x03\xe1?'
p13
tp14
b(lp15
(lp16
cnumpy.core.multiarray
scalar
p17
(g10
S'\x83\x80q\xc4\x11H\xf8\xbf'
p18
tp19
Rp20
ag17
(g10
S'\x84l\xcb\x842O\x07@'
p21
tp22
Rp23
aa(lp24
g17
(g10
S'tY\xc6\x84A\x01\xe1?'
p25
tp26
Rp27
ag17
(g10
S'\xfe\x17\x0b\x0e,\x05\xe1?'
p28
tp29
Rp30
aatp31
.