(cnumpy.core.multiarray
_reconstruct
p0
(cnumpy
ndarray
p1
(I0
tp2
S'b'
p3
tp4
Rp5
(I1
(I2
tp6
cnumpy
dtype
p7
(S'f8'
p8
I0
I1
tp9
Rp10
(I3
S'<'
p11
NNNI-1
I-1
I0
tp12
bI00
S'\xc2\xf0x\xb2aR\xcc?\x94\xeb\x0fn:\x0e\xe1?'
p13
tp14
b(lp15
(lp16
cnumpy.core.multiarray
scalar
p17
(g10
S'\xcc\xa81\xc49\xa2\xb0\xbf'
p18
tp19
Rp20
ag17
(g10
S'z\xad\xc2\x11x=\xe0?'
p21
tp22
Rp23
aa(lp24
g17
(g10
S'\x9f\x9fp\xc6Q\x0c\xe1?'
p25
tp26
Rp27
ag17
(g10
S'\x897\xaf\x15#\x10\xe1?'
p28
tp29
Rp30
aatp31
.