(cnumpy.core.multiarray
_reconstruct
p0
(cnumpy
ndarray
p1
(I0
tp2
S'b'
p3
tp4
Rp5
(I1
(I2
tp6
cnumpy
dtype
p7
(S'f8'
p8
I0
I1
tp9
Rp10
(I3
S'<'
p11
NNNI-1
I-1
I0
tp12
bI00
S'\xb4\xa3/\xe5\x15\xf8\xcf?Y\xa5RW\x1ew\xe0?'
p13
tp14
b(lp15
(lp16
cnumpy.core.multiarray
scalar
p17
(g10
S'\xc8\xa0\xe2\x11\xc3\x98\xbb\xbf'
p18
tp19
Rp20
ag17
(g10
S'\xf3%\xd4T#o\xe3?'
p21
tp22
Rp23
aa(lp24
g17
(g10
S'L\x01\xe2\xaeSu\xe0?'
p25
tp26
Rp27
ag17
(g10
S'fI\xc3\xff\xe8x\xe0?'
p28
tp29
Rp30
aatp31
.