(cnumpy.core.multiarray
_reconstruct
p0
(cnumpy
ndarray
p1
(I0
tp2
S'b'
p3
tp4
Rp5
(I1
(I2
tp6
cnumpy
dtype
p7
(S'f8'
p8
I0
I1
tp9
Rp10
(I3
S'<'
p11
NNNI-1
I-1
I0
tp12
bI00
S'\xaa\xd1\x03\x98YH\xa2?\xec\xc1\xe1j\x9fV\xe0?'
p13
tp14
b(lp15
(lp16
cnumpy.core.multiarray
scalar
p17
(g10
S'8A\xb9\xc8\xc6\xecw\xbf'
p18
tp19
Rp20
ag17
(g10
S'\xbee\x8f\x04&\xc7\xb3?'
p21
tp22
Rp23
aa(lp24
g17
(g10
S'\x15\xeeB\x90\xd4T\xe0?'
p25
tp26
Rp27
ag17
(g10
S'\xc3\x95\x80EjX\xe0?'
p28
tp29
Rp30
aatp31
.