(cnumpy.core.multiarray
_reconstruct
p0
(cnumpy
ndarray
p1
(I0
tp2
S'b'
p3
tp4
Rp5
(I1
(I2
tp6
cnumpy
dtype
p7
(S'f8'
p8
I0
I1
tp9
Rp10
(I3
S'<'
p11
NNNI-1
I-1
I0
tp12
bI00
S'\xceM\xa6<\xf5\x88s?\xcaNv$\xb4~\xe0?'
p13
tp14
b(lp15
(lp16
cnumpy.core.multiarray
scalar
p17
(g10
S'\xe0\x8f\xa6\x1a\x03\x8f}\xbf'
p18
tp19
Rp20
ag17
(g10
S'\xdf\xca\xfcd;(\x91?'
p21
tp22
Rp23
aa(lp24
g17
(g10
S'\x8b\xa6\xab\x7f\xe2|\xe0?'
p25
tp26
Rp27
ag17
(g10
S'\t\xf7@\xc9\x85\x80\xe0?'
p28
tp29
Rp30
aatp31
.