(cnumpy.core.multiarray
_reconstruct
p0
(cnumpy
ndarray
p1
(I0
tp2
S'b'
p3
tp4
Rp5
(I1
(I2
tp6
cnumpy
dtype
p7
(S'f8'
p8
I0
I1
tp9
Rp10
(I3
S'<'
p11
NNNI-1
I-1
I0
tp12
bI00
S'\xf2)\xd6z|\xad\n@\x96\x0fv\x96\xb1\xb9\xe0?'
p13
tp14
b(lp15
(lp16
cnumpy.core.multiarray
scalar
p17
(g10
S'\x96|\xb0\xffgpQ\xc0'
p18
tp19
Rp20
ag17
(g10
S'6\xdf]\xc7?\x1bS@'
p21
tp22
Rp23
aa(lp24
g17
(g10
S'3\xc3\xbeU\xdf\xb7\xe0?'
p25
tp26
Rp27
ag17
(g10
S'\xf9[-\xd7\x83\xbb\xe0?'
p28
tp29
Rp30
aatp31
.