(cnumpy.core.multiarray
_reconstruct
p0
(cnumpy
ndarray
p1
(I0
tp2
S'b'
p3
tp4
Rp5
(I1
(I2
tp6
cnumpy
dtype
p7
(S'f8'
p8
I0
I1
tp9
Rp10
(I3
S'<'
p11
NNNI-1
I-1
I0
tp12
bI00
S'w\x9f?\xc8\xfc\xd4\x94?\xdc$\xb7\xce\x0bI\xe0?'
p13
tp14
b(lp15
(lp16
cnumpy.core.multiarray
scalar
p17
(g10
S'\xac\xd0\xb2\x85f\xf1~\xbf'
p18
tp19
Rp20
ag17
(g10
S'\x8c\xf9\xf5\x98)\xb3\xa8?'
p21
tp22
Rp23
aa(lp24
g17
(g10
S'>\xea\x90\xbdGG\xe0?'
p25
tp26
Rp27
ag17
(g10
S'z_\xdd\xdf\xcfJ\xe0?'
p28
tp29
Rp30
aatp31
.