(cnumpy.core.multiarray
_reconstruct
p0
(cnumpy
ndarray
p1
(I0
tp2
S'b'
p3
tp4
Rp5
(I1
(I2
tp6
cnumpy
dtype
p7
(S'f8'
p8
I0
I1
tp9
Rp10
(I3
S'<'
p11
NNNI-1
I-1
I0
tp12
bI00
S':M\xe9`f\xda\xc0?B\x8d\x0f\x9a-f\xe0?'
p13
tp14
b(lp15
(lp16
cnumpy.core.multiarray
scalar
p17
(g10
S'\xb0\xfa\xbb=m\xe5\x81?'
p18
tp19
Rp20
ag17
(g10
S'dm\xfb\xf6:K\xd0?'
p21
tp22
Rp23
aa(lp24
g17
(g10
S'A\x85\x1d\x07Wd\xe0?'
p25
tp26
Rp27
ag17
(g10
S'C\x95\x01-\x04h\xe0?'
p28
tp29
Rp30
aatp31
.