(cnumpy.core.multiarray
_reconstruct
p0
(cnumpy
ndarray
p1
(I0
tp2
S'b'
p3
tp4
Rp5
(I1
(I2
tp6
cnumpy
dtype
p7
(S'f8'
p8
I0
I1
tp9
Rp10
(I3
S'<'
p11
NNNI-1
I-1
I0
tp12
bI00
S'\xcf#\xc9&\xf4\xb6\xf7?\x84\x97d\xac\xa1\x8a\xe0?'
p13
tp14
b(lp15
(lp16
cnumpy.core.multiarray
scalar
p17
(g10
S'<4{T\x9f\xd6\x1e\xc0'
p18
tp19
Rp20
ag17
(g10
S'\x12\xe3\xef\xb3\x0cY%@'
p21
tp22
Rp23
aa(lp24
g17
(g10
S'\xec.\x8b\xe2\xd2\x88\xe0?'
p25
tp26
Rp27
ag17
(g10
S'\x1c\x00>vp\x8c\xe0?'
p28
tp29
Rp30
aatp31
.