(cnumpy.core.multiarray
_reconstruct
p0
(cnumpy
ndarray
p1
(I0
tp2
S'b'
p3
tp4
Rp5
(I1
(I2
tp6
cnumpy
dtype
p7
(S'f8'
p8
I0
I1
tp9
Rp10
(I3
S'<'
p11
NNNI-1
I-1
I0
tp12
bI00
S'!\x89W\xc5\x06\x7f\x1e@\xc5\x01\x95\xf6\x80_\xe0?'
p13
tp14
b(lp15
(lp16
cnumpy.core.multiarray
scalar
p17
(g10
S'\x7f\x05\xb8/L\xc5\x91\xc0'
p18
tp19
Rp20
ag17
(g10
S'\x91\xb4B=J\x02\x92@'
p21
tp22
Rp23
aa(lp24
g17
(g10
S'R\x0e\xc2&\xc1]\xe0?'
p25
tp26
Rp27
ag17
(g10
S'8\xf5g\xc6@a\xe0?'
p28
tp29
Rp30
aatp31
.