(cnumpy.core.multiarray
_reconstruct
p0
(cnumpy
ndarray
p1
(I0
tp2
S'b'
p3
tp4
Rp5
(I1
(I2
tp6
cnumpy
dtype
p7
(S'f8'
p8
I0
I1
tp9
Rp10
(I3
S'<'
p11
NNNI-1
I-1
I0
tp12
bI00
S'\xd1;\xff]\xf2\xaf\x03@\x01\xc5\x86\x8e\xb2\x1a\xe0?'
p13
tp14
b(lp15
(lp16
cnumpy.core.multiarray
scalar
p17
(g10
S'O\x88S\xb0\x07X:\xc0'
p18
tp19
Rp20
ag17
(g10
S'CW\xd3G\x04D?@'
p21
tp22
Rp23
aa(lp24
g17
(g10
S'\x8c8\x15\xbc\xfe\x18\xe0?'
p25
tp26
Rp27
ag17
(g10
S'vQ\xf8`f\x1c\xe0?'
p28
tp29
Rp30
aatp31
.