(cnumpy.core.multiarray
_reconstruct
p0
(cnumpy
ndarray
p1
(I0
tp2
S'b'
p3
tp4
Rp5
(I1
(I2
tp6
cnumpy
dtype
p7
(S'f8'
p8
I0
I1
tp9
Rp10
(I3
S'<'
p11
NNNI-1
I-1
I0
tp12
bI00
S'W\xdc\x02\xc4g\x1a\xaf?\xbe\x0b|hM\x19\xe1?'
p13
tp14
b(lp15
(lp16
cnumpy.core.multiarray
scalar
p17
(g10
S"hq\xb0\x9c'\xb2|?"
p18
tp19
Rp20
ag17
(g10
S'@\xd57JEO\xbd?'
p21
tp22
Rp23
aa(lp24
g17
(g10
S'{\xee\x1e\x05k\x17\xe1?'
p25
tp26
Rp27
ag17
(g10
S'\x01)\xd9\xcb/\x1b\xe1?'
p28
tp29
Rp30
aatp31
.