(cnumpy.core.multiarray
_reconstruct
p0
(cnumpy
ndarray
p1
(I0
tp2
S'b'
p3
tp4
Rp5
(I1
(I2
tp6
cnumpy
dtype
p7
(S'f8'
p8
I0
I1
tp9
Rp10
(I3
S'<'
p11
NNNI-1
I-1
I0
tp12
bI00
S'%d\x8c\xd8\xbe\xe4\xb2?G\xd0DQ\x1d[\xe0?'
p13
tp14
b(lp15
(lp16
cnumpy.core.multiarray
scalar
p17
(g10
S'\xcc\xfe\xb43\x00\xcc\x90?'
p18
tp19
Rp20
ag17
(g10
S'L\xc4\x15\xd2>\xcb\xc0?'
p21
tp22
Rp23
aa(lp24
g17
(g10
S'\x1e\xd5nEMY\xe0?'
p25
tp26
Rp27
ag17
(g10
S'p\xcb\x1a]\xed\\\xe0?'
p28
tp29
Rp30
aatp31
.