(cnumpy.core.multiarray
_reconstruct
p0
(cnumpy
ndarray
p1
(I0
tp2
S'b'
p3
tp4
Rp5
(I1
(I4
tp6
cnumpy
dtype
p7
(S'f8'
p8
I0
I1
tp9
Rp10
(I3
S'<'
p11
NNNI-1
I-1
I0
tp12
bI00
S'Z\xd3\x8d\xa6b\xc8Z@\xfd\xa9=\x1f\xb1\xc9\x80?$V\x94\x94<=1@]\x02d\xd7/\xde\xe0?'
p13
tp14
b(lp15
(lp16
cnumpy.core.multiarray
scalar
p17
(g10
S'\xc6\xdfT\x84\xefQS@'
p18
tp19
Rp20
ag17
(g10
S'wcc\xe4j\x1fa@'
p21
tp22
Rp23
aa(lp24
g17
(g10
S'\\\xb9\x96\x83\x0b)S?'
p25
tp26
Rp27
ag17
(g10
S'\xce|\x08\xce@.\x8f?'
p28
tp29
Rp30
aa(lp31
g17
(g10
S'$V\x94\x94<=1@'
p32
tp33
Rp34
ag17
(g10
S'$V\x94\x94<=1@'
p35
tp36
Rp37
aa(lp38
g17
(g10
S'*\x14z\xa5\x0b\xda\xe0?'
p39
tp40
Rp41
ag17
(g10
S'\x90\xf0M\tT\xe2\xe0?'
p42
tp43
Rp44
aatp45
.