(cnumpy.core.multiarray
_reconstruct
p0
(cnumpy
ndarray
p1
(I0
tp2
S'b'
p3
tp4
Rp5
(I1
(I4
tp6
cnumpy
dtype
p7
(S'f8'
p8
I0
I1
tp9
Rp10
(I3
S'<'
p11
NNNI-1
I-1
I0
tp12
bI00
S"^f]\xa5Rzl@\x87\x9c}j\xdee'?_&J\x1f\x96\x19,@v\xd6\x7f_X\xe3\xe0?"
p13
tp14
b(lp15
(lp16
cnumpy.core.multiarray
scalar
p17
(g10
S'\xc3\x03o!O\xa9c@'
p18
tp19
Rp20
ag17
(g10
S'|\xe4\xa5\x14\xab\xa5r@'
p21
tp22
Rp23
aa(lp24
g17
(g10
S'\xf4<\xbb\\l[U\xbf'
p25
tp26
Rp27
ag17
(g10
S'\x16\xa4Z\xf7\xe34[?'
p28
tp29
Rp30
aa(lp31
g17
(g10
S'_&J\x1f\x96\x19,@'
p32
tp33
Rp34
ag17
(g10
S'_&J\x1f\x96\x19,@'
p35
tp36
Rp37
aa(lp38
g17
(g10
S'\x16A\x13j!\xa9\xe0?'
p39
tp40
Rp41
ag17
(g10
S'\xd6k\xecT\x8f\x1d\xe1?'
p42
tp43
Rp44
aatp45
.