(cnumpy.core.multiarray
_reconstruct
p0
(cnumpy
ndarray
p1
(I0
tp2
S'b'
p3
tp4
Rp5
(I1
(I4
tp6
cnumpy
dtype
p7
(S'f8'
p8
I0
I1
tp9
Rp10
(I3
S'<'
p11
NNNI-1
I-1
I0
tp12
bI00
S'\xa4\xe6RV$\x85d@^\xea\xa0x\xd1\xc5G?\x08$a\xc8\xded\x17>\x88{\x8e|\n\xfa\xe0?'
p13
tp14
b(lp15
(lp16
cnumpy.core.multiarray
scalar
p17
(g10
S"T\x93\x14'\xb9ib@"
p18
tp19
Rp20
ag17
(g10
S'\xf49\x91\x85\x8f\xa0f@'
p21
tp22
Rp23
aa(lp24
g17
(g10
S'\xffZ\xbd\x955 C?'
p25
tp26
Rp27
ag17
(g10
S'\xbdy\x84[mkL?'
p28
tp29
Rp30
aa(lp31
g17
(g10
S'H1!SMdq\xbf'
p32
tp33
Rp34
ag17
(g10
S"\x8c'H\x0eNdq?"
p35
tp36
Rp37
aa(lp38
g17
(g10
S'\xa8c\x8c\xf0\x85\xf6\xe0?'
p39
tp40
Rp41
ag17
(g10
S'h\x93\x90\x08\x8f\xfd\xe0?'
p42
tp43
Rp44
aatp45
.