(cnumpy.core.multiarray
_reconstruct
p0
(cnumpy
ndarray
p1
(I0
tp2
S'b'
p3
tp4
Rp5
(I1
(I4
tp6
cnumpy
dtype
p7
(S'f8'
p8
I0
I1
tp9
Rp10
(I3
S'<'
p11
NNNI-1
I-1
I0
tp12
bI00
S'$GsF\x80\x01h@*z\x04km\xaf\xb5>F\xb3\t\xec!\x14\xb0?\xa5\xa3\xb73\n\xe6\xe0?'
p13
tp14
b(lp15
(lp16
cnumpy.core.multiarray
scalar
p17
(g10
S'\\-\xc3F\xe1pL@'
p18
tp19
Rp20
ag17
(g10
S'x\xe1\x9a\x1ddst@'
p21
tp22
Rp23
aa(lp24
g17
(g10
S'7\x121mg\x012\xbf'
p25
tp26
Rp27
ag17
(g10
S'+\x1b\x07H\xc6,2?'
p28
tp29
Rp30
aa(lp31
g17
(g10
S';omx= \xaa?'
p32
tp33
Rp34
ag17
(g10
S'\xee\xae\xdc\x1b%\x18\xb3?'
p35
tp36
Rp37
aa(lp38
g17
(g10
S'\x08\xb3\xf8q\xc55\xd1?'
p39
tp40
Rp41
ag17
(g10
S'\xc6\xedr\xae11\xe9?'
p42
tp43
Rp44
aatp45
.