(cnumpy.core.multiarray
_reconstruct
p0
(cnumpy
ndarray
p1
(I0
tp2
S'b'
p3
tp4
Rp5
(I1
(I4
tp6
cnumpy
dtype
p7
(S'f8'
p8
I0
I1
tp9
Rp10
(I3
S'<'
p11
NNNI-1
I-1
I0
tp12
bI00
S'\xfaZ_\x89r\xa6e@\xb0\xe9\xc3]\x14\xb3a?Q%}6^\xbd,@ \xbcv.\xec\xdb\xe0?'
p13
tp14
b(lp15
(lp16
cnumpy.core.multiarray
scalar
p17
(g10
S'\x99\xeeS\xd5M\xa8a@'
p18
tp19
Rp20
ag17
(g10
S'[\xc7j=\x97\xa4i@'
p21
tp22
Rp23
aa(lp24
g17
(g10
S'Tb\xe5\xca\xba\xf35?'
p25
tp26
Rp27
ag17
(g10
S'\x8b\x93\x15\xb1\xd8Sp?'
p28
tp29
Rp30
aa(lp31
g17
(g10
S'Q%}6^\xbd,@'
p32
tp33
Rp34
ag17
(g10
S'Q%}6^\xbd,@'
p35
tp36
Rp37
aa(lp38
g17
(g10
S'\x1a\xd3Tq\x1e\xd8\xe0?'
p39
tp40
Rp41
ag17
(g10
S'&\xa5\x98\xeb\xb9\xdf\xe0?'
p42
tp43
Rp44
aatp45
.