(cnumpy.core.multiarray
_reconstruct
p0
(cnumpy
ndarray
p1
(I0
tp2
S'b'
p3
tp4
Rp5
(I1
(I4
tp6
cnumpy
dtype
p7
(S'f8'
p8
I0
I1
tp9
Rp10
(I3
S'<'
p11
NNNI-1
I-1
I0
tp12
bI00
S"\xf8al\x85\x04\xc6i@GS\xa7\xa9J\x9d'?m[g*\xd9c\xe4>\x97\xd1w98\xc1\xe0?"
p13
tp14
b(lp15
(lp16
cnumpy.core.multiarray
scalar
p17
(g10
S'\x8e!\x87\x9f\n\xa6g@'
p18
tp19
Rp20
ag17
(g10
S'b\xa2Qk\xfe\xe5k@'
p21
tp22
Rp23
aa(lp24
g17
(g10
S'$mrO_7!?'
p25
tp26
Rp27
ag17
(g10
S'j9\xdc\x036\x03.?'
p28
tp29
Rp30
aa(lp31
g17
(g10
S"\x8cs'\x0c\x9f@[\xbf"
p32
tp33
Rp34
ag17
(g10
S'\xfa\x10\xd1p.\x92[?'
p35
tp36
Rp37
aa(lp38
g17
(g10
S'\xcd=\x840\x0f\xbd\xe0?'
p39
tp40
Rp41
ag17
(g10
S'aekBa\xc5\xe0?'
p42
tp43
Rp44
aatp45
.