(cnumpy.core.multiarray
_reconstruct
p0
(cnumpy
ndarray
p1
(I0
tp2
S'b'
p3
tp4
Rp5
(I1
(I4
tp6
cnumpy
dtype
p7
(S'f8'
p8
I0
I1
tp9
Rp10
(I3
S'<'
p11
NNNI-1
I-1
I0
tp12
bI00
S'*56\x8b\xe0\xc6m@\x05A>G\x87#K?\xb9=phP6\xe1?[\x97\xf6oP\xc5\xe0?'
p13
tp14
b(lp15
(lp16
cnumpy.core.multiarray
scalar
p17
(g10
S'\xc5\xcc\xd5cR#i@'
p18
tp19
Rp20
ag17
(g10
S'\xc7NKY75q@'
p21
tp22
Rp23
aa(lp24
g17
(g10
S'vI\x08\xc5\t\xbbJ?'
p25
tp26
Rp27
ag17
(g10
S'\x948t\xc9\x04\x8cK?'
p28
tp29
Rp30
aa(lp31
g17
(g10
S'Vr\x7f\xd8\xb4\xe2\xf7\xbf'
p32
tp33
Rp34
ag17
(g10
S'\x07\xd8w\xa0\x82\x8c\x04@'
p35
tp36
Rp37
aa(lp38
g17
(g10
S'\xa8/\xd5AK\xc2\xe0?'
p39
tp40
Rp41
ag17
(g10
S'\x0e\xff\x17\x9eU\xc8\xe0?'
p42
tp43
Rp44
aatp45
.