(cnumpy.core.multiarray
_reconstruct
p0
(cnumpy
ndarray
p1
(I0
tp2
S'b'
p3
tp4
Rp5
(I1
(I4
tp6
cnumpy
dtype
p7
(S'f8'
p8
I0
I1
tp9
Rp10
(I3
S'<'
p11
NNNI-1
I-1
I0
tp12
bI00
S')\x8aF<{pi@\x8dy\xd0\xc6p\r\xc9>\xf3n9nO\xd5\xb5?\x05bx\xe4H\x86\xe0?'
p13
tp14
b(lp15
(lp16
cnumpy.core.multiarray
scalar
p17
(g10
S'? ~\xccI\xc0\\@'
p18
tp19
Rp20
ag17
(g10
S"\x19\x02'\xc9h@r@"
p21
tp22
Rp23
aa(lp24
g17
(g10
S'U\xf0<\x80\xe8+6\xbf'
p25
tp26
Rp27
ag17
(g10
S';2XC\x1e\x906?'
p28
tp29
Rp30
aa(lp31
g17
(g10
S'0\x90ma\xe0\x85\xa4?'
p32
tp33
Rp34
ag17
(g10
S'\xe7\n\xdeU\xd7\xb3\xc0?'
p35
tp36
Rp37
aa(lp38
g17
(g10
S'\xd4\x8d\x85<\xf6z\xd8?'
p39
tp40
Rp41
ag17
(g10
S' \xfd\xad\xaa\x16\xcf\xe4?'
p42
tp43
Rp44
aatp45
.