(cnumpy.core.multiarray
_reconstruct
p0
(cnumpy
ndarray
p1
(I0
tp2
S'b'
p3
tp4
Rp5
(I1
(I4
tp6
cnumpy
dtype
p7
(S'f8'
p8
I0
I1
tp9
Rp10
(I3
S'<'
p11
NNNI-1
I-1
I0
tp12
bI00
S'\xc4L\x95\xde1\x9cR@!\xfd\x12\xb7o\xf5y?\x00x\xf6\x19\x16\xcbC=\xc6Z\xf7\x06,\x8a\xe0?'
p13
tp14
b(lp15
(lp16
cnumpy.core.multiarray
scalar
p17
(g10
S'M\x8dP\xb8\x04kQ@'
p18
tp19
Rp20
ag17
(g10
S';\x0c\xda\x04_\xcdS@'
p21
tp22
Rp23
aa(lp24
g17
(g10
S'\x17\x0068{Cv?'
p25
tp26
Rp27
ag17
(g10
S'+\xfa\xef5d\xa7}?'
p28
tp29
Rp30
aa(lp31
g17
(g10
S'\x12@X\r\xbfAs\xbf'
p32
tp33
Rp34
ag17
(g10
S'\xd82]\r\xbfAs?'
p35
tp36
Rp37
aa(lp38
g17
(g10
S'\x1ak\xe4\xaa,\x89\xe0?'
p39
tp40
Rp41
ag17
(g10
S'rJ\nc+\x8b\xe0?'
p42
tp43
Rp44
aatp45
.