(cnumpy.core.multiarray
_reconstruct
p0
(cnumpy
ndarray
p1
(I0
tp2
S'b'
p3
tp4
Rp5
(I1
(I4
tp6
cnumpy
dtype
p7
(S'f8'
p8
I0
I1
tp9
Rp10
(I3
S'<'
p11
NNNI-1
I-1
I0
tp12
bI00
S'-\xbc\xc4\xbd\xa0\xaaT@\xda0d\x1a"ko?$v\xd0\x88\x8f\xaa\x12@,\xae\'g\xb1\x88\xe0?'
p13
tp14
b(lp15
(lp16
cnumpy.core.multiarray
scalar
p17
(g10
S'>\x14_\xaf\x88(S@'
p18
tp19
Rp20
ag17
(g10
S'\x1cd*\xcc\xb8,V@'
p21
tp22
Rp23
aa(lp24
g17
(g10
S't\x08@P\xf3Dh?'
p25
tp26
Rp27
ag17
(g10
S'\xa0,Dr\xa8Hs?'
p28
tp29
Rp30
aa(lp31
g17
(g10
S'\x8b\xd3\xd9\x83\xd1!S\xc0'
p32
tp33
Rp34
ag17
(g10
S'O\xe2\xf3t#wU@'
p35
tp36
Rp37
aa(lp38
g17
(g10
S'\xe4\xf4\xcf\xab&\x87\xe0?'
p39
tp40
Rp41
ag17
(g10
S'tg\x7f"<\x8a\xe0?'
p42
tp43
Rp44
aatp45
.