(cnumpy.core.multiarray
_reconstruct
p0
(cnumpy
ndarray
p1
(I0
tp2
S'b'
p3
tp4
Rp5
(I1
(I4
tp6
cnumpy
dtype
p7
(S'f8'
p8
I0
I1
tp9
Rp10
(I3
S'<'
p11
NNNI-1
I-1
I0
tp12
bI00
S'\xee,\x9aC\x1c\x17Q@r\xdbRJ\xc2%|?\x85\x8a\xa0B\xa5\xa7j?\x8c]\xfa\xf7^\x97\xe0?'
p13
tp14
b(lp15
(lp16
cnumpy.core.multiarray
scalar
p17
(g10
S"M\xb9X'_\x10P@"
p18
tp19
Rp20
ag17
(g10
S'\x8f\xa0\xdb_\xd9\x1dR@'
p21
tp22
Rp23
aa(lp24
g17
(g10
S'~ya\xee\x9b\x81x?'
p25
tp26
Rp27
ag17
(g10
S'f=D\xa6\xe8\xc9\x7f?'
p28
tp29
Rp30
aa(lp31
g17
(g10
S'\xb2\x0c\x98F\xcd?X\xbf'
p32
tp33
Rp34
ag17
(g10
S'\xd9F#J\xcc[\x80?'
p35
tp36
Rp37
aa(lp38
g17
(g10
S'\xadu}\xb2w\x96\xe0?'
p39
tp40
Rp41
ag17
(g10
S'kEw=F\x98\xe0?'
p42
tp43
Rp44
aatp45
.