(cnumpy.core.multiarray
_reconstruct
p0
(cnumpy
ndarray
p1
(I0
tp2
S'b'
p3
tp4
Rp5
(I1
(I4
tp6
cnumpy
dtype
p7
(S'f8'
p8
I0
I1
tp9
Rp10
(I3
S'<'
p11
NNNI-1
I-1
I0
tp12
bI00
S'\xef\xd9\xb3C4SR@\n*\xf1k\xcf8x?\x07R\xe2\x98\xdd\x84\x92?\x81"z\xa4y\x92\xe0?'
p13
tp14
b(lp15
(lp16
cnumpy.core.multiarray
scalar
p17
(g10
S'ln&\x19\xe7xQ@'
p18
tp19
Rp20
ag17
(g10
S'rEAn\x81-S@'
p21
tp22
Rp23
aa(lp24
g17
(g10
S'R\x1b\xaf$\xd8\x9bu?'
p25
tp26
Rp27
ag17
(g10
S'\xc283\xb3\xc6\xd5z?'
p28
tp29
Rp30
aa(lp31
g17
(g10
S'\x82o\xf0\xecg\x06\x8b?'
p32
tp33
Rp34
ag17
(g10
S'MlL;\x87\x86\x97?'
p35
tp36
Rp37
aa(lp38
g17
(g10
S'\x04\x12ko\xc0\x91\xe0?'
p39
tp40
Rp41
ag17
(g10
S'\xfe2\x89\xd92\x93\xe0?'
p42
tp43
Rp44
aatp45
.