(cnumpy.core.multiarray
_reconstruct
p0
(cnumpy
ndarray
p1
(I0
tp2
S'b'
p3
tp4
Rp5
(I1
(I4
tp6
cnumpy
dtype
p7
(S'f8'
p8
I0
I1
tp9
Rp10
(I3
S'<'
p11
NNNI-1
I-1
I0
tp12
bI00
S'i\xea\x10\x1d^"R@k\xe4\xf87\x96`|?hj\xa8H\xbe\xe2)@\xb8g6G8\xaa\xe0?'
p13
tp14
b(lp15
(lp16
cnumpy.core.multiarray
scalar
p17
(g10
S'&\x12\x8aB^\xabP@'
p18
tp19
Rp20
ag17
(g10
S'\xac\xc2\x97\xf7]\x99S@'
p21
tp22
Rp23
aa(lp24
g17
(g10
S'J^Ijl\x8fv?'
p25
tp26
Rp27
ag17
(g10
S'F5\xd4\x02\xe0\x18\x81?'
p28
tp29
Rp30
aa(lp31
g17
(g10
S'hj\xa8H\xbe\xe2)@'
p32
tp33
Rp34
ag17
(g10
S'hj\xa8H\xbe\xe2)@'
p35
tp36
Rp37
aa(lp38
g17
(g10
S'\x06\xdf\x97K\r\xa9\xe0?'
p39
tp40
Rp41
ag17
(g10
S'j\xf0\xd4Bc\xab\xe0?'
p42
tp43
Rp44
aatp45
.