(cnumpy.core.multiarray
_reconstruct
p0
(cnumpy
ndarray
p1
(I0
tp2
S'b'
p3
tp4
Rp5
(I1
(I4
tp6
cnumpy
dtype
p7
(S'f8'
p8
I0
I1
tp9
Rp10
(I3
S'<'
p11
NNNI-1
I-1
I0
tp12
bI00
S'<\xbb6XvqQ@\xef\xa46\xde\xd3G\x81?i\x97\xf2>\xf6p\xc0?\x17[R>\x03\x96\xe0?'
p13
tp14
b(lp15
(lp16
cnumpy.core.multiarray
scalar
p17
(g10
S't\xc4Ll\x97\x07P@'
p18
tp19
Rp20
ag17
(g10
S'\x04\xb2 DU\xdbR@'
p21
tp22
Rp23
aa(lp24
g17
(g10
S"\xec\xc9'e\x9c1|?"
p25
tp26
Rp27
ag17
(g10
S'\xe8d\xd9\x89\xd9v\x84?'
p28
tp29
Rp30
aa(lp31
g17
(g10
S'\\wFSn\xdb\xb4?'
p32
tp33
Rp34
ag17
(g10
S'$\xf3AT5t\xc6?'
p35
tp36
Rp37
aa(lp38
g17
(g10
S'e\r\xe3\x18\x02\x95\xe0?'
p39
tp40
Rp41
ag17
(g10
S'\xc9\xa8\xc1c\x04\x97\xe0?'
p42
tp43
Rp44
aatp45
.