(cnumpy.core.multiarray
_reconstruct
p0
(cnumpy
ndarray
p1
(I0
tp2
S'b'
p3
tp4
Rp5
(I1
(I4
tp6
cnumpy
dtype
p7
(S'f8'
p8
I0
I1
tp9
Rp10
(I3
S'<'
p11
NNNI-1
I-1
I0
tp12
bI00
S'\x93\xcf\x0c\xf1\xd9\xe4R@\xf4Fz*d\xacx?o\x896~A\xd62@\xb4~\xaa\xd4\xa7\x87\xe0?'
p13
tp14
b(lp15
(lp16
cnumpy.core.multiarray
scalar
p17
(g10
S'\xe6\xdbjv\xe1sQ@'
p18
tp19
Rp20
ag17
(g10
S'@\xc3\xaek\xd2UT@'
p21
tp22
Rp23
aa(lp24
g17
(g10
S'u\x0fYk\xbb\xacs?'
p25
tp26
Rp27
ag17
(g10
S's~\x9b\xe9\x0c\xac}?'
p28
tp29
Rp30
aa(lp31
g17
(g10
S'o\x896~A\xd62@'
p32
tp33
Rp34
ag17
(g10
S'o\x896~A\xd62@'
p35
tp36
Rp37
aa(lp38
g17
(g10
S'\x95\x92t$t\x86\xe0?'
p39
tp40
Rp41
ag17
(g10
S'\xd3j\xe0\x84\xdb\x88\xe0?'
p42
tp43
Rp44
aatp45
.