(cnumpy.core.multiarray
_reconstruct
p0
(cnumpy
ndarray
p1
(I0
tp2
S'b'
p3
tp4
Rp5
(I1
(I4
tp6
cnumpy
dtype
p7
(S'f8'
p8
I0
I1
tp9
Rp10
(I3
S'<'
p11
NNNI-1
I-1
I0
tp12
bI00
S"\x84\xcc\x83\x19?\xf0S@=H\xc9\x124\x11v?`\xcdI\x8f ?@@'\x7f\xf9\xca\xa8\xa7\xe0?"
p13
tp14
b(lp15
(lp16
cnumpy.core.multiarray
scalar
p17
(g10
S'\x03@\xe4dR]R@'
p18
tp19
Rp20
ag17
(g10
S'\x05Y#\xce+\x83U@'
p21
tp22
Rp23
aa(lp24
g17
(g10
S'\xba\xbc\xf0BHCq?'
p25
tp26
Rp27
ag17
(g10
S'\xc0\xd3\xa1\xe2\x1f\xdfz?'
p28
tp29
Rp30
aa(lp31
g17
(g10
S'`\xcdI\x8f ?@@'
p32
tp33
Rp34
ag17
(g10
S'`\xcdI\x8f ?@@'
p35
tp36
Rp37
aa(lp38
g17
(g10
S'\x06\x9cV\xce_\xa6\xe0?'
p39
tp40
Rp41
ag17
(g10
S'Hb\x9c\xc7\xf1\xa8\xe0?'
p42
tp43
Rp44
aatp45
.