(cnumpy.core.multiarray
_reconstruct
p0
(cnumpy
ndarray
p1
(I0
tp2
S'b'
p3
tp4
Rp5
(I1
(I4
tp6
cnumpy
dtype
p7
(S'f8'
p8
I0
I1
tp9
Rp10
(I3
S'<'
p11
NNNI-1
I-1
I0
tp12
bI00
S'\xb0\xeb\xecl\xacsQ@\x83\xcaO\xa7s?t?Y\t\x1d\xe1aD0@}\xc4\xeeV\x93\xa5\xe0?'
p13
tp14
b(lp15
(lp16
cnumpy.core.multiarray
scalar
p17
(g10
S'\xed\xfa\xf9\xf4\x9b4P@'
p18
tp19
Rp20
ag17
(g10
S's\xdc\xdf\xe4\xbc\xb2R@'
p21
tp22
Rp23
aa(lp24
g17
(g10
S'\x94Y\x9a\xec\xe6#p?'
p25
tp26
Rp27
ag17
(g10
S'r;\x05b\x00[x?'
p28
tp29
Rp30
aa(lp31
g17
(g10
S'Y\t\x1d\xe1aD0@'
p32
tp33
Rp34
ag17
(g10
S'Y\t\x1d\xe1aD0@'
p35
tp36
Rp37
aa(lp38
g17
(g10
S'c\xe2\xb2~%\xa4\xe0?'
p39
tp40
Rp41
ag17
(g10
S'\x97\xa6*/\x01\xa7\xe0?'
p42
tp43
Rp44
aatp45
.