(cnumpy.core.multiarray
_reconstruct
p0
(cnumpy
ndarray
p1
(I0
tp2
S'b'
p3
tp4
Rp5
(I1
(I4
tp6
cnumpy
dtype
p7
(S'f8'
p8
I0
I1
tp9
Rp10
(I3
S'<'
p11
NNNI-1
I-1
I0
tp12
bI00
S"(\xc3\xfc\xe8'sQ@\x8bP\x91F\xcf\x99{?#;P\x88S\x85A?\xa0\x9e5s\x06\xa1\xe0?"
p13
tp14
b(lp15
(lp16
cnumpy.core.multiarray
scalar
p17
(g10
S'\xa7Y){^]P@'
p18
tp19
Rp20
ag17
(g10
S'\xa9,\xd0V\xf1\x88R@'
p21
tp22
Rp23
aa(lp24
g17
(g10
S'a\x12V>e\xecw?'
p25
tp26
Rp27
ag17
(g10
S'\xb5\x8e\xccN9G\x7f?'
p28
tp29
Rp30
aa(lp31
g17
(g10
S'\rG\xc2k\xc9zp\xbf'
p32
tp33
Rp34
ag17
(g10
S'\xd5U\xd6M\x1e\xdct?'
p35
tp36
Rp37
aa(lp38
g17
(g10
S'B\x0fP>\x18\xa0\xe0?'
p39
tp40
Rp41
ag17
(g10
S'\xfe-\x1b\xa8\xf4\xa1\xe0?'
p42
tp43
Rp44
aatp45
.