(cnumpy.core.multiarray
_reconstruct
p0
(cnumpy
ndarray
p1
(I0
tp2
S'b'
p3
tp4
Rp5
(I1
(I4
tp6
cnumpy
dtype
p7
(S'f8'
p8
I0
I1
tp9
Rp10
(I3
S'<'
p11
NNNI-1
I-1
I0
tp12
bI00
S'\xf2X.\xb3K\xb2Q@\xae\xd8B\xcaM|w?\xc7 \x93_K>\x11@\x8c\x9a\xef\xff\t~\xe0?'
p13
tp14
b(lp15
(lp16
cnumpy.core.multiarray
scalar
p17
(g10
S'\x03\xe2t\\\xcclP@'
p18
tp19
Rp20
ag17
(g10
S'\xe1\xcf\xe7\t\xcb\xf7R@'
p21
tp22
Rp23
aa(lp24
g17
(g10
S'>\xdf;}V\xeer?'
p25
tp26
Rp27
ag17
(g10
S'\x1e\xd2I\x17E\n|?'
p28
tp29
Rp30
aa(lp31
g17
(g10
S'\x0ex\x00\x8d\xdd/I\xc0'
p32
tp33
Rp34
ag17
(g10
S'@@\xe5dp\x7fM@'
p35
tp36
Rp37
aa(lp38
g17
(g10
S'\xd4\xea\xea\xeb\xc6|\xe0?'
p39
tp40
Rp41
ag17
(g10
S'DJ\xf4\x13M\x7f\xe0?'
p42
tp43
Rp44
aatp45
.