(cnumpy.core.multiarray
_reconstruct
p0
(cnumpy
ndarray
p1
(I0
tp2
S'b'
p3
tp4
Rp5
(I1
(I4
tp6
cnumpy
dtype
p7
(S'f8'
p8
I0
I1
tp9
Rp10
(I3
S'<'
p11
NNNI-1
I-1
I0
tp12
bI00
S'\xafz#\xa8\x83\xc6W@\x94\xc0\x96\x9b\xc8(S?\xd0j\\\xde\xad\x9f\xad?x\x8f\x7f\x00\xaav\xe0?'
p13
tp14
b(lp15
(lp16
cnumpy.core.multiarray
scalar
p17
(g10
S'`\x8f\xf7\x19\x17cV@'
p18
tp19
Rp20
ag17
(g10
S'\xfeeO6\xf0)Y@'
p21
tp22
Rp23
aa(lp24
g17
(g10
S'\xacY\xca\xc6/<L?'
p25
tp26
Rp27
ag17
(g10
S'RT\xc8Sy3X?'
p28
tp29
Rp30
aa(lp31
g17
(g10
S'C\xfaQ\x1dbQ\xa8?'
p32
tp33
Rp34
ag17
(g10
S'\xafm\xb3\xcf\xfcv\xb1?'
p35
tp36
Rp37
aa(lp38
g17
(g10
S'r!\xe2\x9c t\xe0?'
p39
tp40
Rp41
ag17
(g10
S'~\xfd\x1cd3y\xe0?'
p42
tp43
Rp44
aatp45
.