(cnumpy.core.multiarray
_reconstruct
p0
(cnumpy
ndarray
p1
(I0
tp2
S'b'
p3
tp4
Rp5
(I1
(I4
tp6
cnumpy
dtype
p7
(S'f8'
p8
I0
I1
tp9
Rp10
(I3
S'<'
p11
NNNI-1
I-1
I0
tp12
bI00
S'\xfd~\x10\x8a9\xe6V@KF?\xb0\x98\xfcc?\xe4\xd4k"<\x04=@\x96\xa0M\x8e|\xa0\xe0?'
p13
tp14
b(lp15
(lp16
cnumpy.core.multiarray
scalar
p17
(g10
S'\xd4\xc2\xc6C[HU@'
p18
tp19
Rp20
ag17
(g10
S'&;Z\xd0\x17\x84X@'
p21
tp22
Rp23
aa(lp24
g17
(g10
S'\xaa\x06R\x1c\xf9h]?'
p25
tp26
Rp27
ag17
(g10
S'A\x89U\xd2\xb4Di?'
p28
tp29
Rp30
aa(lp31
g17
(g10
S'\xe4\xd4k"<\x04=@'
p32
tp33
Rp34
ag17
(g10
S'\xe4\xd4k"<\x04=@'
p35
tp36
Rp37
aa(lp38
g17
(g10
S'\xf0\xb30\xe4\x83\x9e\xe0?'
p39
tp40
Rp41
ag17
(g10
S'<\x8dj8u\xa2\xe0?'
p42
tp43
Rp44
aatp45
.