(cnumpy.core.multiarray
_reconstruct
p0
(cnumpy
ndarray
p1
(I0
tp2
S'b'
p3
tp4
Rp5
(I1
(I4
tp6
cnumpy
dtype
p7
(S'f8'
p8
I0
I1
tp9
Rp10
(I3
S'<'
p11
NNNI-1
I-1
I0
tp12
bI00
S'x\x92\xe3\x1aKQU@l+zU\x8f0c?\x0b\xd9\x9a\xd4\x7f\xce\x9b?)1j.\xc6\x89\xe0?'
p13
tp14
b(lp15
(lp16
cnumpy.core.multiarray
scalar
p17
(g10
S'\xcb\xb9\xbe\x07\x9c\xd6T@'
p18
tp19
Rp20
ag17
(g10
S'%k\x08.\xfa\xcbU@'
p21
tp22
Rp23
aa(lp24
g17
(g10
S'\x1f.)yb-c?'
p25
tp26
Rp27
ag17
(g10
S'\xb9(\xcb1\xbc3c?'
p28
tp29
Rp30
aa(lp31
g17
(g10
S'\xefe{R\xcc\xd9\x97?'
p32
tp33
Rp34
ag17
(g10
S"'L\xbaV3\xc3\x9f?"
p35
tp36
Rp37
aa(lp38
g17
(g10
S'a\x87p\x14%\x89\xe0?'
p39
tp40
Rp41
ag17
(g10
S'\xf1\xdacHg\x8a\xe0?'
p42
tp43
Rp44
aatp45
.