(cnumpy.core.multiarray
_reconstruct
p0
(cnumpy
ndarray
p1
(I0
tp2
S'b'
p3
tp4
Rp5
(I1
(I4
tp6
cnumpy
dtype
p7
(S'f8'
p8
I0
I1
tp9
Rp10
(I3
S'<'
p11
NNNI-1
I-1
I0
tp12
bI00
S'\xd8i\xa0\x88#\x15S@\xcbJS\x9aq\xbas?b\xaeu\xbfV3\xf6?\xf9iA\x8c\xfc\xac\xe0?'
p13
tp14
b(lp15
(lp16
cnumpy.core.multiarray
scalar
p17
(g10
S'9\x10"\xab\xee\x85Q@'
p18
tp19
Rp20
ag17
(g10
S'w\xc3\x1efX\xa4T@'
p21
tp22
Rp23
aa(lp24
g17
(g10
S'\xb634\xaa\xe5Hn?'
p25
tp26
Rp27
ag17
(g10
S'\xbb{\x8c_pPx?'
p28
tp29
Rp30
aa(lp31
g17
(g10
S'>=p\xa3\xdf\x1c\xfd\xbf'
p32
tp33
Rp34
ag17
(g10
S'\x80\xe6\x96H\xe3`\x12@'
p35
tp36
Rp37
aa(lp38
g17
(g10
S'\x9a\x93[c{\xab\xe0?'
p39
tp40
Rp41
ag17
(g10
S"X@'\xb5}\xae\xe0?"
p42
tp43
Rp44
aatp45
.