(cnumpy.core.multiarray
_reconstruct
p0
(cnumpy
ndarray
p1
(I0
tp2
S'b'
p3
tp4
Rp5
(I1
(I4
tp6
cnumpy
dtype
p7
(S'f8'
p8
I0
I1
tp9
Rp10
(I3
S'<'
p11
NNNI-1
I-1
I0
tp12
bI00
S'\xd1\xa6)Hh&Q@\xdc\xdf\x1f\xdf\x1d\xf4}?7\ni\xd5Y\xe4\xb2?.\x8a\x8fEv\xaa\xe0?'
p13
tp14
b(lp15
(lp16
cnumpy.core.multiarray
scalar
p17
(g10
S'ty\xefV{>P@'
p18
tp19
Rp20
ag17
(g10
S'.\xd4c9U\x0eR@'
p21
tp22
Rp23
aa(lp24
g17
(g10
S'\x0eU\xc8\xbb\xb6Gz?'
p25
tp26
Rp27
ag17
(g10
S'U\xb5;\x81B\xd0\x80?'
p28
tp29
Rp30
aa(lp31
g17
(g10
S'h\xd9\xd0tL\xb7\xad?'
p32
tp33
Rp34
ag17
(g10
S'\xba\xa7ip\r\xed\xb6?'
p35
tp36
Rp37
aa(lp38
g17
(g10
S'\xe2\xca\xca\xbd\xb8\xa9\xe0?'
p39
tp40
Rp41
ag17
(g10
S'zIT\xcd3\xab\xe0?'
p42
tp43
Rp44
aatp45
.