(cnumpy.core.multiarray
_reconstruct
p0
(cnumpy
ndarray
p1
(I0
tp2
S'b'
p3
tp4
Rp5
(I1
(I4
tp6
cnumpy
dtype
p7
(S'f8'
p8
I0
I1
tp9
Rp10
(I3
S'<'
p11
NNNI-1
I-1
I0
tp12
bI00
S'\xcf\xe1\x1dI;\x8bT@.\xe1<`\x9e:k?p\xac\xdb\xabHo2@\xa2qV\xc5\x10\xb3\xe0?'
p13
tp14
b(lp15
(lp16
cnumpy.core.multiarray
scalar
p17
(g10
S'R\xfb5\x93\xcd\x0cS@'
p18
tp19
Rp20
ag17
(g10
S'L\xc8\x05\xff\xa8\tV@'
p21
tp22
Rp23
aa(lp24
g17
(g10
S'\x96W\xc7:E\xb4d?'
p25
tp26
Rp27
ag17
(g10
S'c5\xd9\xc2{\xe0p?'
p28
tp29
Rp30
aa(lp31
g17
(g10
S'\xf9\x9b\xdb\xabHo2@'
p32
tp33
Rp34
ag17
(g10
S'\xe7\xbc\xdb\xabHo2@'
p35
tp36
Rp37
aa(lp38
g17
(g10
S'\xd2\x91\x86UV\xb1\xe0?'
p39
tp40
Rp41
ag17
(g10
S'rQ&5\xcb\xb4\xe0?'
p42
tp43
Rp44
aatp45
.