(cnumpy.core.multiarray
_reconstruct
p0
(cnumpy
ndarray
p1
(I0
tp2
S'b'
p3
tp4
Rp5
(I1
(I4
tp6
cnumpy
dtype
p7
(S'f8'
p8
I0
I1
tp9
Rp10
(I3
S'<'
p11
NNNI-1
I-1
I0
tp12
bI00
S'NO\x8995\xcaQ@#\xba4f\x87Lz?@\x9f\x9a2:W\xae?vRX"s\x95\xe0?'
p13
tp14
b(lp15
(lp16
cnumpy.core.multiarray
scalar
p17
(g10
S'\xff\x1e\xbex\xf4yP@'
p18
tp19
Rp20
ag17
(g10
S'\x9d\x7fT\xfau\x1aS@'
p21
tp22
Rp23
aa(lp24
g17
(g10
S'9=&Q\x17\xaau?'
p25
tp26
Rp27
ag17
(g10
S'\r7C{\xf7\xee~?'
p28
tp29
Rp30
aa(lp31
g17
(g10
S'\xab)\x8c\x04\xbcx\xa5?'
p32
tp33
Rp34
ag17
(g10
S'j\x8aT0\xdc\x9a\xb3?'
p35
tp36
Rp37
aa(lp38
g17
(g10
S'\x18e\x07\x03W\x94\xe0?'
p39
tp40
Rp41
ag17
(g10
S'\xd4?\xa9A\x8f\x96\xe0?'
p42
tp43
Rp44
aatp45
.