(cnumpy.core.multiarray
_reconstruct
p0
(cnumpy
ndarray
p1
(I0
tp2
S'b'
p3
tp4
Rp5
(I1
(I4
tp6
cnumpy
dtype
p7
(S'f8'
p8
I0
I1
tp9
Rp10
(I3
S'<'
p11
NNNI-1
I-1
I0
tp12
bI00
S'\xf2\x02t\xae\xa8\x11P@9A\xf4{e\xc7\x85?\n\xddR\xdcX%\x92?\x19.\x9c-\x9c\x9f\xe0?'
p13
tp14
b(lp15
(lp16
cnumpy.core.multiarray
scalar
p17
(g10
S'\xd6\x91j\xd7\t\xa8M@'
p18
tp19
Rp20
ag17
(g10
S'\xf9\xbc2qLOQ@'
p21
tp22
Rp23
aa(lp24
g17
(g10
S'P\x0c\xbe/R`\x82?'
p25
tp26
Rp27
ag17
(g10
S'"v*\xc8x.\x89?'
p28
tp29
Rp30
aa(lp31
g17
(g10
S'\rO\x8fjv0\x80?'
p32
tp33
Rp34
ag17
(g10
S'\x8e\x12^\x83v2\x9c?'
p35
tp36
Rp37
aa(lp38
g17
(g10
S'\x1b@\xae_\xbc\x9e\xe0?'
p39
tp40
Rp41
ag17
(g10
S'\x17\x1c\x8a\xfb{\xa0\xe0?'
p42
tp43
Rp44
aatp45
.