(cnumpy.core.multiarray
_reconstruct
p0
(cnumpy
ndarray
p1
(I0
tp2
S'b'
p3
tp4
Rp5
(I1
(I4
tp6
cnumpy
dtype
p7
(S'f8'
p8
I0
I1
tp9
Rp10
(I3
S'<'
p11
NNNI-1
I-1
I0
tp12
bI00
S'\xc4\xacB2m\xd5\\@\xd4a\xa0\x10Ts$?w|g7\x92t-@k\xaa\xce4\xaf\x81\xe0?'
p13
tp14
b(lp15
(lp16
cnumpy.core.multiarray
scalar
p17
(g10
S'\x86\xea\xd5\x9c\x12\xf7Z@'
p18
tp19
Rp20
ag17
(g10
S'\x02o\xaf\xc7\xc7\xb3^@'
p21
tp22
Rp23
aa(lp24
g17
(g10
S'`\x08\x02\xf7\tp\xee\xbe'
p25
tp26
Rp27
ag17
(g10
S'\x17rX`\xd4f5?'
p28
tp29
Rp30
aa(lp31
g17
(g10
S'w|g7\x92t-@'
p32
tp33
Rp34
ag17
(g10
S'w|g7\x92t-@'
p35
tp36
Rp37
aa(lp38
g17
(g10
S',<\xc0\x1bcs\xe0?'
p39
tp40
Rp41
ag17
(g10
S'\xaa\x18\xddM\xfb\x8f\xe0?'
p42
tp43
Rp44
aatp45
.