(cnumpy.core.multiarray
_reconstruct
p0
(cnumpy
ndarray
p1
(I0
tp2
S'b'
p3
tp4
Rp5
(I1
(I4
tp6
cnumpy
dtype
p7
(S'f8'
p8
I0
I1
tp9
Rp10
(I3
S'<'
p11
NNNI-1
I-1
I0
tp12
bI00
S'?\x1db`[\xceT@j6\xbc\xa4\x91\tr?\xb7\x97\xf2\xa9]U\xbd?j>\x80\x87\xd4\xb5\xe0?'
p13
tp14
b(lp15
(lp16
cnumpy.core.multiarray
scalar
p17
(g10
S"'\x983&\xa68S@"
p18
tp19
Rp20
ag17
(g10
S'W\xa2\x90\x9a\x10dV@'
p21
tp22
Rp23
aa(lp24
g17
(g10
S'x\xeb bazl?'
p25
tp26
Rp27
ag17
(g10
S'\x18\xf7g\x98\xf2\xd5u?'
p28
tp29
Rp30
aa(lp31
g17
(g10
S'.\xd3*5\x8e\x12\xb4?'
p32
tp33
Rp34
ag17
(g10
S' .]\x8f\x16L\xc3?'
p35
tp36
Rp37
aa(lp38
g17
(g10
S'GB_\x08\x81\xb4\xe0?'
p39
tp40
Rp41
ag17
(g10
S'\x8d:\xa1\x06(\xb7\xe0?'
p42
tp43
Rp44
aatp45
.