(cnumpy.core.multiarray
_reconstruct
p0
(cnumpy
ndarray
p1
(I0
tp2
S'b'
p3
tp4
Rp5
(I1
(I4
tp6
cnumpy
dtype
p7
(S'f8'
p8
I0
I1
tp9
Rp10
(I3
S'<'
p11
NNNI-1
I-1
I0
tp12
bI00
S'\x1f]A^\t\xa0S@6~\xdd\xd9O\xa9q?\x84\xd0\xd7\x81\x8a\xfe\x87?\xf7\x9bG\xc7c\x89\xe0?'
p13
tp14
b(lp15
(lp16
cnumpy.core.multiarray
scalar
p17
(g10
S'\x16\x9f\xd2\x8d\x94zR@'
p18
tp19
Rp20
ag17
(g10
S'(\x1b\xb0.~\xc5T@'
p21
tp22
Rp23
aa(lp24
g17
(g10
S'q\x0b\xdf!!9n?'
p25
tp26
Rp27
ag17
(g10
S'\xb4v\xcb"\x0f6t?'
p28
tp29
Rp30
aa(lp31
g17
(g10
S'"\xf3\xccN]\x88|?'
p32
tp33
Rp34
ag17
(g10
S'\xbc\x93$.s\xdc\x90?'
p35
tp36
Rp37
aa(lp38
g17
(g10
S':f\x13RQ\x88\xe0?'
p39
tp40
Rp41
ag17
(g10
S'\xb4\xd1{<v\x8a\xe0?'
p42
tp43
Rp44
aatp45
.