(cnumpy.core.multiarray
_reconstruct
p0
(cnumpy
ndarray
p1
(I0
tp2
S'b'
p3
tp4
Rp5
(I1
(I4
tp6
cnumpy
dtype
p7
(S'f8'
p8
I0
I1
tp9
Rp10
(I3
S'<'
p11
NNNI-1
I-1
I0
tp12
bI00
S'\xafQn\x80B\x1dX@P\x8f\xee\x04\xaeX^?>\xc1\xa7I@x=@\x87\xb8\x1e\xca\xea\xd7\xe0?'
p13
tp14
b(lp15
(lp16
cnumpy.core.multiarray
scalar
p17
(g10
S'\xc3\xd9\x06\n\x8cQW@'
p18
tp19
Rp20
ag17
(g10
S'\x9b\xc9\xd5\xf6\xf8\xe8X@'
p21
tp22
Rp23
aa(lp24
g17
(g10
S'\x00\xa4$\xb1}M^?'
p25
tp26
Rp27
ag17
(g10
S'\xa0z\xb8X\xdec^?'
p28
tp29
Rp30
aa(lp31
g17
(g10
S'>\xc1\xa7I@x=@'
p32
tp33
Rp34
ag17
(g10
S'>\xc1\xa7I@x=@'
p35
tp36
Rp37
aa(lp38
g17
(g10
S'\xcbfF/\x02\xd7\xe0?'
p39
tp40
Rp41
ag17
(g10
S'C\n\xf7d\xd3\xd8\xe0?'
p42
tp43
Rp44
aatp45
.