(cnumpy.core.multiarray
_reconstruct
p0
(cnumpy
ndarray
p1
(I0
tp2
S'b'
p3
tp4
Rp5
(I1
(I4
tp6
cnumpy
dtype
p7
(S'f8'
p8
I0
I1
tp9
Rp10
(I3
S'<'
p11
NNNI-1
I-1
I0
tp12
bI00
S';\xe7&\xa8\xf3\x9eT@!mD+\xf7vn?Hp\x04\x89?<\xc3?\xb9}\xb1U\xed\x8e\xe0?'
p13
tp14
b(lp15
(lp16
cnumpy.core.multiarray
scalar
p17
(g10
S'\xc6\xdaj\xde\xdf5S@'
p18
tp19
Rp20
ag17
(g10
S'\xb0\xf3\xe2q\x07\x08V@'
p21
tp22
Rp23
aa(lp24
g17
(g10
S'T\xc5R\xc8aHh?'
p25
tp26
Rp27
ag17
(g10
S'w\n\x1bG\xc6Rr?'
p28
tp29
Rp30
aa(lp31
g17
(g10
S'$\x1dV\xe7?v\xba?'
p32
tp33
Rp34
ag17
(g10
S'\xfe\xd1]\x1e_=\xc9?'
p35
tp36
Rp37
aa(lp38
g17
(g10
S'>}O\xf9\x85\x8d\xe0?'
p39
tp40
Rp41
ag17
(g10
S'4~\x13\xb2T\x90\xe0?'
p42
tp43
Rp44
aatp45
.