(cnumpy.core.multiarray
_reconstruct
p0
(cnumpy
ndarray
p1
(I0
tp2
S'b'
p3
tp4
Rp5
(I1
(I4
tp6
cnumpy
dtype
p7
(S'f8'
p8
I0
I1
tp9
Rp10
(I3
S'<'
p11
NNNI-1
I-1
I0
tp12
bI00
S'\x96~E\x17ULP@oxF\x07\x80\xaey?\x96\x9c\xf2W~\xb5\xb2?\x00q>9\x04\xa0\xe0?'
p13
tp14
b(lp15
(lp16
cnumpy.core.multiarray
scalar
p17
(g10
S'\xc9\x0c5f\x0erN@'
p18
tp19
Rp20
ag17
(g10
S'\xc8vp\xfb\xa2_Q@'
p21
tp22
Rp23
aa(lp24
g17
(g10
S'\xfd\x81(v\xcb\x92u?'
p25
tp26
Rp27
ag17
(g10
S'\xe1nd\x984\xca}?'
p28
tp29
Rp30
aa(lp31
g17
(g10
S'j\x7f4\x13o\xac\xab?'
p32
tp33
Rp34
ag17
(g10
S'w\xf9J&\xc5\x94\xb7?'
p35
tp36
Rp37
aa(lp38
g17
(g10
S'\x08xH)\xea\x9e\xe0?'
p39
tp40
Rp41
ag17
(g10
S'\xf8i4I\x1e\xa1\xe0?'
p42
tp43
Rp44
aatp45
.