(cnumpy.core.multiarray
_reconstruct
p0
(cnumpy
ndarray
p1
(I0
tp2
S'b'
p3
tp4
Rp5
(I1
(I4
tp6
cnumpy
dtype
p7
(S'f8'
p8
I0
I1
tp9
Rp10
(I3
S'<'
p11
NNNI-1
I-1
I0
tp12
bI00
S'\x84nO\xe6\xdc\x7fP@g%`\xbbjV\x87?@2LaR\x17)@\x93\x07J\xc0\x10\xa2\xe0?'
p13
tp14
b(lp15
(lp16
cnumpy.core.multiarray
scalar
p17
(g10
S' \xcd\x8ah\x0b\xf8M@'
p18
tp19
Rp20
ag17
(g10
S'xvY\x18\xb4\x03R@'
p21
tp22
Rp23
aa(lp24
g17
(g10
S'\x8e\xf4\xf2.\x03\xa4\x82?'
p25
tp26
Rp27
ag17
(g10
S'@V\xcdG\xd2\x08\x8c?'
p28
tp29
Rp30
aa(lp31
g17
(g10
S'J)LaR\x17)@'
p32
tp33
Rp34
ag17
(g10
S'6;LaR\x17)@'
p35
tp36
Rp37
aa(lp38
g17
(g10
S'\x80\x0b\xf9L\x1a\xa1\xe0?'
p39
tp40
Rp41
ag17
(g10
S'\xa6\x03\x9b3\x07\xa3\xe0?'
p42
tp43
Rp44
aatp45
.