(cnumpy.core.multiarray
_reconstruct
p0
(cnumpy
ndarray
p1
(I0
tp2
S'b'
p3
tp4
Rp5
(I1
(I4
tp6
cnumpy
dtype
p7
(S'f8'
p8
I0
I1
tp9
Rp10
(I3
S'<'
p11
NNNI-1
I-1
I0
tp12
bI00
S'\xe1)*;#\x95S@yP\x13U_1n?a#\xab\xdef/\xc6?"\xf0>\r\xde\xc6\xe0?'
p13
tp14
b(lp15
(lp16
cnumpy.core.multiarray
scalar
p17
(g10
S'\x82\xd5g\xc0\x00+R@'
p18
tp19
Rp20
ag17
(g10
S'@~\xec\xb5E\xffT@'
p21
tp22
Rp23
aa(lp24
g17
(g10
S'L*E\xaf\xb0\xaag?'
p25
tp26
Rp27
ag17
(g10
S'S\xbbp\xfd\x06\\r?'
p28
tp29
Rp30
aa(lp31
g17
(g10
S'\x99&\xc8\x97o\xb2\xbc?'
p32
tp33
Rp34
ag17
(g10
S'v3r\xf1\x95\x05\xce?'
p35
tp36
Rp37
aa(lp38
g17
(g10
S'\xcbm\xce\x8bO\xc5\xe0?'
p39
tp40
Rp41
ag17
(g10
S'yr\xaf\x8el\xc8\xe0?'
p42
tp43
Rp44
aatp45
.