(cnumpy.core.multiarray
_reconstruct
p0
(cnumpy
ndarray
p1
(I0
tp2
S'b'
p3
tp4
Rp5
(I1
(I4
tp6
cnumpy
dtype
p7
(S'f8'
p8
I0
I1
tp9
Rp10
(I3
S'<'
p11
NNNI-1
I-1
I0
tp12
bI00
S'\xaf\x94\x13\xf5*\xf8R@n[$\x0e\x02hq?\xb2r\xf7\xf3Z*2@\xd7\x83\x92\x10\xe0\xb0\xe0?'
p13
tp14
b(lp15
(lp16
cnumpy.core.multiarray
scalar
p17
(g10
S'\xfeqB\x83j\x9eQ@'
p18
tp19
Rp20
ag17
(g10
S'`\xb7\xe4f\xebQT@'
p21
tp22
Rp23
aa(lp24
g17
(g10
S'\xde\x13H\tT`k?'
p25
tp26
Rp27
ag17
(g10
S'\xed\xac\xa4\x17\xda\x1fu?'
p28
tp29
Rp30
aa(lp31
g17
(g10
S'\xb2r\xf7\xf3Z*2@'
p32
tp33
Rp34
ag17
(g10
S'\xb2r\xf7\xf3Z*2@'
p35
tp36
Rp37
aa(lp38
g17
(g10
S's[Z|c\xaf\xe0?'
p39
tp40
Rp41
ag17
(g10
S';\xac\xca\xa4\\\xb2\xe0?'
p42
tp43
Rp44
aatp45
.