(cnumpy.core.multiarray
_reconstruct
p0
(cnumpy
ndarray
p1
(I0
tp2
S'b'
p3
tp4
Rp5
(I1
(I4
tp6
cnumpy
dtype
p7
(S'f8'
p8
I0
I1
tp9
Rp10
(I3
S'<'
p11
NNNI-1
I-1
I0
tp12
bI00
S'\x05\xdfF\xae\x98\xc5S@\x858\x1f\x8dlRw?\xa5\x0e\x0b$\x92H\xd8?o\x82p0U\xcd\xe0?'
p13
tp14
b(lp15
(lp16
cnumpy.core.multiarray
scalar
p17
(g10
S'\xeb\r%] \x11R@'
p18
tp19
Rp20
ag17
(g10
S'\x1f\xb0h\xff\x10zU@'
p21
tp22
Rp23
aa(lp24
g17
(g10
S'i\x05\xf6\xf3\x8d\tr?'
p25
tp26
Rp27
ag17
(g10
S'\xa1kH&K\x9b|?'
p28
tp29
Rp30
aa(lp31
g17
(g10
S'\\1v\xe5\xa0\xa8\xbe?'
p32
tp33
Rp34
ag17
(g10
S'zH\\\x07~s\xe4?'
p35
tp36
Rp37
aa(lp38
g17
(g10
S'3\xb0;\xf4\x07\xcc\xe0?'
p39
tp40
Rp41
ag17
(g10
S'\xabT\xa5l\xa2\xce\xe0?'
p42
tp43
Rp44
aatp45
.