(cnumpy.core.multiarray
_reconstruct
p0
(cnumpy
ndarray
p1
(I0
tp2
S'b'
p3
tp4
Rp5
(I1
(I4
tp6
cnumpy
dtype
p7
(S'f8'
p8
I0
I1
tp9
Rp10
(I3
S'<'
p11
NNNI-1
I-1
I0
tp12
bI00
S'<\xc8\xa1\xa7[vU@1\xb2\x99\xc7\xa8\xb3j?\x18v\xc986EC@\xd0{C\xd4\x97\xa5\xe0?'
p13
tp14
b(lp15
(lp16
cnumpy.core.multiarray
scalar
p17
(g10
S'N\x86 Kg\xdaS@'
p18
tp19
Rp20
ag17
(g10
S'*\n#\x04P\x12W@'
p21
tp22
Rp23
aa(lp24
g17
(g10
S'h8\xd1\xa5N\rd?'
p25
tp26
Rp27
ag17
(g10
S'\xfd\x15\xb1t\x01\xadp?'
p28
tp29
Rp30
aa(lp31
g17
(g10
S'\x80l\xc986EC@'
p32
tp33
Rp34
ag17
(g10
S'\xb0\x7f\xc986EC@'
p35
tp36
Rp37
aa(lp38
g17
(g10
S'\xf2\xb8Q1\xda\xa3\xe0?'
p39
tp40
Rp41
ag17
(g10
S'\xae>5wU\xa7\xe0?'
p42
tp43
Rp44
aatp45
.