(cnumpy.core.multiarray
_reconstruct
p0
(cnumpy
ndarray
p1
(I0
tp2
S'b'
p3
tp4
Rp5
(I1
(I4
tp6
cnumpy
dtype
p7
(S'f8'
p8
I0
I1
tp9
Rp10
(I3
S'<'
p11
NNNI-1
I-1
I0
tp12
bI00
S'WO\xcb\x81\xa4\x0cS@<b\x069T\xb6u?\x82\xbaZ-+q=@\xb1m\xb2H\xb0\x8e\xe0?'
p13
tp14
b(lp15
(lp16
cnumpy.core.multiarray
scalar
p17
(g10
S'\x7f\xe6\x18Y\xfb\x88Q@'
p18
tp19
Rp20
ag17
(g10
S'/\xb8}\xaaM\x90T@'
p21
tp22
Rp23
aa(lp24
g17
(g10
S'\\&\xfb\xc9\x06\xedp?'
p25
tp26
Rp27
ag17
(g10
S'\x1c\x9e\x11\xa8\xa1\x7fz?'
p28
tp29
Rp30
aa(lp31
g17
(g10
S'\r\xb2Z-+q=@'
p32
tp33
Rp34
ag17
(g10
S'\xf7\xc2Z-+q=@'
p35
tp36
Rp37
aa(lp38
g17
(g10
S'\x87s\x1c\x88N\x8d\xe0?'
p39
tp40
Rp41
ag17
(g10
S'\xdbgH\t\x12\x90\xe0?'
p42
tp43
Rp44
aatp45
.