(cnumpy.core.multiarray
_reconstruct
p0
(cnumpy
ndarray
p1
(I0
tp2
S'b'
p3
tp4
Rp5
(I1
(I4
tp6
cnumpy
dtype
p7
(S'f8'
p8
I0
I1
tp9
Rp10
(I3
S'<'
p11
NNNI-1
I-1
I0
tp12
bI00
S'T-AkY\xdcV@%a\xfa\xc8z\x11\x95?\xec\x9eU\xe5#\x91+@\x9aW\x02\xe9\xbf@\xe1?'
p13
tp14
b(lp15
(lp16
cnumpy.core.multiarray
scalar
p17
(g10
S'.`ZD%bP@'
p18
tp19
Rp20
ag17
(g10
S"z\xfa'\x92\x8dV]@"
p21
tp22
Rp23
aa(lp24
g17
(g10
S'\x08\x817C\x07\x1a~?'
p25
tp26
Rp27
ag17
(g10
S'\x04q\x93\xe09N\xa1?'
p28
tp29
Rp30
aa(lp31
g17
(g10
S'\xec\x9eU\xe5#\x91+@'
p32
tp33
Rp34
ag17
(g10
S'\xec\x9eU\xe5#\x91+@'
p35
tp36
Rp37
aa(lp38
g17
(g10
S'\x96\xd8\tQR>\xe1?'
p39
tp40
Rp41
ag17
(g10
S'\x9e\xd6\xfa\x80-C\xe1?'
p42
tp43
Rp44
aatp45
.