(cnumpy.core.multiarray
_reconstruct
p0
(cnumpy
ndarray
p1
(I0
tp2
S'b'
p3
tp4
Rp5
(I1
(I4
tp6
cnumpy
dtype
p7
(S'f8'
p8
I0
I1
tp9
Rp10
(I3
S'<'
p11
NNNI-1
I-1
I0
tp12
bI00
S'\xd9\x89\xb2\xa3\xe1\xc6`@\x802Z\x98l\ru?D\x1b*.\x1fO\xec?\xe0jfm@\xe2\xe0?'
p13
tp14
b(lp15
(lp16
cnumpy.core.multiarray
scalar
p17
(g10
S'\xee\xfdQi\xda\x8cZ@'
p18
tp19
Rp20
ag17
(g10
S'\xbb\x14\xbc\x12VGd@'
p21
tp22
Rp23
aa(lp24
g17
(g10
S'ZB\x1e\x91g\xe7V?'
p25
tp26
Rp27
ag17
(g10
S'5j6\xa6\x7f0\x82?'
p28
tp29
Rp30
aa(lp31
g17
(g10
S'\x84\x9643\xef\xc3\xe0\xbf'
p32
tp33
Rp34
ag17
(g10
S'C3\xe2c\x8bX\x02@'
p35
tp36
Rp37
aa(lp38
g17
(g10
S'\x84^cf\xd3\xde\xe0?'
p39
tp40
Rp41
ag17
(g10
S'<wit\xad\xe5\xe0?'
p42
tp43
Rp44
aatp45
.