(cnumpy.core.multiarray
_reconstruct
p0
(cnumpy
ndarray
p1
(I0
tp2
S'b'
p3
tp4
Rp5
(I1
(I4
tp6
cnumpy
dtype
p7
(S'f8'
p8
I0
I1
tp9
Rp10
(I3
S'<'
p11
NNNI-1
I-1
I0
tp12
bI00
S'\x86\x16c\xf6Y\xf6Z@F\xf9m\xb53r\x89?\\Z0\xdd\xb1v,@\xaf\x15\x9c\xf4\xd2\x16\xe1?'
p13
tp14
b(lp15
(lp16
cnumpy.core.multiarray
scalar
p17
(g10
S'?\xec\xc9\x19\x8dBT@'
p18
tp19
Rp20
ag17
(g10
S'f ~i\x13\xd5`@'
p21
tp22
Rp23
aa(lp24
g17
(g10
S"\xc6\x1b=\xf5'\x91q?"
p25
tp26
Rp27
ag17
(g10
S'T\xb2\x1e\xb8\xe9\r\x95?'
p28
tp29
Rp30
aa(lp31
g17
(g10
S'\\Z0\xdd\xb1v,@'
p32
tp33
Rp34
ag17
(g10
S'\\Z0\xdd\xb1v,@'
p35
tp36
Rp37
aa(lp38
g17
(g10
S'\xc9\xae\xe5~&\x14\xe1?'
p39
tp40
Rp41
ag17
(g10
S'\x95|Rj\x7f\x19\xe1?'
p42
tp43
Rp44
aatp45
.