(cnumpy.core.multiarray
_reconstruct
p0
(cnumpy
ndarray
p1
(I0
tp2
S'b'
p3
tp4
Rp5
(I1
(I4
tp6
cnumpy
dtype
p7
(S'f8'
p8
I0
I1
tp9
Rp10
(I3
S'<'
p11
NNNI-1
I-1
I0
tp12
bI00
S'\xf6\x07\x13g\x82Q\xfd?\x879\x8fy\xe3\x0e\x00@mt\x86\x17rH,@q\xb938\xb4@\xe1?'
p13
tp14
b(lp15
(lp16
cnumpy.core.multiarray
scalar
p17
(g10
S'Q\xf4\x10+\x97z0\xc0'
p18
tp19
Rp20
ag17
(g10
S'OU\xf3w\xc7$4@'
p21
tp22
Rp23
aa(lp24
g17
(g10
S'l\x1c\x15^\x0bj\x13\xc0'
p25
tp26
Rp27
ag17
(g10
S'\xf9*\xd2kw\xbc!@'
p28
tp29
Rp30
aa(lp31
g17
(g10
S'mt\x86\x17rH,@'
p32
tp33
Rp34
ag17
(g10
S'mt\x86\x17rH,@'
p35
tp36
Rp37
aa(lp38
g17
(g10
S'z\xbf\xcfo\x12?\xe1?'
p39
tp40
Rp41
ag17
(g10
S'h\xb3\x97\x00VB\xe1?'
p42
tp43
Rp44
aatp45
.