(cnumpy.core.multiarray
_reconstruct
p0
(cnumpy
ndarray
p1
(I0
tp2
S'b'
p3
tp4
Rp5
(I1
(I4
tp6
cnumpy
dtype
p7
(S'f8'
p8
I0
I1
tp9
Rp10
(I3
S'<'
p11
NNNI-1
I-1
I0
tp12
bI00
S'\x96\xb4!\x0f\x9b\xbfb@\r\x17\x9a\xf5v@r?P|`CwW7@\xea\t/\x0b\xe2\xf7\xe0?'
p13
tp14
b(lp15
(lp16
cnumpy.core.multiarray
scalar
p17
(g10
S'\xa6s:\x0bv\xc1]@'
p18
tp19
Rp20
ag17
(g10
S'Y/\xa6\x18{\x9ef@'
p21
tp22
Rp23
aa(lp24
g17
(g10
S'\xe4w^\x9d$\xa4P?'
p25
tp26
Rp27
ag17
(g10
S'\x10H\xeea\xf2+\x80?'
p28
tp29
Rp30
aa(lp31
g17
(g10
S'P|`CwW7@'
p32
tp33
Rp34
ag17
(g10
S'P|`CwW7@'
p35
tp36
Rp37
aa(lp38
g17
(g10
S'v\xd6K`t\xf4\xe0?'
p39
tp40
Rp41
ag17
(g10
S'^=\x12\xb6O\xfb\xe0?'
p42
tp43
Rp44
aatp45
.