(cnumpy.core.multiarray
_reconstruct
p0
(cnumpy
ndarray
p1
(I0
tp2
S'b'
p3
tp4
Rp5
(I1
(I4
tp6
cnumpy
dtype
p7
(S'f8'
p8
I0
I1
tp9
Rp10
(I3
S'<'
p11
NNNI-1
I-1
I0
tp12
bI00
S'\x17\xf9X=\xeeRR@\x04\x97\x10\xefo\xf6t?\x89\x9bQ\xe9\xc5gg?;2qcv\x9d\xe0?'
p13
tp14
b(lp15
(lp16
cnumpy.core.multiarray
scalar
p17
(g10
S'\xa2i\xb6^\xad\x93Q@'
p18
tp19
Rp20
ag17
(g10
S'\x8c\x88\xfb\x1b/\x12S@'
p21
tp22
Rp23
aa(lp24
g17
(g10
S'\xd0\x06*r\x93\x01s?'
p25
tp26
Rp27
ag17
(g10
S"8'\xf7kL\xebv?"
p28
tp29
Rp30
aa(lp31
g17
(g10
S'\x00`!\xf6\x04M\x02?'
p32
tp33
Rp34
ag17
(g10
S'\xc9Xe\xdf+Cw?'
p35
tp36
Rp37
aa(lp38
g17
(g10
S'\xce\x90kW\xc1\x9c\xe0?'
p39
tp40
Rp41
ag17
(g10
S'\xa8\xd3vo+\x9e\xe0?'
p42
tp43
Rp44
aatp45
.