(cnumpy.core.multiarray
_reconstruct
p0
(cnumpy
ndarray
p1
(I0
tp2
S'b'
p3
tp4
Rp5
(I1
(I4
tp6
cnumpy
dtype
p7
(S'f8'
p8
I0
I1
tp9
Rp10
(I3
S'<'
p11
NNNI-1
I-1
I0
tp12
bI00
S'\xaf=\x06M\x8b,S@i\xf3\xb8J\xeapu?\x00\x00\x00\xea\xa2v\xf1<yquD\x9a\x88\xe0?'
p13
tp14
b(lp15
(lp16
cnumpy.core.multiarray
scalar
p17
(g10
S'Y\xf7\x0fR9^R@'
p18
tp19
Rp20
ag17
(g10
S'\x05\x84\xfcG\xdd\xfaS@'
p21
tp22
Rp23
aa(lp24
g17
(g10
S'\x95\npKfVs?'
p25
tp26
Rp27
ag17
(g10
S'=\xdc\x01Jn\x8bw?'
p28
tp29
Rp30
aa(lp31
g17
(g10
S'\xe5\x1b\xe2\xee\x83Hf\xbf'
p32
tp33
Rp34
ag17
(g10
S'\xbfa\xe2\xee\x83Hf?'
p35
tp36
Rp37
aa(lp38
g17
(g10
S'esz\xb9\xd8\x87\xe0?'
p39
tp40
Rp41
ag17
(g10
S'\x8dop\xcf[\x89\xe0?'
p42
tp43
Rp44
aatp45
.