(cnumpy.core.multiarray
_reconstruct
p0
(cnumpy
ndarray
p1
(I0
tp2
S'b'
p3
tp4
Rp5
(I1
(I4
tp6
cnumpy
dtype
p7
(S'f8'
p8
I0
I1
tp9
Rp10
(I3
S'<'
p11
NNNI-1
I-1
I0
tp12
bI00
S'U\xc9\xec#\xafPS@\xe8e\xe9<\xa8\xe5v?*\x93\xbepw\xc03@V~\xe3\x19B\x9b\xe0?'
p13
tp14
b(lp15
(lp16
cnumpy.core.multiarray
scalar
p17
(g10
S'\xef\xdf\x8bC\xce4R@'
p18
tp19
Rp20
ag17
(g10
S'\xbb\xb2M\x04\x90lT@'
p21
tp22
Rp23
aa(lp24
g17
(g10
S'\x14\xe2dm5Qs?'
p25
tp26
Rp27
ag17
(g10
S'\xbc\xe9m\x0c\x1bzz?'
p28
tp29
Rp30
aa(lp31
g17
(g10
S'*\x93\xbepw\xc03@'
p32
tp33
Rp34
ag17
(g10
S'*\x93\xbepw\xc03@'
p35
tp36
Rp37
aa(lp38
g17
(g10
S'\x1e\xa8\x19\xfcQ\x9a\xe0?'
p39
tp40
Rp41
ag17
(g10
S'\x8eT\xad72\x9c\xe0?'
p42
tp43
Rp44
aatp45
.