(cnumpy.core.multiarray
_reconstruct
p0
(cnumpy
ndarray
p1
(I0
tp2
S'b'
p3
tp4
Rp5
(I1
(I4
tp6
cnumpy
dtype
p7
(S'f8'
p8
I0
I1
tp9
Rp10
(I3
S'<'
p11
NNNI-1
I-1
I0
tp12
bI00
S'\xb9\xcc\xd5\xdf\xb7\xf9S@x3C[5\xd2q?wa##OS2@\x95\xb2\xa88\xeb\x9d\xe0?'
p13
tp14
b(lp15
(lp16
cnumpy.core.multiarray
scalar
p17
(g10
S'1\x83P\x12\xc1\xe6R@'
p18
tp19
Rp20
ag17
(g10
S'A\x16[\xad\xae\x0cU@'
p21
tp22
Rp23
aa(lp24
g17
(g10
S'@\xd46\x94\xdf\xf0m?'
p25
tp26
Rp27
ag17
(g10
S'\xd0\xfcj\xec\xfa\xabt?'
p28
tp29
Rp30
aa(lp31
g17
(g10
S'S[##OS2@'
p32
tp33
Rp34
ag17
(g10
S'\x9bg##OS2@'
p35
tp36
Rp37
aa(lp38
g17
(g10
S'\xce#r[\xde\x9c\xe0?'
p39
tp40
Rp41
ag17
(g10
S'\\A\xdf\x15\xf8\x9e\xe0?'
p42
tp43
Rp44
aatp45
.