(cnumpy.core.multiarray
_reconstruct
p0
(cnumpy
ndarray
p1
(I0
tp2
S'b'
p3
tp4
Rp5
(I1
(I4
tp6
cnumpy
dtype
p7
(S'f8'
p8
I0
I1
tp9
Rp10
(I3
S'<'
p11
NNNI-1
I-1
I0
tp12
bI00
S'\x91\xca\x08\xaf)WX@?T\x995"\x9e\\?\x00M\x7f\x96~g2@\xaa|C(\x07\xb4\xe0?'
p13
tp14
b(lp15
(lp16
cnumpy.core.multiarray
scalar
p17
(g10
S'\\\xdd\x1az"\x15W@'
p18
tp19
Rp20
ag17
(g10
S'\xc6\xb7\xf6\xe30\x99Y@'
p21
tp22
Rp23
aa(lp24
g17
(g10
S'>\x8cw\xcc\x9b1V?'
p25
tp26
Rp27
ag17
(g10
S' \x8e]OT\x85a?'
p28
tp29
Rp30
aa(lp31
g17
(g10
S'\x00M\x7f\x96~g2@'
p32
tp33
Rp34
ag17
(g10
S'\x00M\x7f\x96~g2@'
p35
tp36
Rp37
aa(lp38
g17
(g10
S'\xdd\xfd3\xad:\xb2\xe0?'
p39
tp40
Rp41
ag17
(g10
S'w\xfbR\xa3\xd3\xb5\xe0?'
p42
tp43
Rp44
aatp45
.