(cnumpy.core.multiarray
_reconstruct
p0
(cnumpy
ndarray
p1
(I0
tp2
S'b'
p3
tp4
Rp5
(I1
(I4
tp6
cnumpy
dtype
p7
(S'f8'
p8
I0
I1
tp9
Rp10
(I3
S'<'
p11
NNNI-1
I-1
I0
tp12
bI00
S'\xf5\xb3\xb4\xd9\xb4\xdcQ@1\x19f\x02\x96\xc7|?slzGBO3@\x9c\xe1\x8d\xfc\x02\xa9\xe0?'
p13
tp14
b(lp15
(lp16
cnumpy.core.multiarray
scalar
p17
(g10
S'yY0\r\xa7\xd3P@'
p18
tp19
Rp20
ag17
(g10
S'q\x0e9\xa6\xc2\xe5R@'
p21
tp22
Rp23
aa(lp24
g17
(g10
S'\x19L\xf4)\xb3\x90x?'
p25
tp26
Rp27
ag17
(g10
S'$\xf3km<\x7f\x80?'
p28
tp29
Rp30
aa(lp31
g17
(g10
S'slzGBO3@'
p32
tp33
Rp34
ag17
(g10
S'slzGBO3@'
p35
tp36
Rp37
aa(lp38
g17
(g10
S'\xd4\xf7_\xaf+\xa8\xe0?'
p39
tp40
Rp41
ag17
(g10
S'd\xcb\xbbI\xda\xa9\xe0?'
p42
tp43
Rp44
aatp45
.