(cnumpy.core.multiarray
_reconstruct
p0
(cnumpy
ndarray
p1
(I0
tp2
S'b'
p3
tp4
Rp5
(I1
(I4
tp6
cnumpy
dtype
p7
(S'f8'
p8
I0
I1
tp9
Rp10
(I3
S'<'
p11
NNNI-1
I-1
I0
tp12
bI00
S'"W\xb1E\x06yQ@?1\x99\x07\xaa\x8b\x80?~\xb9s\x00/\xd0\xe2?\x90\xbe\x1e0\xb4\xba\xe0?'
p13
tp14
b(lp15
(lp16
cnumpy.core.multiarray
scalar
p17
(g10
S'\x1bh\x83Y&jP@'
p18
tp19
Rp20
ag17
(g10
S')F\xdf1\xe6\x87R@'
p21
tp22
Rp23
aa(lp24
g17
(g10
S'dS"~-V|?'
p25
tp26
Rp27
ag17
(g10
S'\xcc8!P=\xec\x82?'
p28
tp29
Rp30
aa(lp31
g17
(g10
S'\xdc>\xdb\x16\x0f1\xca?'
p32
tp33
Rp34
ag17
(g10
S'E\xa30;\x1a\x14\xef?'
p35
tp36
Rp37
aa(lp38
g17
(g10
S'\x11\x1dZl\xec\xb9\xe0?'
p39
tp40
Rp41
ag17
(g10
S'\x0f`\xe3\xf3{\xbb\xe0?'
p42
tp43
Rp44
aatp45
.