(cnumpy.core.multiarray
_reconstruct
p0
(cnumpy
ndarray
p1
(I0
tp2
S'b'
p3
tp4
Rp5
(I1
(I4
tp6
cnumpy
dtype
p7
(S'f8'
p8
I0
I1
tp9
Rp10
(I3
S'<'
p11
NNNI-1
I-1
I0
tp12
bI00
S'dj$\x1f\x85SS@\x8cm\x84wK\xcft?\xecaq\xc8WRq?\x0fn`{0\xa6\xe0?'
p13
tp14
b(lp15
(lp16
cnumpy.core.multiarray
scalar
p17
(g10
S'\xf1\x8c\xf6\xef\x9fyR@'
p18
tp19
Rp20
ag17
(g10
S'\xd7GRNj-T@'
p21
tp22
Rp23
aa(lp24
g17
(g10
S'[K\x8f\xd2\x19\xb2r?'
p25
tp26
Rp27
ag17
(g10
S'\xbd\x8fy\x1c}\xecv?'
p28
tp29
Rp30
aa(lp31
g17
(g10
S"\x10\x82!h'\xb7Q?"
p32
tp33
Rp34
ag17
(g10
S'Tc\xda\xb6\xe56~?'
p35
tp36
Rp37
aa(lp38
g17
(g10
S'\xe4\x02\x03\xacv\xa5\xe0?'
p39
tp40
Rp41
ag17
(g10
S':\xd9\xbdJ\xea\xa6\xe0?'
p42
tp43
Rp44
aatp45
.