(cnumpy.core.multiarray
_reconstruct
p0
(cnumpy
ndarray
p1
(I0
tp2
S'b'
p3
tp4
Rp5
(I1
(I4
tp6
cnumpy
dtype
p7
(S'f8'
p8
I0
I1
tp9
Rp10
(I3
S'<'
p11
NNNI-1
I-1
I0
tp12
bI00
S'\x1e)\xa5\\\x8f\x86c@\x17fz\x96k\xda\\?f\xde\x01\x15,\x91\x1a@Wamn/\xdc\xe0?'
p13
tp14
b(lp15
(lp16
cnumpy.core.multiarray
scalar
p17
(g10
S'\xc0\xa9++\x85\xc7_@'
p18
tp19
Rp20
ag17
(g10
S'\\}\xb4#\\)g@'
p21
tp22
Rp23
aa(lp24
g17
(g10
S'\x10hGI\x19E\x1c?'
p25
tp26
Rp27
ag17
(g10
S'\xd6*0\xccB\xf8k?'
p28
tp29
Rp30
aa(lp31
g17
(g10
S'\xac\x00$",O\x8a\xc0'
p32
tp33
Rp34
ag17
(g10
S'&\x08x\xd2p\xb9\x8a@'
p35
tp36
Rp37
aa(lp38
g17
(g10
S'4\xb0\xf4\xed \xd7\xe0?'
p39
tp40
Rp41
ag17
(g10
S'z\x12\xe6\xee=\xe1\xe0?'
p42
tp43
Rp44
aatp45
.