(cnumpy.core.multiarray
_reconstruct
p0
(cnumpy
ndarray
p1
(I0
tp2
S'b'
p3
tp4
Rp5
(I1
(I4
tp6
cnumpy
dtype
p7
(S'f8'
p8
I0
I1
tp9
Rp10
(I3
S'<'
p11
NNNI-1
I-1
I0
tp12
bI00
S'\xea\x8c\xd98\xe6\x13i@*\xd3lHQ\xdf\x1c?\xbe\x7f7\x14P\x0c\x00@/\xado\x95l4\xe1?'
p13
tp14
b(lp15
(lp16
cnumpy.core.multiarray
scalar
p17
(g10
S'M\xf6\x85*\xff\xdcb@'
p18
tp19
Rp20
ag17
(g10
S'\x87#-G\xcdJo@'
p21
tp22
Rp23
aa(lp24
g17
(g10
S'g\xff \xbd\x03\xb4C\xbf'
p25
tp26
Rp27
ag17
(g10
S'14<\x0f\xd8\xebJ?'
p28
tp29
Rp30
aa(lp31
g17
(g10
S'$Oz\xa6\xd7h@\xc0'
p32
tp33
Rp34
ag17
(g10
S'\x1c?\x01\xa9ajB@'
p35
tp36
Rp37
aa(lp38
g17
(g10
S'&\xe1\xdb\xd1=\x02\xe1?'
p39
tp40
Rp41
ag17
(g10
S'8y\x03Y\x9bf\xe1?'
p42
tp43
Rp44
aatp45
.