(cnumpy.core.multiarray
_reconstruct
p0
(cnumpy
ndarray
p1
(I0
tp2
S'b'
p3
tp4
Rp5
(I1
(I4
tp6
cnumpy
dtype
p7
(S'f8'
p8
I0
I1
tp9
Rp10
(I3
S'<'
p11
NNNI-1
I-1
I0
tp12
bI00
S' z\x05O\xde\x96d@\xb7\x9f\xea\x02_\rb?C\xe6\xddil62@\xb2\xf2\xaa\x99e\xed\xe0?'
p13
tp14
b(lp15
(lp16
cnumpy.core.multiarray
scalar
p17
(g10
S'yP\xd3V\x1d8a@'
p18
tp19
Rp20
ag17
(g10
S'\xc7\xa37G\x9f\xf5g@'
p21
tp22
Rp23
aa(lp24
g17
(g10
S'\x8a\x9et\xcf\xb9\x8dB?'
p25
tp26
Rp27
ag17
(g10
S'\xcc\x17\xf8\x91Owo?'
p28
tp29
Rp30
aa(lp31
g17
(g10
S'Nl\xddil62@'
p32
tp33
Rp34
ag17
(g10
S'8`\xdeil62@'
p35
tp36
Rp37
aa(lp38
g17
(g10
S'\xeb\x1e\xd4\x02\xec\xe9\xe0?'
p39
tp40
Rp41
ag17
(g10
S'y\xc6\x810\xdf\xf0\xe0?'
p42
tp43
Rp44
aatp45
.