(cnumpy.core.multiarray
_reconstruct
p0
(cnumpy
ndarray
p1
(I0
tp2
S'b'
p3
tp4
Rp5
(I1
(I4
tp6
cnumpy
dtype
p7
(S'f8'
p8
I0
I1
tp9
Rp10
(I3
S'<'
p11
NNNI-1
I-1
I0
tp12
bI00
S'\xe5\xe4\x9e"\x01ie@5\xc3\xad\x1b\xe5E]?\x03\xdd\xc6:\x99d+@\'MK\x84\x8e\x9a\xe0?'
p13
tp14
b(lp15
(lp16
cnumpy.core.multiarray
scalar
p17
(g10
S'\xd3{J\x91\x8f\xaec@'
p18
tp19
Rp20
ag17
(g10
S'\xf7M\xf3\xb3r#g@'
p21
tp22
Rp23
aa(lp24
g17
(g10
S'),\xf3\xdbA/]?'
p25
tp26
Rp27
ag17
(g10
S'AZh[\x88\\]?'
p28
tp29
Rp30
aa(lp31
g17
(g10
S'\xff\xc1\xc3:\x99d+@'
p32
tp33
Rp34
ag17
(g10
S'\x07\xf8\xc9:\x99d+@'
p35
tp36
Rp37
aa(lp38
g17
(g10
S'\xdd*\x84f\x02\x99\xe0?'
p39
tp40
Rp41
ag17
(g10
S'qo\x12\xa2\x1a\x9c\xe0?'
p42
tp43
Rp44
aatp45
.