(cnumpy.core.multiarray
_reconstruct
p0
(cnumpy
ndarray
p1
(I0
tp2
S'b'
p3
tp4
Rp5
(I1
(I4
tp6
cnumpy
dtype
p7
(S'f8'
p8
I0
I1
tp9
Rp10
(I3
S'<'
p11
NNNI-1
I-1
I0
tp12
bI00
S"\x90}>\xa3U\x03e@\xc3~'\xd67\x0cP?2NHHU)\x11@=\xc6\xe4/&\xf0\xe0?"
p13
tp14
b(lp15
(lp16
cnumpy.core.multiarray
scalar
p17
(g10
S'\x14R,6y\x11a@'
p18
tp19
Rp20
ag17
(g10
S'\x0c\xa9P\x102\xf5h@'
p21
tp22
Rp23
aa(lp24
g17
(g10
S'h\xcfCi\x88\xbc1\xbf'
p25
tp26
Rp27
ag17
(g10
S'\xb0\xf8O\xe3\xc8Cb?'
p28
tp29
Rp30
aa(lp31
g17
(g10
S'\xff?\x9e.\x97Qd\xc0'
p32
tp33
Rp34
ag17
(g10
S'\xe3\xc4"\x83,de@'
p35
tp36
Rp37
aa(lp38
g17
(g10
S'Z\t\x987j\xe8\xe0?'
p39
tp40
Rp41
ag17
(g10
S' \x831(\xe2\xf7\xe0?'
p42
tp43
Rp44
aatp45
.