(cnumpy.core.multiarray
_reconstruct
p0
(cnumpy
ndarray
p1
(I0
tp2
S'b'
p3
tp4
Rp5
(I1
(I4
tp6
cnumpy
dtype
p7
(S'f8'
p8
I0
I1
tp9
Rp10
(I3
S'<'
p11
NNNI-1
I-1
I0
tp12
bI00
S'+\xf8\xd2\x16\x80ye@\x9aU\x98o8MG?!*\xe6>\xca:\xdb?\x02\\\x17hXT\xe1?'
p13
tp14
b(lp15
(lp16
cnumpy.core.multiarray
scalar
p17
(g10
S'<\xe3I\x08f9c@'
p18
tp19
Rp20
ag17
(g10
S'\x1a\r\\%\x9a\xb9g@'
p21
tp22
Rp23
aa(lp24
g17
(g10
S'\x9d\xc3a\xa1\t,C?'
p25
tp26
Rp27
ag17
(g10
S'\x97\xe7\xce=gnK?'
p28
tp29
Rp30
aa(lp31
g17
(g10
S'*,\xdbB\xc9d\xe3\xbf'
p32
tp33
Rp34
ag17
(g10
S'%\xab\xe0\xc0\xc9O\xf7?'
p35
tp36
Rp37
aa(lp38
g17
(g10
S'At\xc3\xb3\x94Q\xe1?'
p39
tp40
Rp41
ag17
(g10
S'\xc3Ck\x1c\x1cW\xe1?'
p42
tp43
Rp44
aatp45
.