(cnumpy.core.multiarray
_reconstruct
p0
(cnumpy
ndarray
p1
(I0
tp2
S'b'
p3
tp4
Rp5
(I1
(I4
tp6
cnumpy
dtype
p7
(S'f8'
p8
I0
I1
tp9
Rp10
(I3
S'<'
p11
NNNI-1
I-1
I0
tp12
bI00
S'X\xa22\xba%xc@02\rJ=\xa1c?\xb06\xa1K\xd7g\x0b@\xa2\x8aO2D\xdd\xe0?'
p13
tp14
b(lp15
(lp16
cnumpy.core.multiarray
scalar
p17
(g10
S'\xaeJo\xe3ov^@'
p18
tp19
Rp20
ag17
(g10
S'Y\x9f\xad\x82\x13\xb5g@'
p21
tp22
Rp23
aa(lp24
g17
(g10
S'\x80\xdc\x19ra\xec\x1e?'
p25
tp26
Rp27
ag17
(g10
S'\xbe\xcaD\xc4\x8b%s?'
p28
tp29
Rp30
aa(lp31
g17
(g10
S'\xde.&;\x7fuY\xc0'
p32
tp33
Rp34
ag17
(g10
S'HB\xe0\xaf\xfc+[@'
p35
tp36
Rp37
aa(lp38
g17
(g10
S'\x07\x89@\x19\xb3\xd8\xe0?'
p39
tp40
Rp41
ag17
(g10
S'=\x8c^K\xd5\xe1\xe0?'
p42
tp43
Rp44
aatp45
.