(cnumpy.core.multiarray
_reconstruct
p0
(cnumpy
ndarray
p1
(I0
tp2
S'b'
p3
tp4
Rp5
(I1
(I4
tp6
cnumpy
dtype
p7
(S'f8'
p8
I0
I1
tp9
Rp10
(I3
S'<'
p11
NNNI-1
I-1
I0
tp12
bI00
S'0\x11P\xd18\xb1_@0E:\xaaS\x13x?\xaa%\x0c2]\x7f.@\xf89n\xd2T\xeb\xe0?'
p13
tp14
b(lp15
(lp16
cnumpy.core.multiarray
scalar
p17
(g10
S'\x02\xd6\xbb\x90@\xa3X@'
p18
tp19
Rp20
ag17
(g10
S'/&\xf2\x88\x98_c@'
p21
tp22
Rp23
aa(lp24
g17
(g10
S'@\xc1\xa6\x9a}\xf0^?'
p25
tp26
Rp27
ag17
(g10
S'\x08m\xe5\xf6C5\x84?'
p28
tp29
Rp30
aa(lp31
g17
(g10
S'\xaa%\x0c2]\x7f.@'
p32
tp33
Rp34
ag17
(g10
S'\xaa%\x0c2]\x7f.@'
p35
tp36
Rp37
aa(lp38
g17
(g10
S'\xaf\xbdhP\x9d\xe8\xe0?'
p39
tp40
Rp41
ag17
(g10
S'A\xb6sT\x0c\xee\xe0?'
p42
tp43
Rp44
aatp45
.