(cnumpy.core.multiarray
_reconstruct
p0
(cnumpy
ndarray
p1
(I0
tp2
S'b'
p3
tp4
Rp5
(I1
(I4
tp6
cnumpy
dtype
p7
(S'f8'
p8
I0
I1
tp9
Rp10
(I3
S'<'
p11
NNNI-1
I-1
I0
tp12
bI00
S"\x87QIn5yk@\xc5~\xa2Z\xefF*?\x18\x02\xdc,f/\xb1?'\xfc#\xa6\x11\x07\xe1?"
p13
tp14
b(lp15
(lp16
cnumpy.core.multiarray
scalar
p17
(g10
S't\xdfA6";h@'
p18
tp19
Rp20
ag17
(g10
S'\x9a\xc3P\xa6H\xb7n@'
p21
tp22
Rp23
aa(lp24
g17
(g10
S'|*\xe2\x07\xf4\xe7(?'
p25
tp26
Rp27
ag17
(g10
S'\x0e\xd3b\xad\xea\xa5+?'
p28
tp29
Rp30
aa(lp31
g17
(g10
S'6Jtc\x15\xde\x99?'
p32
tp33
Rp34
ag17
(g10
S'\xa2\xf1\xda\x00G\xe7\xbb?'
p35
tp36
Rp37
aa(lp38
g17
(g10
S'\x00!k\xe3\xc0\x03\xe1?'
p39
tp40
Rp41
ag17
(g10
S'N\xd7\xdchb\n\xe1?'
p42
tp43
Rp44
aatp45
.