(cnumpy.core.multiarray
_reconstruct
p0
(cnumpy
ndarray
p1
(I0
tp2
S'b'
p3
tp4
Rp5
(I1
(I4
tp6
cnumpy
dtype
p7
(S'f8'
p8
I0
I1
tp9
Rp10
(I3
S'<'
p11
NNNI-1
I-1
I0
tp12
bI00
S'xQ\xd3\t\x03fk@\xe5J\xca1?ZK?J\xf9\xa16=m\xb3?Ol\xe27\xda\x00\xe1?'
p13
tp14
b(lp15
(lp16
cnumpy.core.multiarray
scalar
p17
(g10
S'\x12\x9f6)\xfc\xd4g@'
p18
tp19
Rp20
ag17
(g10
S'\xde\x03p\xea\t\xf7n@'
p21
tp22
Rp23
aa(lp24
g17
(g10
S'\xbe\x9c8}\xc42J?'
p25
tp26
Rp27
ag17
(g10
S'\x0c\xf9[\xe6\xb9\x81L?'
p28
tp29
Rp30
aa(lp31
g17
(g10
S'\x1a\xe4W\x05*X\x90?'
p32
tp33
Rp34
ag17
(g10
S'\xc7\xfc\xf6\xf57b\xc1?'
p35
tp36
Rp37
aa(lp38
g17
(g10
S'\x07r\xc82n\xfe\xe0?'
p39
tp40
Rp41
ag17
(g10
S'\x97f\xfc<F\x03\xe1?'
p42
tp43
Rp44
aatp45
.