(cnumpy.core.multiarray
_reconstruct
p0
(cnumpy
ndarray
p1
(I0
tp2
S'b'
p3
tp4
Rp5
(I1
(I4
tp6
cnumpy
dtype
p7
(S'f8'
p8
I0
I1
tp9
Rp10
(I3
S'<'
p11
NNNI-1
I-1
I0
tp12
bI00
S'O\x9dU\xfd*:a@\x96\xa5\xa9UTNl?\xda @*&\xbb\x1c@ R\xb2Vrb\xe0?'
p13
tp14
b(lp15
(lp16
cnumpy.core.multiarray
scalar
p17
(g10
S'&\x1cuj\xb1\xaa\\@'
p18
tp19
Rp20
ag17
(g10
S'\x8b\xacpE\xfd\x1ed@'
p21
tp22
Rp23
aa(lp24
g17
(g10
S'\xc4%O\x05p\x1eU?'
p25
tp26
Rp27
ag17
(g10
S'%\xdcUT\xb8\x06w?'
p28
tp29
Rp30
aa(lp31
g17
(g10
S'\xd2\xa9\x05~A\x15\x8d\xc0'
p32
tp33
Rp34
ag17
(g10
S'V\xaa\xae\x16.\x88\x8d@'
p35
tp36
Rp37
aa(lp38
g17
(g10
S'%3\xf7\xcck_\xe0?'
p39
tp40
Rp41
ag17
(g10
S'\x1bqm\xe0xe\xe0?'
p42
tp43
Rp44
aatp45
.