(cnumpy.core.multiarray
_reconstruct
p0
(cnumpy
ndarray
p1
(I0
tp2
S'b'
p3
tp4
Rp5
(I1
(I4
tp6
cnumpy
dtype
p7
(S'f8'
p8
I0
I1
tp9
Rp10
(I3
S'<'
p11
NNNI-1
I-1
I0
tp12
bI00
S'{\xf2Uq\xad*j@u\xec\xbdu<\xb54?\t\x92 \xc6\xf2F\xce?Y\xae\xda\x9f(\x88\xe0?'
p13
tp14
b(lp15
(lp16
cnumpy.core.multiarray
scalar
p17
(g10
S'\xe8JO\x82\x16)f@'
p18
tp19
Rp20
ag17
(g10
S'\x0e\x9a\\`D,n@'
p21
tp22
Rp23
aa(lp24
g17
(g10
S'i\t\xf7\x9a\xf6l3\xbf'
p25
tp26
Rp27
ag17
(g10
S'*q9\xc3\xb7kN?'
p28
tp29
Rp30
aa(lp31
g17
(g10
S'P\x11\x81\x87z\xaf\x84?'
p32
tp33
Rp34
ag17
(g10
S'~\x89\xe4\xf1v\xa1\xdd?'
p35
tp36
Rp37
aa(lp38
g17
(g10
S'\x1a\xf6=\xcaP{\xe0?'
p39
tp40
Rp41
ag17
(g10
S'\x98fwu\x00\x95\xe0?'
p42
tp43
Rp44
aatp45
.