(cnumpy.core.multiarray
_reconstruct
p0
(cnumpy
ndarray
p1
(I0
tp2
S'b'
p3
tp4
Rp5
(I1
(I4
tp6
cnumpy
dtype
p7
(S'f8'
p8
I0
I1
tp9
Rp10
(I3
S'<'
p11
NNNI-1
I-1
I0
tp12
bI00
S'b+s\x07\x06me@0kpW\xaf\x08:?p3\xc7\x90uFy6\x08\x94\xf5T\x05>\xe1?'
p13
tp14
b(lp15
(lp16
cnumpy.core.multiarray
scalar
p17
(g10
S'sm|\x00\xb8\xdbb@'
p18
tp19
Rp20
ag17
(g10
S'Q\xe9i\x0eT\xfeg@'
p21
tp22
Rp23
aa(lp24
g17
(g10
S'`L\xd2vF\x05\xf0>'
p25
tp26
Rp27
ag17
(g10
S'\xcd\xd8\xb9#\x85\x88I?'
p28
tp29
Rp30
aa(lp31
g17
(g10
S'\x0c\x14M\xc3\xb2ev\xbf'
p32
tp33
Rp34
ag17
(g10
S'\x0c\x14M\xc3\xb2ev?'
p35
tp36
Rp37
aa(lp38
g17
(g10
S'5\xc6MT_4\xe1?'
p39
tp40
Rp41
ag17
(g10
S'\xdba\x9dU\xabG\xe1?'
p42
tp43
Rp44
aatp45
.