(cnumpy.core.multiarray
_reconstruct
p0
(cnumpy
ndarray
p1
(I0
tp2
S'b'
p3
tp4
Rp5
(I1
(I4
tp6
cnumpy
dtype
p7
(S'f8'
p8
I0
I1
tp9
Rp10
(I3
S'<'
p11
NNNI-1
I-1
I0
tp12
bI00
S' M{?H\x9e`@\x033\xe2\xde\xbc<\x80?ZNk\xc7\xffr4@\x98,~\x8d\\\xdf\xe0?'
p13
tp14
b(lp15
(lp16
cnumpy.core.multiarray
scalar
p17
(g10
S'\xa9]l\xb02\xf1X@'
p18
tp19
Rp20
ag17
(g10
S'lk\xc0&\xf7\xc3d@'
p21
tp22
Rp23
aa(lp24
g17
(g10
S'\x98\x89\x94+\xc0Fd?'
p25
tp26
Rp27
ag17
(g10
S'\xa0C\xdf\xb2\xc9g\x8b?'
p28
tp29
Rp30
aa(lp31
g17
(g10
S'ZNk\xc7\xffr4@'
p32
tp33
Rp34
ag17
(g10
S'ZNk\xc7\xffr4@'
p35
tp36
Rp37
aa(lp38
g17
(g10
S'\xf3o\xa9E\x13\xdd\xe0?'
p39
tp40
Rp41
ag17
(g10
S'=\xe9R\xd5\xa5\xe1\xe0?'
p42
tp43
Rp44
aatp45
.