(cnumpy.core.multiarray
_reconstruct
p0
(cnumpy
ndarray
p1
(I0
tp2
S'b'
p3
tp4
Rp5
(I1
(I4
tp6
cnumpy
dtype
p7
(S'f8'
p8
I0
I1
tp9
Rp10
(I3
S'<'
p11
NNNI-1
I-1
I0
tp12
bI00
S'\xbb\xa0\x04\x8c\xa07V@\x03-\xa2\xc42A\x8e?\x91\xc0b*B`)@\xe8.l\x91\xff\n\xe1?'
p13
tp14
b(lp15
(lp16
cnumpy.core.multiarray
scalar
p17
(g10
S'O\x8b\xc5\\\t\xfdN@'
p18
tp19
Rp20
ag17
(g10
S'\xce{\xa6i\xbc\xf0\\@'
p21
tp22
Rp23
aa(lp24
g17
(g10
S'p:\xe2\xf4\xd0\x8fr?'
p25
tp26
Rp27
ag17
(g10
S'g\x9ei\x87>\x9d\x99?'
p28
tp29
Rp30
aa(lp31
g17
(g10
S'\xb8\x9cb*B`)@'
p32
tp33
Rp34
ag17
(g10
S'j\xe4b*B`)@'
p35
tp36
Rp37
aa(lp38
g17
(g10
S'\x80\x80\x1f\x98\x81\x08\xe1?'
p39
tp40
Rp41
ag17
(g10
S'P\xdd\xb8\x8a}\r\xe1?'
p42
tp43
Rp44
aatp45
.