(cnumpy.core.multiarray
_reconstruct
p0
(cnumpy
ndarray
p1
(I0
tp2
S'b'
p3
tp4
Rp5
(I1
(I4
tp6
cnumpy
dtype
p7
(S'f8'
p8
I0
I1
tp9
Rp10
(I3
S'<'
p11
NNNI-1
I-1
I0
tp12
bI00
S'?N\x07k\x8d%^@SZ\x0c\x07\xba\xd4\x81?e\x9d\xc9\xce?],@\x16"O6/\x15\xe1?'
p13
tp14
b(lp15
(lp16
cnumpy.core.multiarray
scalar
p17
(g10
S']f\xa5\x9b\xa8\xa1V@'
p18
tp19
Rp20
ag17
(g10
S'\x10\x9b4\x1d\xb9\xd4b@'
p21
tp22
Rp23
aa(lp24
g17
(g10
S'\x16:\x8e?J\xc4g?'
p25
tp26
Rp27
ag17
(g10
S' &5~a\xb8\x8d?'
p28
tp29
Rp30
aa(lp31
g17
(g10
S'e\x9d\xc9\xce?],@'
p32
tp33
Rp34
ag17
(g10
S'e\x9d\xc9\xce?],@'
p35
tp36
Rp37
aa(lp38
g17
(g10
S'\to\x90\xc5\xe1\x12\xe1?'
p39
tp40
Rp41
ag17
(g10
S'#\xd5\r\xa7|\x17\xe1?'
p42
tp43
Rp44
aatp45
.