(cnumpy.core.multiarray
_reconstruct
p0
(cnumpy
ndarray
p1
(I0
tp2
S'b'
p3
tp4
Rp5
(I1
(I4
tp6
cnumpy
dtype
p7
(S'f8'
p8
I0
I1
tp9
Rp10
(I3
S'<'
p11
NNNI-1
I-1
I0
tp12
bI00
S'v\xe9\xbe\xe5P8h@8\xd4\xb3\n\xca\x7f[?Cm\x84\xa7Y(\xe9?*\\C\x061\xb8\xe0?'
p13
tp14
b(lp15
(lp16
cnumpy.core.multiarray
scalar
p17
(g10
S'a\xe1^E\xa4Lf@'
p18
tp19
Rp20
ag17
(g10
S'\x8b\xf1\x1e\x86\xfd#j@'
p21
tp22
Rp23
aa(lp24
g17
(g10
S'\xe9\x13K\xedWv[?'
p25
tp26
Rp27
ag17
(g10
S'\x87\x94\x1c(<\x89[?'
p28
tp29
Rp30
aa(lp31
g17
(g10
S'\x9cfW!5t\xf9\xbf'
p32
tp33
Rp34
ag17
(g10
S'\xf0\xe9mdGN\t@'
p35
tp36
Rp37
aa(lp38
g17
(g10
S'\xd8\xd3\xd2t\xab\xb6\xe0?'
p39
tp40
Rp41
ag17
(g10
S'|\xe4\xb3\x97\xb6\xb9\xe0?'
p42
tp43
Rp44
aatp45
.