(cnumpy.core.multiarray
_reconstruct
p0
(cnumpy
ndarray
p1
(I0
tp2
S'b'
p3
tp4
Rp5
(I1
(I4
tp6
cnumpy
dtype
p7
(S'f8'
p8
I0
I1
tp9
Rp10
(I3
S'<'
p11
NNNI-1
I-1
I0
tp12
bI00
S'eu\xd3Q\x97Ve@\x88\xac\x972q\xaaq?`S\x19\xd5U\x0b0@\x17\x00X"\xa0\'\xe1?'
p13
tp14
b(lp15
(lp16
cnumpy.core.multiarray
scalar
p17
(g10
S'\xdb\xad\x05O\xc4?`@'
p18
tp19
Rp20
ag17
(g10
S'\xef<\xa1Tjmj@'
p21
tp22
Rp23
aa(lp24
g17
(g10
S'@\xd6bXl\xb2\x19?'
p25
tp26
Rp27
ag17
(g10
S'\xdc\xe6\xe6Y\x0cw\x81?'
p28
tp29
Rp30
aa(lp31
g17
(g10
S'\xb9\xb3\x18\xd5U\x0b0@'
p32
tp33
Rp34
ag17
(g10
S'\x07\xf3\x19\xd5U\x0b0@'
p35
tp36
Rp37
aa(lp38
g17
(g10
S'5\xadW\xca\xad#\xe1?'
p39
tp40
Rp41
ag17
(g10
S'\xf9RXz\x92+\xe1?'
p42
tp43
Rp44
aatp45
.