(cnumpy.core.multiarray
_reconstruct
p0
(cnumpy
ndarray
p1
(I0
tp2
S'b'
p3
tp4
Rp5
(I1
(I4
tp6
cnumpy
dtype
p7
(S'f8'
p8
I0
I1
tp9
Rp10
(I3
S'<'
p11
NNNI-1
I-1
I0
tp12
bI00
S'\xaa>O\n\xa6Ai@\x88\xbde\xd3\xd5@\x07?x\xba_Y2K-@[hSR\xe6\xd3\xe0?'
p13
tp14
b(lp15
(lp16
cnumpy.core.multiarray
scalar
p17
(g10
S']7hsd\xfad@'
p18
tp19
Rp20
ag17
(g10
S'\xf7E6\xa1\xe7\x88m@'
p21
tp22
Rp23
aa(lp24
g17
(g10
S'\x99\x8fou4\x13?\xbf'
p25
tp26
Rp27
ag17
(g10
S'~\x7f$\xf5\xb4qB?'
p28
tp29
Rp30
aa(lp31
g17
(g10
S'x\xba_Y2K-@'
p32
tp33
Rp34
ag17
(g10
S'x\xba_Y2K-@'
p35
tp36
Rp37
aa(lp38
g17
(g10
S'\xdf \x1ar\xfak\xe0?'
p39
tp40
Rp41
ag17
(g10
S'\xd7\xaf\x8c2\xd2;\xe1?'
p42
tp43
Rp44
aatp45
.