(cnumpy.core.multiarray
_reconstruct
p0
(cnumpy
ndarray
p1
(I0
tp2
S'b'
p3
tp4
Rp5
(I1
(I4
tp6
cnumpy
dtype
p7
(S'f8'
p8
I0
I1
tp9
Rp10
(I3
S'<'
p11
NNNI-1
I-1
I0
tp12
bI00
S'\xdc\x9col$*d@v:20\xb0\x99k?\xd3y\x1ep9?\xc0?\x0ec\x88\x95\xc7\xed\xe0?'
p13
tp14
b(lp15
(lp16
cnumpy.core.multiarray
scalar
p17
(g10
S'6\xa4\xe6ptxa@'
p18
tp19
Rp20
ag17
(g10
S'\x82\x95\xf8g\xd4\xdbf@'
p21
tp22
Rp23
aa(lp24
g17
(g10
S':u8$E\xc1U?'
p25
tp26
Rp27
ag17
(g10
S'(\x1d$\xe7^)v?'
p28
tp29
Rp30
aa(lp31
g17
(g10
S'\x0c"\\`F\xc6\x96?'
p32
tp33
Rp34
ag17
(g10
S'do1\x14\xaa\xa5\xcd?'
p35
tp36
Rp37
aa(lp38
g17
(g10
S'\x91S&\xaa\xcc\xea\xe0?'
p39
tp40
Rp41
ag17
(g10
S'\x8br\xea\x80\xc2\xf0\xe0?'
p42
tp43
Rp44
aatp45
.