(cnumpy.core.multiarray
_reconstruct
p0
(cnumpy
ndarray
p1
(I0
tp2
S'b'
p3
tp4
Rp5
(I1
(I4
tp6
cnumpy
dtype
p7
(S'f8'
p8
I0
I1
tp9
Rp10
(I3
S'<'
p11
NNNI-1
I-1
I0
tp12
bI00
S'N\x16.\xcerVj@*w4\xa8\x0e\x9c:?\x87\x82Y\xa2]\xe0*@\x0bp\x94`p\xea\xe0?'
p13
tp14
b(lp15
(lp16
cnumpy.core.multiarray
scalar
p17
(g10
S'Pe\x9eS\x0fZh@'
p18
tp19
Rp20
ag17
(g10
S'L\xc7\xbdH\xd6Rl@'
p21
tp22
Rp23
aa(lp24
g17
(g10
S'\xd9b\x1c\x9a-\x95:?'
p25
tp26
Rp27
ag17
(g10
S'{\x8bL\xb6\xef\xa2:?'
p28
tp29
Rp30
aa(lp31
g17
(g10
S'\x9b\xaeW\xa2]\xe0*@'
p32
tp33
Rp34
ag17
(g10
S'sV[\xa2]\xe0*@'
p35
tp36
Rp37
aa(lp38
g17
(g10
S'\xaa\x8d\xb5\xa9[\xe8\xe0?'
p39
tp40
Rp41
ag17
(g10
S'lRs\x17\x85\xec\xe0?'
p42
tp43
Rp44
aatp45
.