(cnumpy.core.multiarray
_reconstruct
p0
(cnumpy
ndarray
p1
(I0
tp2
S'b'
p3
tp4
Rp5
(I1
(I4
tp6
cnumpy
dtype
p7
(S'f8'
p8
I0
I1
tp9
Rp10
(I3
S'<'
p11
NNNI-1
I-1
I0
tp12
bI00
S'\x14\xf9-p\xb1\xb9b@\xaaDtZ\x11k\\?\x8d~4\x8c\x1eJ=@\x06[Ri/\xb4\xe0?'
p13
tp14
b(lp15
(lp16
cnumpy.core.multiarray
scalar
p17
(g10
S'@\x80c\xf2\x8dW`@'
p18
tp19
Rp20
ag17
(g10
S'\xe8q\xf8\xed\xd4\x1be@'
p21
tp22
Rp23
aa(lp24
g17
(g10
S'\x84\x7fc\xd5\xc4\xf03?'
p25
tp26
Rp27
ag17
(g10
S'\xba\xd4\xc7\xbf\xf8\xeci?'
p28
tp29
Rp30
aa(lp31
g17
(g10
S'\x8d~4\x8c\x1eJ=@'
p32
tp33
Rp34
ag17
(g10
S'\x8d~4\x8c\x1eJ=@'
p35
tp36
Rp37
aa(lp38
g17
(g10
S'UgLj\xa9\xae\xe0?'
p39
tp40
Rp41
ag17
(g10
S'\xb7NXh\xb5\xb9\xe0?'
p42
tp43
Rp44
aatp45
.