(cnumpy.core.multiarray
_reconstruct
p0
(cnumpy
ndarray
p1
(I0
tp2
S'b'
p3
tp4
Rp5
(I1
(I4
tp6
cnumpy
dtype
p7
(S'f8'
p8
I0
I1
tp9
Rp10
(I3
S'<'
p11
NNNI-1
I-1
I0
tp12
bI00
S'[Pu\xbb\x9ecd@\x8f(\x82%O(l?@\xf5\xe2p_\xd2\xc6?\n\x065o-\xee\xe0?'
p13
tp14
b(lp15
(lp16
cnumpy.core.multiarray
scalar
p17
(g10
S'(9q.\xa0)c@'
p18
tp19
Rp20
ag17
(g10
S'\x8egyH\x9d\x9de@'
p21
tp22
Rp23
aa(lp24
g17
(g10
S'\x9d\xc8*\xe6/%l?'
p25
tp26
Rp27
ag17
(g10
S'\x81\x88\xd9dn+l?'
p28
tp29
Rp30
aa(lp31
g17
(g10
S'X\xa0\x04\x98\x0b\xca\xa8?'
p32
tp33
Rp34
ag17
(g10
S'5a\xe2\xfd\x1d\xb9\xd3?'
p35
tp36
Rp37
aa(lp38
g17
(g10
S'\xed\x97\x82\xbb&\xed\xe0?'
p39
tp40
Rp41
ag17
(g10
S'\'t\xe7"4\xef\xe0?'
p42
tp43
Rp44
aatp45
.