(cnumpy.core.multiarray
_reconstruct
p0
(cnumpy
ndarray
p1
(I0
tp2
S'b'
p3
tp4
Rp5
(I1
(I4
tp6
cnumpy
dtype
p7
(S'f8'
p8
I0
I1
tp9
Rp10
(I3
S'<'
p11
NNNI-1
I-1
I0
tp12
bI00
S'\x88\xac\x1f\x03y\xb9l@\xf2v\xb1to4\xf8>\xa6\xa5\xbdo\xb0\x88\r@\x8d\xadX,[\xba\xe0?'
p13
tp14
b(lp15
(lp16
cnumpy.core.multiarray
scalar
p17
(g10
S'\xf6\xb2\xe5T,\xf2f@'
p18
tp19
Rp20
ag17
(g10
S'\r\xd3\xac\xd8b@q@'
p21
tp22
Rp23
aa(lp24
g17
(g10
S'\xdf\x81~oHJ?\xbf'
p25
tp26
Rp27
ag17
(g10
S'_X\n/k(A?'
p28
tp29
Rp30
aa(lp31
g17
(g10
S'N\x85r\xef:PZ\xc0'
p32
tp33
Rp34
ag17
(g10
S'\xa8_n\xf6\xc5(\\@'
p35
tp36
Rp37
aa(lp38
g17
(g10
S'6U\xc5\xb4\xf0\n\xe0?'
p39
tp40
Rp41
ag17
(g10
S'\xe4\x05\xec\xa3\xc5i\xe1?'
p42
tp43
Rp44
aatp45
.