(cnumpy.core.multiarray
_reconstruct
p0
(cnumpy
ndarray
p1
(I0
tp2
S'b'
p3
tp4
Rp5
(I1
(I4
tp6
cnumpy
dtype
p7
(S'f8'
p8
I0
I1
tp9
Rp10
(I3
S'<'
p11
NNNI-1
I-1
I0
tp12
bI00
S'\xfb+\x0eR\xa0\x91i@\xba\x18_[.\x9aK?)\xae\x01wz\xb4%@\xa6<C\x08"+\xe1?'
p13
tp14
b(lp15
(lp16
cnumpy.core.multiarray
scalar
p17
(g10
S'\xcck\xce\xf1\xb2"g@'
p18
tp19
Rp20
ag17
(g10
S'*\xecM\xb2\x8d\x00l@'
p21
tp22
Rp23
aa(lp24
g17
(g10
S'Z\x15m(\x01\\K?'
p25
tp26
Rp27
ag17
(g10
S'\x1a\x1cQ\x8e[\xd8K?'
p28
tp29
Rp30
aa(lp31
g17
(g10
S'o\x9e!\xfc``\xc8\xc0'
p32
tp33
Rp34
ag17
(g10
S'G\x1f]9;k\xc8@'
p35
tp36
Rp37
aa(lp38
g17
(g10
S'\xdb\xf0l\xfe\xfe(\xe1?'
p39
tp40
Rp41
ag17
(g10
S'q\x88\x19\x12E-\xe1?'
p42
tp43
Rp44
aatp45
.