(cnumpy.core.multiarray
_reconstruct
p0
(cnumpy
ndarray
p1
(I0
tp2
S'b'
p3
tp4
Rp5
(I1
(I4
tp6
cnumpy
dtype
p7
(S'f8'
p8
I0
I1
tp9
Rp10
(I3
S'<'
p11
NNNI-1
I-1
I0
tp12
bI00
S'&\x97\xf2\x1e].j@*n\x9b\x8b\x95i\x00?\xe2\xfe/\xbdSk\x17@n\xf6Oy\x8c\xbe\xe0?'
p13
tp14
b(lp15
(lp16
cnumpy.core.multiarray
scalar
p17
(g10
S'\x855 an>e@'
p18
tp19
Rp20
ag17
(g10
S'\xc7\xf8\xc4\xdcK\x1eo@'
p21
tp22
Rp23
aa(lp24
g17
(g10
S'\xa1}{g\xc6\xac?\xbf'
p25
tp26
Rp27
ag17
(g10
S'\x96,1\xe5\x95\xe3A?'
p28
tp29
Rp30
aa(lp31
g17
(g10
S'X\xfc\x16S/m|\xc0'
p32
tp33
Rp34
ag17
(g10
S'P|\x00\xf1\x89(}@'
p35
tp36
Rp37
aa(lp38
g17
(g10
S'U\x9b\xd1\x9cx.\xe0?'
p39
tp40
Rp41
ag17
(g10
S'\x87Q\xceU\xa0N\xe1?'
p42
tp43
Rp44
aatp45
.