(cnumpy.core.multiarray
_reconstruct
p0
(cnumpy
ndarray
p1
(I0
tp2
S'b'
p3
tp4
Rp5
(I1
(I4
tp6
cnumpy
dtype
p7
(S'f8'
p8
I0
I1
tp9
Rp10
(I3
S'<'
p11
NNNI-1
I-1
I0
tp12
bI00
S'\x82\x8f\xff\xc0\xbell@\xb2\x83\r3\xbe\xe5\xe9>V,*v\xc5\x85*@\xf5A\xa0\xd37\xa7\xe0?'
p13
tp14
b(lp15
(lp16
cnumpy.core.multiarray
scalar
p17
(g10
S'h\x88L\x94\x90Ff@'
p18
tp19
Rp20
ag17
(g10
S'NK\xd9vvIq@'
p21
tp22
Rp23
aa(lp24
g17
(g10
S'\xc3D\xf4 \x10\x8e:\xbf'
p25
tp26
Rp27
ag17
(g10
S'\xff\x1c%\x04l,<?'
p28
tp29
Rp30
aa(lp31
g17
(g10
S'V,*v\xc5\x85*@'
p32
tp33
Rp34
ag17
(g10
S'V,*v\xc5\x85*@'
p35
tp36
Rp37
aa(lp38
g17
(g10
S'MM\x8c\x1e\x0b\x19\xdf?'
p39
tp40
Rp41
ag17
(g10
S'C]\xfa\x17\xea\xc1\xe1?'
p42
tp43
Rp44
aatp45
.