(cnumpy.core.multiarray
_reconstruct
p0
(cnumpy
ndarray
p1
(I0
tp2
S'b'
p3
tp4
Rp5
(I1
(I4
tp6
cnumpy
dtype
p7
(S'f8'
p8
I0
I1
tp9
Rp10
(I3
S'<'
p11
NNNI-1
I-1
I0
tp12
bI00
S'\xd8\xebY\xa6<\xb2h@:GD!4MD?!\x1a\x10\t\xe3g1@\xcdD]k4\xe4\xe0?'
p13
tp14
b(lp15
(lp16
cnumpy.core.multiarray
scalar
p17
(g10
S'\xf8\x8d\x14\xbe\xc3ve@'
p18
tp19
Rp20
ag17
(g10
S'\xb8I\x9f\x8e\xb5\xedk@'
p21
tp22
Rp23
aa(lp24
g17
(g10
S'\x06\xe2mh+\x946\xbf'
p25
tp26
Rp27
ag17
(g10
S'\xbc\xbf_\xfb>\xf2Y?'
p28
tp29
Rp30
aa(lp31
g17
(g10
S'!\x1a\x10\t\xe3g1@'
p32
tp33
Rp34
ag17
(g10
S'!\x1a\x10\t\xe3g1@'
p35
tp36
Rp37
aa(lp38
g17
(g10
S'!/F^\xe9\xd9\xe0?'
p39
tp40
Rp41
ag17
(g10
S'yZtx\x7f\xee\xe0?'
p42
tp43
Rp44
aatp45
.