(cnumpy.core.multiarray
_reconstruct
p0
(cnumpy
ndarray
p1
(I0
tp2
S'b'
p3
tp4
Rp5
(I1
(I4
tp6
cnumpy
dtype
p7
(S'f8'
p8
I0
I1
tp9
Rp10
(I3
S'<'
p11
NNNI-1
I-1
I0
tp12
bI00
S'\x1d\xfe5g\x8cRb@\xa3m\x13\xce Ag?\xf8\xfbZ\xc9\x06\xb4\x12@\xd0f\xdc\x87P\xe7\xe0?'
p13
tp14
b(lp15
(lp16
cnumpy.core.multiarray
scalar
p17
(g10
S'\xbf\\F<\xc8\x04_@'
p18
tp19
Rp20
ag17
(g10
S'\xda\xcdH\xb0\xb4"e@'
p21
tp22
Rp23
aa(lp24
g17
(g10
S'\x04y\n\x0f\xcd\x87E?'
p25
tp26
Rp27
ag17
(g10
S"\x82\x1e2,'\x90t?"
p28
tp29
Rp30
aa(lp31
g17
(g10
S'zY\xb3|\x84%e\xc0'
p32
tp33
Rp34
ag17
(g10
S':\tI\xe9\xc4Pf@'
p35
tp36
Rp37
aa(lp38
g17
(g10
S'}*h\xa1\xf4\xe2\xe0?'
p39
tp40
Rp41
ag17
(g10
S'#\xa3Pn\xac\xeb\xe0?'
p42
tp43
Rp44
aatp45
.