(cnumpy.core.multiarray
_reconstruct
p0
(cnumpy
ndarray
p1
(I0
tp2
S'b'
p3
tp4
Rp5
(I1
(I4
tp6
cnumpy
dtype
p7
(S'f8'
p8
I0
I1
tp9
Rp10
(I3
S'<'
p11
NNNI-1
I-1
I0
tp12
bI00
S'zY2$\xc4\xbef@jA\xf2\x9b\xc8\xb7\x17?\xc5\xc8\xae\x84\x18\x0b\r@f\xcb\xf4w%\t\xe1?'
p13
tp14
b(lp15
(lp16
cnumpy.core.multiarray
scalar
p17
(g10
S'f\xfd@@\xfe\xb6b@'
p18
tp19
Rp20
ag17
(g10
S'\x8e\xb5#\x08\x8a\xc6j@'
p21
tp22
Rp23
aa(lp24
g17
(g10
S'\xf2\xac@Tj?C\xbf'
p25
tp26
Rp27
ag17
(g10
S'L=={\\-I?'
p28
tp29
Rp30
aa(lp31
g17
(g10
S'\x9f\x0c\x00%\xabiV\xc0'
p32
tp33
Rp34
ag17
(g10
S'+\xf9J\xad\\:X@'
p35
tp36
Rp37
aa(lp38
g17
(g10
S'Vr\x11\x82\x84\xc3\xe0?'
p39
tp40
Rp41
ag17
(g10
S'v$\xd8m\xc6N\xe1?'
p42
tp43
Rp44
aatp45
.