(cnumpy.core.multiarray
_reconstruct
p0
(cnumpy
ndarray
p1
(I0
tp2
S'b'
p3
tp4
Rp5
(I1
(I4
tp6
cnumpy
dtype
p7
(S'f8'
p8
I0
I1
tp9
Rp10
(I3
S'<'
p11
NNNI-1
I-1
I0
tp12
bI00
S'\xe7fQ0\x95\x91e@x\x08]cE;e?\x80FO\x08\x9b\x01\r@\x17C\x1f\xb1\xc1\xaa\xe0?'
p13
tp14
b(lp15
(lp16
cnumpy.core.multiarray
scalar
p17
(g10
S'\xc5s\xc2-J\x1cb@'
p18
tp19
Rp20
ag17
(g10
S'\tZ\xe02\xe0\x06i@'
p21
tp22
Rp23
aa(lp24
g17
(g10
S'P\xc0\xa994\xfd:?'
p25
tp26
Rp27
ag17
(g10
S'sl\xc2\x1fr\x8bs?'
p28
tp29
Rp30
aa(lp31
g17
(g10
S'4\xd7s\x8d<\x10P\xc0'
p32
tp33
Rp34
ag17
(g10
S'\x9c\xcb\xf8=V\xe0Q@'
p35
tp36
Rp37
aa(lp38
g17
(g10
S'\xf5\x9e\xf4(\x7f\xa6\xe0?'
p39
tp40
Rp41
ag17
(g10
S'9\xe7I9\x04\xaf\xe0?'
p42
tp43
Rp44
aatp45
.