(cnumpy.core.multiarray
_reconstruct
p0
(cnumpy
ndarray
p1
(I0
tp2
S'b'
p3
tp4
Rp5
(I1
(I4
tp6
cnumpy
dtype
p7
(S'f8'
p8
I0
I1
tp9
Rp10
(I3
S'<'
p11
NNNI-1
I-1
I0
tp12
bI00
S'\xa9PK\x84=Od@r\xf7\\K\xd9Kj?\xe7P\x88;(F\xe3?\xf6V\xbf6\xab\xed\xe0?'
p13
tp14
b(lp15
(lp16
cnumpy.core.multiarray
scalar
p17
(g10
S'~\x8d\xf6\xd1A\x1dc@'
p18
tp19
Rp20
ag17
(g10
S'\xd4\x13\xa069\x81e@'
p21
tp22
Rp23
aa(lp24
g17
(g10
S'\xaay\x19\xc1A6j?'
p25
tp26
Rp27
ag17
(g10
S':u\xa0\xd5paj?'
p28
tp29
Rp30
aa(lp31
g17
(g10
S"\x04\xafT\xff]'\xd4\xbf"
p32
tp33
Rp34
ag17
(g10
S'\xa8|]\xbb\xffO\xf8?'
p35
tp36
Rp37
aa(lp38
g17
(g10
S'\xb2s?\x19\xa1\xec\xe0?'
p39
tp40
Rp41
ag17
(g10
S'::?T\xb5\xee\xe0?'
p42
tp43
Rp44
aatp45
.