(cnumpy.core.multiarray
_reconstruct
p0
(cnumpy
ndarray
p1
(I0
tp2
S'b'
p3
tp4
Rp5
(I1
(I4
tp6
cnumpy
dtype
p7
(S'f8'
p8
I0
I1
tp9
Rp10
(I3
S'<'
p11
NNNI-1
I-1
I0
tp12
bI00
S'\xe6>\xdabh\xccg@im5\xa6\xab\x83K?\xcemg\x9cj\xbf\xea?\xd2\xa0N\xda{\xbe\xe0?'
p13
tp14
b(lp15
(lp16
cnumpy.core.multiarray
scalar
p17
(g10
S'\xf5(\xaag+*f@'
p18
tp19
Rp20
ag17
(g10
S'\xd7T\n^\xa5ni@'
p21
tp22
Rp23
aa(lp24
g17
(g10
S'n\x08H\xd3\xe5oK?'
p25
tp26
Rp27
ag17
(g10
S'd\xd2"yq\x97K?'
p28
tp29
Rp30
aa(lp31
g17
(g10
S'\x91z\xbf\x98\xe2v\xf7\xbf'
p32
tp33
Rp34
ag17
(g10
S'0t\x93\x9a&\x1b\t@'
p35
tp36
Rp37
aa(lp38
g17
(g10
S'\x1b7\xa5\xe8\xc8\xbc\xe0?'
p39
tp40
Rp41
ag17
(g10
S'\x89\n\xf8\xcb.\xc0\xe0?'
p42
tp43
Rp44
aatp45
.