(cnumpy.core.multiarray
_reconstruct
p0
(cnumpy
ndarray
p1
(I0
tp2
S'b'
p3
tp4
Rp5
(I1
(I4
tp6
cnumpy
dtype
p7
(S'f8'
p8
I0
I1
tp9
Rp10
(I3
S'<'
p11
NNNI-1
I-1
I0
tp12
bI00
S'\x18\x9c\x9bH\x8c\xb0d@\xc6[]\xc8\\pM?k}G0\x7f\x084@\x19\xdf\x84Ps\xaa\xe0?'
p13
tp14
b(lp15
(lp16
cnumpy.core.multiarray
scalar
p17
(g10
S'\xd8\x8c\xf5\xdd\xe3\x84a@'
p18
tp19
Rp20
ag17
(g10
S'X\xabA\xb34\xdcg@'
p21
tp22
Rp23
aa(lp24
g17
(g10
S'\xdc\xec\x1eE>a:\xbf'
p25
tp26
Rp27
ag17
(g10
S'~\x8b\xd2,V\x04b?'
p28
tp29
Rp30
aa(lp31
g17
(g10
S'k}G0\x7f\x084@'
p32
tp33
Rp34
ag17
(g10
S'k}G0\x7f\x084@'
p35
tp36
Rp37
aa(lp38
g17
(g10
S'\x07|\xddC\xcf\x9f\xe0?'
p39
tp40
Rp41
ag17
(g10
S'+B,]\x17\xb5\xe0?'
p42
tp43
Rp44
aatp45
.