(cnumpy.core.multiarray
_reconstruct
p0
(cnumpy
ndarray
p1
(I0
tp2
S'b'
p3
tp4
Rp5
(I1
(I4
tp6
cnumpy
dtype
p7
(S'f8'
p8
I0
I1
tp9
Rp10
(I3
S'<'
p11
NNNI-1
I-1
I0
tp12
bI00
S'_5\xfdR=\xdfb@\xb4\xfcAQ\xbb\x96_?\xe2"8\xa5\x08\x038@}v_.1\xe6\xe0?'
p13
tp14
b(lp15
(lp16
cnumpy.core.multiarray
scalar
p17
(g10
S'\xde&\x86\xd0\xcf\n`@'
p18
tp19
Rp20
ag17
(g10
S'\xe0Ct\xd5\xaa\xb3e@'
p21
tp22
Rp23
aa(lp24
g17
(g10
S'\x18_\x16oy\xda$?'
p25
tp26
Rp27
ag17
(g10
S'\xc2\x96P\xba\x13In?'
p28
tp29
Rp30
aa(lp31
g17
(g10
S'\xe2"8\xa5\x08\x038@'
p32
tp33
Rp34
ag17
(g10
S'\xe2"8\xa5\x08\x038@'
p35
tp36
Rp37
aa(lp38
g17
(g10
S'&&\x89Ea\xe0\xe0?'
p39
tp40
Rp41
ag17
(g10
S'\xd4\xc65\x17\x01\xec\xe0?'
p42
tp43
Rp44
aatp45
.