(cnumpy.core.multiarray
_reconstruct
p0
(cnumpy
ndarray
p1
(I0
tp2
S'b'
p3
tp4
Rp5
(I1
(I4
tp6
cnumpy
dtype
p7
(S'f8'
p8
I0
I1
tp9
Rp10
(I3
S'<'
p11
NNNI-1
I-1
I0
tp12
bI00
S"\xad@K\x95\xcc\x11b@Q\xae\xa1TH\xb4n?\xc0\x81WhC\xba6@\xccV\xcd\xd7\xf8'\xe1?"
p13
tp14
b(lp15
(lp16
cnumpy.core.multiarray
scalar
p17
(g10
S'\x84\xedV\xc1d8]@'
p18
tp19
Rp20
ag17
(g10
S'\x98\n\xeb\xc9f\x87e@'
p21
tp22
Rp23
aa(lp24
g17
(g10
S'\x0cy\x12\xc6\x12\x05D?'
p25
tp26
Rp27
ag17
(g10
S'0_\xdf\xfb\xa53|?'
p28
tp29
Rp30
aa(lp31
g17
(g10
S'\xc0\x81WhC\xba6@'
p32
tp33
Rp34
ag17
(g10
S'\xc0\x81WhC\xba6@'
p35
tp36
Rp37
aa(lp38
g17
(g10
S'5\xb2\xcc\x82\xbc#\xe1?'
p39
tp40
Rp41
ag17
(g10
S'c\xfb\xcd,5,\xe1?'
p42
tp43
Rp44
aatp45
.