(cnumpy.core.multiarray
_reconstruct
p0
(cnumpy
ndarray
p1
(I0
tp2
S'b'
p3
tp4
Rp5
(I1
(I4
tp6
cnumpy
dtype
p7
(S'f8'
p8
I0
I1
tp9
Rp10
(I3
S'<'
p11
NNNI-1
I-1
I0
tp12
bI00
S'\x8b\x8f\x16\xcf|\xc2g@\x14xg\xdcg0M?\xf3\xe9R\xf8}`<@3\xe3`\xfdb\xb8\xe0?'
p13
tp14
b(lp15
(lp16
cnumpy.core.multiarray
scalar
p17
(g10
S';\xbb\xb8j~\xfdc@'
p18
tp19
Rp20
ag17
(g10
S'\xdbct3{\x87k@'
p21
tp22
Rp23
aa(lp24
g17
(g10
S'\x18\xe4u\xe6d\xc0=\xbf'
p25
tp26
Rp27
ag17
(g10
S'\x8dx\x02\x8b@Pb?'
p28
tp29
Rp30
aa(lp31
g17
(g10
S'\xf3\xe9R\xf8}`<@'
p32
tp33
Rp34
ag17
(g10
S'\xf3\xe9R\xf8}`<@'
p35
tp36
Rp37
aa(lp38
g17
(g10
S'\xf6$e\x88\xbd\xae\xe0?'
p39
tp40
Rp41
ag17
(g10
S'p\xa1\\r\x08\xc2\xe0?'
p42
tp43
Rp44
aatp45
.