(cnumpy.core.multiarray
_reconstruct
p0
(cnumpy
ndarray
p1
(I0
tp2
S'b'
p3
tp4
Rp5
(I1
(I4
tp6
cnumpy
dtype
p7
(S'f8'
p8
I0
I1
tp9
Rp10
(I3
S'<'
p11
NNNI-1
I-1
I0
tp12
bI00
S'\x17-\xe20\xe0\xcb`@\xd7\x02\n\xe9\xcfMy?1l\xef_~\n/@\xc5\xe2\x83f\xe9\xf0\xe0?'
p13
tp14
b(lp15
(lp16
cnumpy.core.multiarray
scalar
p17
(g10
S'*e\x9e\xcb\xa6\x03[@'
p18
tp19
Rp20
ag17
(g10
S"\x99'\xf5\xfb\xec\x15d@"
p21
tp22
Rp23
aa(lp24
g17
(g10
S'\xbc?-\xbc\xfb\xea_?'
p25
tp26
Rp27
ag17
(g10
S'\xe0Z\x84qpP\x85?'
p28
tp29
Rp30
aa(lp31
g17
(g10
S'1l\xef_~\n/@'
p32
tp33
Rp34
ag17
(g10
S'1l\xef_~\n/@'
p35
tp36
Rp37
aa(lp38
g17
(g10
S'\x16y\xcf`\xe1\xed\xe0?'
p39
tp40
Rp41
ag17
(g10
S'tL8l\xf1\xf3\xe0?'
p42
tp43
Rp44
aatp45
.