(cnumpy.core.multiarray
_reconstruct
p0
(cnumpy
ndarray
p1
(I0
tp2
S'b'
p3
tp4
Rp5
(I1
(I4
tp6
cnumpy
dtype
p7
(S'f8'
p8
I0
I1
tp9
Rp10
(I3
S'<'
p11
NNNI-1
I-1
I0
tp12
bI00
S'\xdaT\x08I\xd7cf@\xecP\xf692T[?\x8fg\x9c \x9f*\x14@Vfl\xd8\x0e\x19\xe1?'
p13
tp14
b(lp15
(lp16
cnumpy.core.multiarray
scalar
p17
(g10
S'S\xdd\xa9\x15\r{b@'
p18
tp19
Rp20
ag17
(g10
S'a\xccf|\xa1Lj@'
p21
tp22
Rp23
aa(lp24
g17
(g10
S'\xa8g\xa4\x93<21\xbf'
p25
tp26
Rp27
ag17
(g10
S'\xe1\xddj\xccyzm?'
p28
tp29
Rp30
aa(lp31
g17
(g10
S'%#\x14\x80\x1b]j\xc0'
p32
tp33
Rp34
ag17
(g10
S'\x9d\xe9\x1dr\xc5\x9fk@'
p35
tp36
Rp37
aa(lp38
g17
(g10
S')\xcd\xf3i\xa9\x12\xe1?'
p39
tp40
Rp41
ag17
(g10
S'\x83\xff\xe4Ft\x1f\xe1?'
p42
tp43
Rp44
aatp45
.