(cnumpy.core.multiarray
_reconstruct
p0
(cnumpy
ndarray
p1
(I0
tp2
S'b'
p3
tp4
Rp5
(I1
(I4
tp6
cnumpy
dtype
p7
(S'f8'
p8
I0
I1
tp9
Rp10
(I3
S'<'
p11
NNNI-1
I-1
I0
tp12
bI00
S'\xc2)\xcd\xf8\xdd\nc@\x85\xa7\x8cKo\x8db?\xc85@\r8=B@\xc9]\xbd\xb1\xd5\x0b\xe1?'
p13
tp14
b(lp15
(lp16
cnumpy.core.multiarray
scalar
p17
(g10
S'd0\xd1d\x1c\xaa_@'
p18
tp19
Rp20
ag17
(g10
S'R\xbb1\xbf\xad@f@'
p21
tp22
Rp23
aa(lp24
g17
(g10
S'\x00\x83k\xc1\x89@\x1f?'
p25
tp26
Rp27
ag17
(g10
S'y\xf9\x86$m\x10r?'
p28
tp29
Rp30
aa(lp31
g17
(g10
S'\xc85@\r8=B@'
p32
tp33
Rp34
ag17
(g10
S'\xc85@\r8=B@'
p35
tp36
Rp37
aa(lp38
g17
(g10
S'\xf4\xbd\x03\tD\x06\xe1?'
p39
tp40
Rp41
ag17
(g10
S'\x9e\xfdvZg\x11\xe1?'
p42
tp43
Rp44
aatp45
.