(cnumpy.core.multiarray
_reconstruct
p0
(cnumpy
ndarray
p1
(I0
tp2
S'b'
p3
tp4
Rp5
(I1
(I4
tp6
cnumpy
dtype
p7
(S'f8'
p8
I0
I1
tp9
Rp10
(I3
S'<'
p11
NNNI-1
I-1
I0
tp12
bI00
S'-\xe6\x1c\x8ak~h@9\xc7F\xd6\x9d\xe4O?\x98OtN\xeax1@\xd0\xa4\x7f\xea\xf0\xca\xe0?'
p13
tp14
b(lp15
(lp16
cnumpy.core.multiarray
scalar
p17
(g10
S'\xcc\xd2\xe0\xb1\xaf\xacf@'
p18
tp19
Rp20
ag17
(g10
S"\x8e\xf9Xb'Pj@"
p21
tp22
Rp23
aa(lp24
g17
(g10
S't\x83Gqk\xd9O?'
p25
tp26
Rp27
ag17
(g10
S'\xfe\nF;\xd0\xefO?'
p28
tp29
Rp30
aa(lp31
g17
(g10
S'\x98OtN\xeax1@'
p32
tp33
Rp34
ag17
(g10
S'\x98OtN\xeax1@'
p35
tp36
Rp37
aa(lp38
g17
(g10
S'6d\xe8;<\xc9\xe0?'
p39
tp40
Rp41
ag17
(g10
S'j\xe5\x16\x99\xa5\xcc\xe0?'
p42
tp43
Rp44
aatp45
.