(cnumpy.core.multiarray
_reconstruct
p0
(cnumpy
ndarray
p1
(I0
tp2
S'b'
p3
tp4
Rp5
(I1
(I4
tp6
cnumpy
dtype
p7
(S'f8'
p8
I0
I1
tp9
Rp10
(I3
S'<'
p11
NNNI-1
I-1
I0
tp12
bI00
S'By3h\x0c\x9af@|\xb3\xb5\xc9\xf6I]?\xfa\xce~}.\xaa\n@\xd1e\xa1\xe0:\x03\xe1?'
p13
tp14
b(lp15
(lp16
cnumpy.core.multiarray
scalar
p17
(g10
S'\x18\x08\xf2TV\x1db@'
p18
tp19
Rp20
ag17
(g10
S'l\xeat{\xc2\x16k@'
p21
tp22
Rp23
aa(lp24
g17
(g10
S'pm\t>*\xe3>\xbf'
p25
tp26
Rp27
ag17
(g10
S'\x95p\xbb\x08.\x93p?'
p28
tp29
Rp30
aa(lp31
g17
(g10
S"v2\x05\xe3\x9b'S\xc0"
p32
tp33
Rp34
ag17
(g10
S'f\x1f\xdd\xca>\xd2T@'
p35
tp36
Rp37
aa(lp38
g17
(g10
S'\xa6Ii\x90n\xfc\xe0?'
p39
tp40
Rp41
ag17
(g10
S'\xfc\x81\xd90\x07\n\xe1?'
p42
tp43
Rp44
aatp45
.