(cnumpy.core.multiarray
_reconstruct
p0
(cnumpy
ndarray
p1
(I0
tp2
S'b'
p3
tp4
Rp5
(I1
(I4
tp6
cnumpy
dtype
p7
(S'f8'
p8
I0
I1
tp9
Rp10
(I3
S'<'
p11
NNNI-1
I-1
I0
tp12
bI00
S'i\xd0\x9d$\xcc@f@N\x19\x1a\xe6!<a?\xcf\r\xb2J\x14:\x18@\xd6\x95\xc1\x0b\xc7\xf9\xe0?'
p13
tp14
b(lp15
(lp16
cnumpy.core.multiarray
scalar
p17
(g10
S'$d1\xeeY\xfca@'
p18
tp19
Rp20
ag17
(g10
S'\xae<\n[>\x85j@'
p21
tp22
Rp23
aa(lp24
g17
(g10
S'H\x89\xc1B\x1a\xbd0\xbf'
p25
tp26
Rp27
ag17
(g10
S'\xe21F\x8a\xf3Gr?'
p28
tp29
Rp30
aa(lp31
g17
(g10
S'\t]\xf8\xd2Ipx\xc0'
p32
tp33
Rp34
ag17
(g10
S'w\xedMu\x1a2y@'
p35
tp36
Rp37
aa(lp38
g17
(g10
S'~\x0f`\xe4\xf5\xf3\xe0?'
p39
tp40
Rp41
ag17
(g10
S'.\x1c#3\x98\xff\xe0?'
p42
tp43
Rp44
aatp45
.