(cnumpy.core.multiarray
_reconstruct
p0
(cnumpy
ndarray
p1
(I0
tp2
S'b'
p3
tp4
Rp5
(I1
(I4
tp6
cnumpy
dtype
p7
(S'f8'
p8
I0
I1
tp9
Rp10
(I3
S'<'
p11
NNNI-1
I-1
I0
tp12
bI00
S'i\xf98WV\xe4k@\xabZ\xa49\x01\xb52?\x84z\x05f\xc6\xe5\xda?6F\xb8or\xa7\xe0?'
p13
tp14
b(lp15
(lp16
cnumpy.core.multiarray
scalar
p17
(g10
S'pK\x08K\xf8+g@'
p18
tp19
Rp20
ag17
(g10
S'\xb1\xd3\xb41ZNp@'
p21
tp22
Rp23
aa(lp24
g17
(g10
S'\x92@\xbc\xccu\xc1D\xbf'
p25
tp26
Rp27
ag17
(g10
S'\x9fM0\x83;\xbbS?'
p28
tp29
Rp30
aa(lp31
g17
(g10
S'\x80\xac\x0cy|\xaa\xc4\xbf'
p32
tp33
Rp34
ag17
(g10
S'\xd2R$\xc22\x08\xf0?'
p35
tp36
Rp37
aa(lp38
g17
(g10
S'=t?\x97q\x91\xe0?'
p39
tp40
Rp41
ag17
(g10
S'/\x181Hs\xbd\xe0?'
p42
tp43
Rp44
aatp45
.