(cnumpy.core.multiarray
_reconstruct
p0
(cnumpy
ndarray
p1
(I0
tp2
S'b'
p3
tp4
Rp5
(I1
(I4
tp6
cnumpy
dtype
p7
(S'f8'
p8
I0
I1
tp9
Rp10
(I3
S'<'
p11
NNNI-1
I-1
I0
tp12
bI00
S'\x82\xc1\xe2"\xeb_h@\xae\xber.\xf34G?\x9e\x1a\xaa\xc20n\x04@\xbe(\xe7\xb6\x03\xe5\xe0?'
p13
tp14
b(lp15
(lp16
cnumpy.core.multiarray
scalar
p17
(g10
S'\x91\x84\xfaJm*e@'
p18
tp19
Rp20
ag17
(g10
S's\xfe\xca\xfah\x95k@'
p21
tp22
Rp23
aa(lp24
g17
(g10
S'l*5\x9c\x11E4\xbf'
p25
tp26
Rp27
ag17
(g10
S'I\t\x80\x957F\\?'
p28
tp29
Rp30
aa(lp31
g17
(g10
S'F0\xd1\xfd<w>\xc0'
p32
tp33
Rp34
ag17
(g10
S'w\xdb=\x97d\xc9A@'
p35
tp36
Rp37
aa(lp38
g17
(g10
S'C\xafSu\xad\xdb\xe0?'
p39
tp40
Rp41
ag17
(g10
S'9\xa2z\xf8Y\xee\xe0?'
p42
tp43
Rp44
aatp45
.