(cnumpy.core.multiarray
_reconstruct
p0
(cnumpy
ndarray
p1
(I0
tp2
S'b'
p3
tp4
Rp5
(I1
(I4
tp6
cnumpy
dtype
p7
(S'f8'
p8
I0
I1
tp9
Rp10
(I3
S'<'
p11
NNNI-1
I-1
I0
tp12
bI00
S'\xaf8\x17TR\xaeh@\x9e\xab\x8bgKpD?^\xafa\x9d\x90\xe6)@$S8s?\xe4\xe0?'
p13
tp14
b(lp15
(lp16
cnumpy.core.multiarray
scalar
p17
(g10
S'\x16=WDese@'
p18
tp19
Rp20
ag17
(g10
S'H4\xd7c?\xe9k@'
p21
tp22
Rp23
aa(lp24
g17
(g10
S'\x9a\x88\x11H3v6\xbf'
p25
tp26
Rp27
ag17
(g10
S'\xc4\r\x909\xd8\rZ?'
p28
tp29
Rp30
aa(lp31
g17
(g10
S'^\xafa\x9d\x90\xe6)@'
p32
tp33
Rp34
ag17
(g10
S'^\xafa\x9d\x90\xe6)@'
p35
tp36
Rp37
aa(lp38
g17
(g10
S'vuB\xc3\x01\xda\xe0?'
p39
tp40
Rp41
ag17
(g10
S'\xd20.#}\xee\xe0?'
p42
tp43
Rp44
aatp45
.