(cnumpy.core.multiarray
_reconstruct
p0
(cnumpy
ndarray
p1
(I0
tp2
S'b'
p3
tp4
Rp5
(I1
(I4
tp6
cnumpy
dtype
p7
(S'f8'
p8
I0
I1
tp9
Rp10
(I3
S'<'
p11
NNNI-1
I-1
I0
tp12
bI00
S"|Yj\x17\x03\x8aa@\xb6\xd7+*'mu?\x05lW\x12C\x11\xd5?$\xfe~{\x17\x00\xe1?"
p13
tp14
b(lp15
(lp16
cnumpy.core.multiarray
scalar
p17
(g10
S'Os\xbd\x08\xce7`@'
p18
tp19
Rp20
ag17
(g10
S'\xa9?\x17&8\xdcb@'
p21
tp22
Rp23
aa(lp24
g17
(g10
S'(\xcc\xff\xc9!eu?'
p25
tp26
Rp27
ag17
(g10
S'D\xe3W\x8a,uu?'
p28
tp29
Rp30
aa(lp31
g17
(g10
S'\xdb\x7fa@\xa2\xe0\xd6\xbf'
p32
tp33
Rp34
ag17
(g10
S'\xf9\x15D\x19\xca@\xf0?'
p35
tp36
Rp37
aa(lp38
g17
(g10
S'\x03;\xd0\xbf\xd2\xfe\xe0?'
p39
tp40
Rp41
ag17
(g10
S'E\xc1-7\\\x01\xe1?'
p42
tp43
Rp44
aatp45
.