(cnumpy.core.multiarray
_reconstruct
p0
(cnumpy
ndarray
p1
(I0
tp2
S'b'
p3
tp4
Rp5
(I1
(I4
tp6
cnumpy
dtype
p7
(S'f8'
p8
I0
I1
tp9
Rp10
(I3
S'<'
p11
NNNI-1
I-1
I0
tp12
bI00
S"%\x88@'%5c@9\xf4659\xeeK?\x00T\xe2\xab\x1b\xde\xcb>\x9e\x85\x11g\xcap\xe1?"
p13
tp14
b(lp15
(lp16
cnumpy.core.multiarray
scalar
p17
(g10
S'\x94#i\x7f\xfd\xaca@'
p18
tp19
Rp20
ag17
(g10
S'\xb6\xec\x17\xcfL\xbdd@'
p21
tp22
Rp23
aa(lp24
g17
(g10
S'gg\x1bH\xb8RK?'
p25
tp26
Rp27
ag17
(g10
S'\x0b\x81R"\xba\x89L?'
p28
tp29
Rp30
aa(lp31
g17
(g10
S'|Y\x15\xd8\xdfkp\xbf'
p32
tp33
Rp34
ag17
(g10
S'\x10R\x00_\xd7rp?'
p35
tp36
Rp37
aa(lp38
g17
(g10
S'\r\xf1\xff\xf0rn\xe1?'
p39
tp40
Rp41
ag17
(g10
S'/\x1a#\xdd!s\xe1?'
p42
tp43
Rp44
aatp45
.