(cnumpy.core.multiarray
_reconstruct
p0
(cnumpy
ndarray
p1
(I0
tp2
S'b'
p3
tp4
Rp5
(I1
(I4
tp6
cnumpy
dtype
p7
(S'f8'
p8
I0
I1
tp9
Rp10
(I3
S'<'
p11
NNNI-1
I-1
I0
tp12
bI00
S"\x8cN\x7fgu\xeek@\xca\xf0c\xa9h\x7f\x1d?t<+g\xfe\x1c\x15@\x16O'Tk\x02\xe1?"
p13
tp14
b(lp15
(lp16
cnumpy.core.multiarray
scalar
p17
(g10
S'^\xd1S\xf5qpf@'
p18
tp19
Rp20
ag17
(g10
S'\xdde\xd5l<\xb6p@'
p21
tp22
Rp23
aa(lp24
g17
(g10
S'UE}\xdd\x8e%G\xbf'
p25
tp26
Rp27
ag17
(g10
S'\x87A\xd6\x07i\x85N?'
p28
tp29
Rp30
aa(lp31
g17
(g10
S'\x98\xec\x00\xf8\xcc\xb1t\xc0'
p32
tp33
Rp34
ag17
(g10
S'|F:\xeb\xb4Zu@'
p35
tp36
Rp37
aa(lp38
g17
(g10
S'\x07`\xbb>B\xcc\xe0?'
p39
tp40
Rp41
ag17
(g10
S'%>\x93i\x948\xe1?'
p42
tp43
Rp44
aatp45
.