(cnumpy.core.multiarray
_reconstruct
p0
(cnumpy
ndarray
p1
(I0
tp2
S'b'
p3
tp4
Rp5
(I1
(I4
tp6
cnumpy
dtype
p7
(S'f8'
p8
I0
I1
tp9
Rp10
(I3
S'<'
p11
NNNI-1
I-1
I0
tp12
bI00
S'\xdd\x95\x065\xc8\xbfd@\xcc\rn\x1b\x7f\xfbY?r \xad[m\x8b*@\x8b?TpFO\xe1?'
p13
tp14
b(lp15
(lp16
cnumpy.core.multiarray
scalar
p17
(g10
S'\xc10\x1f\xf6?\xa6`@'
p18
tp19
Rp20
ag17
(g10
S'\xf9\xfa\xedsP\xd9h@'
p21
tp22
Rp23
aa(lp24
g17
(g10
S'\x14cL\xf8(\xf9A\xbf'
p25
tp26
Rp27
ag17
(g10
S'\x91&\x81Y\xc9yn?'
p28
tp29
Rp30
aa(lp31
g17
(g10
S'r \xad[m\x8b*@'
p32
tp33
Rp34
ag17
(g10
S'r \xad[m\x8b*@'
p35
tp36
Rp37
aa(lp38
g17
(g10
S'b\xa6\xb5\xc2;G\xe1?'
p39
tp40
Rp41
ag17
(g10
S'\xb4\xd8\xf2\x1dQW\xe1?'
p42
tp43
Rp44
aatp45
.