(cnumpy.core.multiarray
_reconstruct
p0
(cnumpy
ndarray
p1
(I0
tp2
S'b'
p3
tp4
Rp5
(I1
(I4
tp6
cnumpy
dtype
p7
(S'f8'
p8
I0
I1
tp9
Rp10
(I3
S'<'
p11
NNNI-1
I-1
I0
tp12
bI00
S'\xcd\xb8\x03Cvth@Tc\t\xd7p&\\?X\x01\xee:6\xa7\x04@\x14Pc63\xcf\xe0?'
p13
tp14
b(lp15
(lp16
cnumpy.core.multiarray
scalar
p17
(g10
S')\xeeh\xf9\xa4\xb8f@'
p18
tp19
Rp20
ag17
(g10
S'q\x83\x9e\x8cG0j@'
p21
tp22
Rp23
aa(lp24
g17
(g10
S'0\x8e\xf3\x91\x02\x18\\?'
p25
tp26
Rp27
ag17
(g10
S'x8\x1f\x1c\xdf4\\?'
p28
tp29
Rp30
aa(lp31
g17
(g10
S'\xb6Jr\t;\x16@\xc0'
p32
tp33
Rp34
ag17
(g10
S'\xe2\n\xd0\xd0!\xabB@'
p35
tp36
Rp37
aa(lp38
g17
(g10
S'\x0f\xd3\xb8\x05\xdc\xcd\xe0?'
p39
tp40
Rp41
ag17
(g10
S'\x19\xcd\rg\x8a\xd0\xe0?'
p42
tp43
Rp44
aatp45
.