(cnumpy.core.multiarray
_reconstruct
p0
(cnumpy
ndarray
p1
(I0
tp2
S'b'
p3
tp4
Rp5
(I1
(I4
tp6
cnumpy
dtype
p7
(S'f8'
p8
I0
I1
tp9
Rp10
(I3
S'<'
p11
NNNI-1
I-1
I0
tp12
bI00
S'*n\xed\x95\xaf\xbba@\xd7E\xdf\xe8\x0c z?>:Em\x9al/@2h\xc3\xaf\xae\xdc\xe0?'
p13
tp14
b(lp15
(lp16
cnumpy.core.multiarray
scalar
p17
(g10
S'(F\x0e\xb0A\xc3\\@'
p18
tp19
Rp20
ag17
(g10
S'@\xb9\xd3S\xbe\x15e@'
p21
tp22
Rp23
aa(lp24
g17
(g10
S'R\xf6n\xf3$-b?'
p25
tp26
Rp27
ag17
(g10
S'B\x88\x03\xac\xc3\x94\x85?'
p28
tp29
Rp30
aa(lp31
g17
(g10
S'>:Em\x9al/@'
p32
tp33
Rp34
ag17
(g10
S'>:Em\x9al/@'
p35
tp36
Rp37
aa(lp38
g17
(g10
S'\xe1\xeeW`\xf9\xd9\xe0?'
p39
tp40
Rp41
ag17
(g10
S'\x83\xe1.\xffc\xdf\xe0?'
p42
tp43
Rp44
aatp45
.