(cnumpy.core.multiarray
_reconstruct
p0
(cnumpy
ndarray
p1
(I0
tp2
S'b'
p3
tp4
Rp5
(I1
(I4
tp6
cnumpy
dtype
p7
(S'f8'
p8
I0
I1
tp9
Rp10
(I3
S'<'
p11
NNNI-1
I-1
I0
tp12
bI00
S'JF)\xd4\x80\x86e@\n&\xec$\x8a\xbbT?\xb4b\x08\x85h\x02\x0c@\x8a\xb5i\x0b\xc0_\xe1?'
p13
tp14
b(lp15
(lp16
cnumpy.core.multiarray
scalar
p17
(g10
S'\xee0n)\xf6,a@'
p18
tp19
Rp20
ag17
(g10
S'\xa6[\xe4~\x0b\xe0i@'
p21
tp22
Rp23
aa(lp24
g17
(g10
S'$Q\xde\xa9\xc2FG\xbf'
p25
tp26
Rp27
ag17
(g10
S'S\xbac\xcf:\x8dj?'
p28
tp29
Rp30
aa(lp31
g17
(g10
S'F\xb0r~b\x83W\xc0'
p32
tp33
Rp34
ag17
(g10
S'r6\xc3\x06\x89CY@'
p35
tp36
Rp37
aa(lp38
g17
(g10
S'\xe8\x0f\x82@,V\xe1?'
p39
tp40
Rp41
ag17
(g10
S',[Q\xd6Si\xe1?'
p42
tp43
Rp44
aatp45
.