(cnumpy.core.multiarray
_reconstruct
p0
(cnumpy
ndarray
p1
(I0
tp2
S'b'
p3
tp4
Rp5
(I1
(I4
tp6
cnumpy
dtype
p7
(S'f8'
p8
I0
I1
tp9
Rp10
(I3
S'<'
p11
NNNI-1
I-1
I0
tp12
bI00
S'4ZLs\xa20\\@\x81\xc9P\xd9U\xd3\xd9>\xa2\xa9I\x89\xdd9~?\x12\x83\xff/\xc8\xde\xdf?'
p13
tp14
b(lp15
(lp16
cnumpy.core.multiarray
scalar
p17
(g10
S'sB\xfd\x9eNM[@'
p18
tp19
Rp20
ag17
(g10
S'\xf5q\x9bG\xf6\x13]@'
p21
tp22
Rp23
aa(lp24
g17
(g10
S'8\x17mM\xf7k\xd7>'
p25
tp26
Rp27
ag17
(g10
S'\xca{4e\xb4:\xdc>'
p28
tp29
Rp30
aa(lp31
g17
(g10
S'\xe1G`7-\xcb{?'
p32
tp33
Rp34
ag17
(g10
S'\xb1\x85\x99\xedFT\x80?'
p35
tp36
Rp37
aa(lp38
g17
(g10
S'\xe5\n\xf5/\x8c\xd7\xdf?'
p39
tp40
Rp41
ag17
(g10
S'?\xfb\t0\x04\xe6\xdf?'
p42
tp43
Rp44
aatp45
.