(cnumpy.core.multiarray
_reconstruct
p0
(cnumpy
ndarray
p1
(I0
tp2
S'b'
p3
tp4
Rp5
(I1
(I4
tp6
cnumpy
dtype
p7
(S'f8'
p8
I0
I1
tp9
Rp10
(I3
S'<'
p11
NNNI-1
I-1
I0
tp12
bI00
S'SF\x10\x0f\xb2\xd4_@;\x9c6\xa4}e\xdd>k]\xa7\x12\x1c\xe4z?!1\xd7\xd4*\xf7\xdf?'
p13
tp14
b(lp15
(lp16
cnumpy.core.multiarray
scalar
p17
(g10
S'\xda\x9a1?\xc0\xb2^@'
p18
tp19
Rp20
ag17
(g10
S'\xe6xw\xefQ{`@'
p21
tp22
Rp23
aa(lp24
g17
(g10
S'\xd2t\xef\xd9aW\xdd>'
p25
tp26
Rp27
ag17
(g10
S'\xa4\xc3}n\x99s\xdd>'
p28
tp29
Rp30
aa(lp31
g17
(g10
S'vuV)\x04lx?'
p32
tp33
Rp34
ag17
(g10
S'`E\xf8\xfb3\\}?'
p35
tp36
Rp37
aa(lp38
g17
(g10
S'\xb9*\xe4s\xd5\xf0\xdf?'
p39
tp40
Rp41
ag17
(g10
S'\x897\xca5\x80\xfd\xdf?'
p42
tp43
Rp44
aatp45
.