(cnumpy.core.multiarray
_reconstruct
p0
(cnumpy
ndarray
p1
(I0
tp2
S'b'
p3
tp4
Rp5
(I1
(I4
tp6
cnumpy
dtype
p7
(S'f8'
p8
I0
I1
tp9
Rp10
(I3
S'<'
p11
NNNI-1
I-1
I0
tp12
bI00
S'v\xb9\x06\x91e\xeb~@\xc0\xe7B\xb8a\xe2F>:\x9dT0 S\xa0?z\xea{@\xd9\x98\xe0?'
p13
tp14
b(lp15
(lp16
cnumpy.core.multiarray
scalar
p17
(g10
S'Y\x1f\xf0\ne\xeb~@'
p18
tp19
Rp20
ag17
(g10
S'\x93S\x1d\x17f\xeb~@'
p21
tp22
Rp23
aa(lp24
g17
(g10
S'Sa"\x96\x84G\xd3\xbe'
p25
tp26
Rp27
ag17
(g10
S';\xa4\xda\xf7f^\xd3>'
p28
tp29
Rp30
aa(lp31
g17
(g10
S'P\xe4e\xc1\xd8.{?'
p32
tp33
Rp34
ag17
(g10
S'\xea}|He@\xad?'
p35
tp36
Rp37
aa(lp38
g17
(g10
S'$qH+a\xa9\xd8?'
p39
tp40
Rp41
ag17
(g10
S'b\x9cS\xeb\x01\xdd\xe4?'
p42
tp43
Rp44
aatp45
.