(cnumpy.core.multiarray
_reconstruct
p0
(cnumpy
ndarray
p1
(I0
tp2
S'b'
p3
tp4
Rp5
(I1
(I4
tp6
cnumpy
dtype
p7
(S'f8'
p8
I0
I1
tp9
Rp10
(I3
S'<'
p11
NNNI-1
I-1
I0
tp12
bI00
S'\xb4\x019I\xbfuh@A\xd3\xaaC\x1b?Y?\x92\x8dV\rG@\x83?\x19\x7fR\xd1\xc7\xe3\xe0?'
p13
tp14
b(lp15
(lp16
cnumpy.core.multiarray
scalar
p17
(g10
S'\x8c\xa0\x9b\x12I\x14e@'
p18
tp19
Rp20
ag17
(g10
S'\xdcb\xd6\x7f5\xd7k@'
p21
tp22
Rp23
aa(lp24
g17
(g10
S"4\xdb'?\xb72Y?"
p25
tp26
Rp27
ag17
(g10
S'N\xcb-H\x7fKY?'
p28
tp29
Rp30
aa(lp31
g17
(g10
S'<\xb6\rS\xa0Po\xbf'
p32
tp33
Rp34
ag17
(g10
S'ZD\xb8\x17[*\x97?'
p35
tp36
Rp37
aa(lp38
g17
(g10
S'^(8JI\xe1\xe0?'
p39
tp40
Rp41
ag17
(g10
S'\xd4\xd5lXF\xe6\xe0?'
p42
tp43
Rp44
aatp45
.