(cnumpy.core.multiarray
_reconstruct
p0
(cnumpy
ndarray
p1
(I0
tp2
S'b'
p3
tp4
Rp5
(I1
(I4
tp6
cnumpy
dtype
p7
(S'f8'
p8
I0
I1
tp9
Rp10
(I3
S'<'
p11
NNNI-1
I-1
I0
tp12
bI00
S'm\xd5\xfb\xc8\xb70r@\xb7e\xc66\xbf\xa6\xfd>K\xe4\t\xad}9\xa8?K)?s-\x91\xe0?'
p13
tp14
b(lp15
(lp16
cnumpy.core.multiarray
scalar
p17
(g10
S'\xa4_\xda5\x84Kn@'
p18
tp19
Rp20
ag17
(g10
S'\x08{\nw\xad;u@'
p21
tp22
Rp23
aa(lp24
g17
(g10
S'\xa0$Do\xb7\x90#\xbf'
p25
tp26
Rp27
ag17
(g10
S'\x0e\xbe\xf5<g\xfa*?'
p28
tp29
Rp30
aa(lp31
g17
(g10
S'4%\xe3~\x85\x17\x90?'
p32
tp33
Rp34
ag17
(g10
S'\xfe\x1aQM\x9c3\xb4?'
p35
tp36
Rp37
aa(lp38
g17
(g10
S'f\x1f\x1f\x1f\xc8h\xe0?'
p39
tp40
Rp41
ag17
(g10
S'03_\xc7\x92\xb9\xe0?'
p42
tp43
Rp44
aatp45
.