(cnumpy.core.multiarray
_reconstruct
p0
(cnumpy
ndarray
p1
(I0
tp2
S'b'
p3
tp4
Rp5
(I1
(I4
tp6
cnumpy
dtype
p7
(S'f8'
p8
I0
I1
tp9
Rp10
(I3
S'<'
p11
NNNI-1
I-1
I0
tp12
bI00
S'O\xd6\x11\xebc_v@\x03\x8b\xf7ay\xab:?\x88\x0c\x8d[;A\xe7?\x89\xbdh\xd8L\xe5\xe0?'
p13
tp14
b(lp15
(lp16
cnumpy.core.multiarray
scalar
p17
(g10
S'\xd6\x181#lWq@'
p18
tp19
Rp20
ag17
(g10
S'\xc8\x93\xf2\xb2[g{@'
p21
tp22
Rp23
aa(lp24
g17
(g10
S'd#&QAg:?'
p25
tp26
Rp27
ag17
(g10
S'\xa2\xf2\xc8r\xb1\xef:?'
p28
tp29
Rp30
aa(lp31
g17
(g10
S'\xc0/\xc6W\xa3\x95\xae?'
p32
tp33
Rp34
ag17
(g10
S'\n\xdb\xce@\x8eL\xf6?'
p35
tp36
Rp37
aa(lp38
g17
(g10
S'\xcaG?@\xc1\xe1\xe0?'
p39
tp40
Rp41
ag17
(g10
S'H3\x92p\xd8\xe8\xe0?'
p42
tp43
Rp44
aatp45
.