(cnumpy.core.multiarray
_reconstruct
p0
(cnumpy
ndarray
p1
(I0
tp2
S'b'
p3
tp4
Rp5
(I1
(I4
tp6
cnumpy
dtype
p7
(S'f8'
p8
I0
I1
tp9
Rp10
(I3
S'<'
p11
NNNI-1
I-1
I0
tp12
bI00
S'l\xe7\x1b\x17W]x@r\x87\xf7qt\x16*?\xf8n=\xd5oV\xb9?6Y\xa3\n*\xde\xe0?'
p13
tp14
b(lp15
(lp16
cnumpy.core.multiarray
scalar
p17
(g10
S'sy9\x98\xc7\xe9s@'
p18
tp19
Rp20
ag17
(g10
S'eU\xfe\x95\xe6\xd0|@'
p21
tp22
Rp23
aa(lp24
g17
(g10
S'\xf2\x7f<\xb3\xa5\xca)?'
p25
tp26
Rp27
ag17
(g10
S'\xf2\x8e\xb20Cb*?'
p28
tp29
Rp30
aa(lp31
g17
(g10
S'0\xbaO"\x84\r\x8b\xbf'
p32
tp33
Rp34
ag17
(g10
S'\x9bjb\x17H\x07\xcb?'
p35
tp36
Rp37
aa(lp38
g17
(g10
S'9\x8a\xf7\x9d\x18\xdb\xe0?'
p39
tp40
Rp41
ag17
(g10
S'3(Ow;\xe1\xe0?'
p42
tp43
Rp44
aatp45
.