(cnumpy.core.multiarray
_reconstruct
p0
(cnumpy
ndarray
p1
(I0
tp2
S'b'
p3
tp4
Rp5
(I1
(I4
tp6
cnumpy
dtype
p7
(S'f8'
p8
I0
I1
tp9
Rp10
(I3
S'<'
p11
NNNI-1
I-1
I0
tp12
bI00
S'o/9\xcf6\x87w@0\xc4\r\x0e\xf3)\x17?\x13\x9c\x92\x1c\x86Sl?z\xd8\x08T\x95\xc4\xe0?'
p13
tp14
b(lp15
(lp16
cnumpy.core.multiarray
scalar
p17
(g10
S'`wZ\xab`\x98r@'
p18
tp19
Rp20
ag17
(g10
S'~\xe7\x17\xf3\x0cv|@'
p21
tp22
Rp23
aa(lp24
g17
(g10
S'\x8a2\\\xd3\x84\x9b\x16?'
p25
tp26
Rp27
ag17
(g10
S'\xd6U\xbfHa\xb8\x17?'
p28
tp29
Rp30
aa(lp31
g17
(g10
S'\x06[p8.mP\xbf'
p32
tp33
Rp34
ag17
(g10
S'jYW\xd5h7\x80?'
p35
tp36
Rp37
aa(lp38
g17
(g10
S']J\n}5\xc0\xe0?'
p39
tp40
Rp41
ag17
(g10
S'\x97f\x07+\xf5\xc8\xe0?'
p42
tp43
Rp44
aatp45
.