(cnumpy.core.multiarray
_reconstruct
p0
(cnumpy
ndarray
p1
(I0
tp2
S'b'
p3
tp4
Rp5
(I1
(I4
tp6
cnumpy
dtype
p7
(S'f8'
p8
I0
I1
tp9
Rp10
(I3
S'<'
p11
NNNI-1
I-1
I0
tp12
bI00
S'\xe4!1\xcd9kw@ \xdcq\xeb\xb2\x1b;?l\x14\xaa!\x83N\xc1?\xe0\x08n\xbc\xe7\xbd\xe0?'
p13
tp14
b(lp15
(lp16
cnumpy.core.multiarray
scalar
p17
(g10
S'r\xc4\xdfE:\x15r@'
p18
tp19
Rp20
ag17
(g10
S'V\x7f\x82T9\xc1|@'
p21
tp22
Rp23
aa(lp24
g17
(g10
S']n*\xb1 \xe3:?'
p25
tp26
Rp27
ag17
(g10
S'\xe3I\xb9%ET;?'
p28
tp29
Rp30
aa(lp31
g17
(g10
S'~(0\xbc+\xe1\xb7\xbf'
p32
tp33
Rp34
ag17
(g10
S'\x8c\x1e\xb6\x10\xceF\xd7?'
p35
tp36
Rp37
aa(lp38
g17
(g10
S':\x97\x8cH\x96\xba\xe0?'
p39
tp40
Rp41
ag17
(g10
S'\x86zO09\xc1\xe0?'
p42
tp43
Rp44
aatp45
.