(cnumpy.core.multiarray
_reconstruct
p0
(cnumpy
ndarray
p1
(I0
tp2
S'b'
p3
tp4
Rp5
(I1
(I4
tp6
cnumpy
dtype
p7
(S'f8'
p8
I0
I1
tp9
Rp10
(I3
S'<'
p11
NNNI-1
I-1
I0
tp12
bI00
S'OA%R\xde\xacf@\x02\x187\x94\xf7NL?*\xfbg:<U\x03@ eJg\x9c\x99\xe0?'
p13
tp14
b(lp15
(lp16
cnumpy.core.multiarray
scalar
p17
(g10
S'\xba\x1cC}\xbeZd@'
p18
tp19
Rp20
ag17
(g10
S"\xe4e\x07'\xfe\xfeh@"
p21
tp22
Rp23
aa(lp24
g17
(g10
S'\xee\xc5a\x0c\xdd,L?'
p25
tp26
Rp27
ag17
(g10
S'\x16j\x0c\x1c\x12qL?'
p28
tp29
Rp30
aa(lp31
g17
(g10
S'\x05;\xfa\xf8?\x12E\xc0'
p32
tp33
Rp34
ag17
(g10
S'k:G\x80\xe7|G@'
p35
tp36
Rp37
aa(lp38
g17
(g10
S'\x9e\x9bN!\xfc\x96\xe0?'
p39
tp40
Rp41
ag17
(g10
S'\xa2.F\xad<\x9c\xe0?'
p42
tp43
Rp44
aatp45
.