(cnumpy.core.multiarray
_reconstruct
p0
(cnumpy
ndarray
p1
(I0
tp2
S'b'
p3
tp4
Rp5
(I1
(I4
tp6
cnumpy
dtype
p7
(S'f8'
p8
I0
I1
tp9
Rp10
(I3
S'<'
p11
NNNI-1
I-1
I0
tp12
bI00
S'\xe9i\xd2\xbb**c@\xbb\xd8\xb1\xb2|\xbcz?.\x9fhqv\x16,@\xc8\xbb\xca|\x148\xe1?'
p13
tp14
b(lp15
(lp16
cnumpy.core.multiarray
scalar
p17
(g10
S'\\\xd1|\x08I\x84X@'
p18
tp19
Rp20
ag17
(g10
S'$kf\xf30\x12j@'
p21
tp22
Rp23
aa(lp24
g17
(g10
S'\x9cgT\x06\xdb,V\xbf'
p25
tp26
Rp27
ag17
(g10
S'\xaee|\x13\x18\x82\x8d?'
p28
tp29
Rp30
aa(lp31
g17
(g10
S'.\x9fhqv\x16,@'
p32
tp33
Rp34
ag17
(g10
S'.\x9fhqv\x16,@'
p35
tp36
Rp37
aa(lp38
g17
(g10
S'\xf3\xdbH\xf5\xbf3\xe1?'
p39
tp40
Rp41
ag17
(g10
S'\x9d\x9bL\x04i<\xe1?'
p42
tp43
Rp44
aatp45
.