(cnumpy.core.multiarray
_reconstruct
p0
(cnumpy
ndarray
p1
(I0
tp2
S'b'
p3
tp4
Rp5
(I1
(I4
tp6
cnumpy
dtype
p7
(S'f8'
p8
I0
I1
tp9
Rp10
(I3
S'<'
p11
NNNI-1
I-1
I0
tp12
bI00
S"2\x17\x0f\x89k\xack@\xb8\x8fk'\xb0s\xd4>\x88\x1c\xf7Z}\xa1\xe7?\x07 k\x88v\xb0\xe0?"
p13
tp14
b(lp15
(lp16
cnumpy.core.multiarray
scalar
p17
(g10
S'h+=\xc7\xee$b@'
p18
tp19
Rp20
ag17
(g10
S'~\x81p%\xf4\x99r@'
p21
tp22
Rp23
aa(lp24
g17
(g10
S'M.5\x90C\x888\xbf'
p25
tp26
Rp27
ag17
(g10
S'\xcb\x8ap\x11\xe1+9?'
p28
tp29
Rp30
aa(lp31
g17
(g10
S'(\xce\xbbK\xb3\xf7\xf4\xbf'
p32
tp33
Rp34
ag17
(g10
S'XuYS\x98L\x06@'
p35
tp36
Rp37
aa(lp38
g17
(g10
S'?eI\xd3!\x1b\xdc?'
p39
tp40
Rp41
ag17
(g10
S"n\x8d1'\\S\xe3?"
p42
tp43
Rp44
aatp45
.