(cnumpy.core.multiarray
_reconstruct
p0
(cnumpy
ndarray
p1
(I0
tp2
S'b'
p3
tp4
Rp5
(I1
(I4
tp6
cnumpy
dtype
p7
(S'f8'
p8
I0
I1
tp9
Rp10
(I3
S'<'
p11
NNNI-1
I-1
I0
tp12
bI00
S'\x1c\xb6\xf6\x01\\\xf7g@\xcb\xfbv\xb1Z\x84T?4\xb4\n\xe3\xa088@,(b\r\xfa\x14\xe1?'
p13
tp14
b(lp15
(lp16
cnumpy.core.multiarray
scalar
p17
(g10
S'\xf0o!\x89\xba[^@'
p18
tp19
Rp20
ag17
(g10
S' Z\xae_m`p@'
p21
tp22
Rp23
aa(lp24
g17
(g10
S'z)OS\x100a\xbf'
p25
tp26
Rp27
ag17
(g10
S'\xa2\x12c\x825\xdar?'
p28
tp29
Rp30
aa(lp31
g17
(g10
S'4\xb4\n\xe3\xa088@'
p32
tp33
Rp34
ag17
(g10
S'4\xb4\n\xe3\xa088@'
p35
tp36
Rp37
aa(lp38
g17
(g10
S'\x9bTF\xf9d\x06\xe1?'
p39
tp40
Rp41
ag17
(g10
S'\xbd\xfb}!\x8f#\xe1?'
p42
tp43
Rp44
aatp45
.