(cnumpy.core.multiarray
_reconstruct
p0
(cnumpy
ndarray
p1
(I0
tp2
S'b'
p3
tp4
Rp5
(I1
(I4
tp6
cnumpy
dtype
p7
(S'f8'
p8
I0
I1
tp9
Rp10
(I3
S'<'
p11
NNNI-1
I-1
I0
tp12
bI00
S'Q\xfb/\x0f#0k@bG.\x01P\x94\xaf>\xd5\xc5\xab\t4p\x91?\xb5Dr\xcfS\x9b\xe0?'
p13
tp14
b(lp15
(lp16
cnumpy.core.multiarray
scalar
p17
(g10
S' \x12A)\xcdcf@'
p18
tp19
Rp20
ag17
(g10
S'\x82\xe4\x1e\xf5x\xfco@'
p21
tp22
Rp23
aa(lp24
g17
(g10
S'\xc8\x81`@u\x8e\r\xbf'
p25
tp26
Rp27
ag17
(g10
S'\x04\xf4i\xc0\x17\x8b\x0e?'
p28
tp29
Rp30
aa(lp31
g17
(g10
S'\xecpV\xf8\x8a\xf1\x84?'
p32
tp33
Rp34
ag17
(g10
S'4S,\x97\xa2g\x98?'
p35
tp36
Rp37
aa(lp38
g17
(g10
S'>\x1a4O\xca\xf0\xdc?'
p39
tp40
Rp41
ag17
(g10
S'K|JwB\xbe\xe2?'
p42
tp43
Rp44
aatp45
.