(cnumpy.core.multiarray
_reconstruct
p0
(cnumpy
ndarray
p1
(I0
tp2
S'b'
p3
tp4
Rp5
(I1
(I4
tp6
cnumpy
dtype
p7
(S'f8'
p8
I0
I1
tp9
Rp10
(I3
S'<'
p11
NNNI-1
I-1
I0
tp12
bI00
S"\xfa\x9a\\WVWr@u_x\xbc\xb4r\xef>\xa5\xe7'\xba3\x98\x83?\x82\xb99d\x15\x81\xe0?"
p13
tp14
b(lp15
(lp16
cnumpy.core.multiarray
scalar
p17
(g10
S'9u]YV\xbfn@'
p18
tp19
Rp20
ag17
(g10
S'X{\n\x82\x01Ou@'
p21
tp22
Rp23
aa(lp24
g17
(g10
S'C\xfa\x01"FB\xef>'
p25
tp26
Rp27
ag17
(g10
S'\xa7\xc4\xeeV#\xa3\xef>'
p28
tp29
Rp30
aa(lp31
g17
(g10
S'u\xe1\x9bhB\xe7s?'
p32
tp33
Rp34
ag17
(g10
S'\x90\xde\x01@\xc6<\x8d?'
p35
tp36
Rp37
aa(lp38
g17
(g10
S'|cR\xae\xcbz\xe0?'
p39
tp40
Rp41
ag17
(g10
S'\x88\x0f!\x1a_\x87\xe0?'
p42
tp43
Rp44
aatp45
.