(cnumpy.core.multiarray
_reconstruct
p0
(cnumpy
ndarray
p1
(I0
tp2
S'b'
p3
tp4
Rp5
(I1
(I4
tp6
cnumpy
dtype
p7
(S'f8'
p8
I0
I1
tp9
Rp10
(I3
S'<'
p11
NNNI-1
I-1
I0
tp12
bI00
S'\xb1X\xd6\x8a\x0fXh@Z\r\xdc\xd8B\xeeA?<Vz\xaeUD\xec?O}\xd0R\x1a\x88\xe0?'
p13
tp14
b(lp15
(lp16
cnumpy.core.multiarray
scalar
p17
(g10
S'\x9aue]z b@'
p18
tp19
Rp20
ag17
(g10
S'\xc8;G\xb8\xa4\x8fn@'
p21
tp22
Rp23
aa(lp24
g17
(g10
S'\xdbv\xdc\x9bt9R\xbf'
p25
tp26
Rp27
ag17
(g10
S'\x1aB\\\xba\xdb\x13b?'
p28
tp29
Rp30
aa(lp31
g17
(g10
S'\x9e\xf3U\x0e\x94{\xe7?'
p32
tp33
Rp34
ag17
(g10
S'm\\O\xa7\x8b\x86\xf0?'
p35
tp36
Rp37
aa(lp38
g17
(g10
S'\xc6\x80A\xc3Es\xe0?'
p39
tp40
Rp41
ag17
(g10
S'\xd8y_\xe2\xee\x9c\xe0?'
p42
tp43
Rp44
aatp45
.