(cnumpy.core.multiarray
_reconstruct
p0
(cnumpy
ndarray
p1
(I0
tp2
S'b'
p3
tp4
Rp5
(I1
(I4
tp6
cnumpy
dtype
p7
(S'f8'
p8
I0
I1
tp9
Rp10
(I3
S'<'
p11
NNNI-1
I-1
I0
tp12
bI00
S'L2\t\xc8\x8f\x94i@\xf8T\xd8\x00\x9eTR?v\xcc(5\x89`\x11@\xe3oU\xa8V(\xe1?'
p13
tp14
b(lp15
(lp16
cnumpy.core.multiarray
scalar
p17
(g10
S'\xef;L\xa634`@'
p18
tp19
Rp20
ag17
(g10
S'T\x14\xe3\xf4uzq@'
p21
tp22
Rp23
aa(lp24
g17
(g10
S'\xa2dH!<\xe8`\xbf'
p25
tp26
Rp27
ag17
(g10
S'\xcd\\\x10\x11m\x9eq?'
p28
tp29
Rp30
aa(lp31
g17
(g10
S'}\xe0rC\xdfmr\xc0'
p32
tp33
Rp34
ag17
(g10
S'\xe1&\x1c\x8d\xe3\xf8r@'
p35
tp36
Rp37
aa(lp38
g17
(g10
S'K\x1f\xd2nk\x19\xe1?'
p39
tp40
Rp41
ag17
(g10
S'{\xc0\xd8\xe1A7\xe1?'
p42
tp43
Rp44
aatp45
.