(cnumpy.core.multiarray
_reconstruct
p0
(cnumpy
ndarray
p1
(I0
tp2
S'b'
p3
tp4
Rp5
(I1
(I4
tp6
cnumpy
dtype
p7
(S'f8'
p8
I0
I1
tp9
Rp10
(I3
S'<'
p11
NNNI-1
I-1
I0
tp12
bI00
S'\xec\x00>\xc9\xe0\xefg@\xcdCp\x8d\xb3Id?aC\x92zz(0@\x17o\xe0Z=5\xe1?'
p13
tp14
b(lp15
(lp16
cnumpy.core.multiarray
scalar
p17
(g10
S']\x8d\xa0\xde\xb5N_@'
p18
tp19
Rp20
ag17
(g10
S'\x95\xdd\x95Q3\x1cp@'
p21
tp22
Rp23
aa(lp24
g17
(g10
S'\xbeH7\xd2\xb5G_\xbf'
p25
tp26
Rp27
ag17
(g10
S'\xfc\x15\xfe\x01\xa1\x1b|?'
p28
tp29
Rp30
aa(lp31
g17
(g10
S'aC\x92zz(0@'
p32
tp33
Rp34
ag17
(g10
S'aC\x92zz(0@'
p35
tp36
Rp37
aa(lp38
g17
(g10
S'\xd1\xd3\xc4\x1d\x9b-\xe1?'
p39
tp40
Rp41
ag17
(g10
S']\n\xfc\x97\xdf<\xe1?'
p42
tp43
Rp44
aatp45
.