(cnumpy.core.multiarray
_reconstruct
p0
(cnumpy
ndarray
p1
(I0
tp2
S'b'
p3
tp4
Rp5
(I1
(I4
tp6
cnumpy
dtype
p7
(S'f8'
p8
I0
I1
tp9
Rp10
(I3
S'<'
p11
NNNI-1
I-1
I0
tp12
bI00
S'\xb0R`\x9c\x16Pk@:incP<\x00?\xe3A\xe9\xa91\xac\xb4?<n\x7fwt\xbb\xe0?'
p13
tp14
b(lp15
(lp16
cnumpy.core.multiarray
scalar
p17
(g10
S'\xec\xfeo\xa6\xa8\x13d@'
p18
tp19
Rp20
ag17
(g10
S':S(IBFq@'
p21
tp22
Rp23
aa(lp24
g17
(g10
S'otP\xd9z\xbc@\xbf'
p25
tp26
Rp27
ag17
(g10
S'\x97A\xbe\xe5\x04\xc4B?'
p28
tp29
Rp30
aa(lp31
g17
(g10
S'\xf2\xc9\x96\x8b#\xbb\xa8?'
p32
tp33
Rp34
ag17
(g10
S'\xcd\x1e\x07\x8e\xd1\xfa\xbc?'
p35
tp36
Rp37
aa(lp38
g17
(g10
S'&xl\xa3\xda)\xe0?'
p39
tp40
Rp41
ag17
(g10
S'Rd\x92K\x0eM\xe1?'
p42
tp43
Rp44
aatp45
.