(cnumpy.core.multiarray
_reconstruct
p0
(cnumpy
ndarray
p1
(I0
tp2
S'b'
p3
tp4
Rp5
(I1
(I4
tp6
cnumpy
dtype
p7
(S'f8'
p8
I0
I1
tp9
Rp10
(I3
S'<'
p11
NNNI-1
I-1
I0
tp12
bI00
S'r\x82\xcfT\xb4\x84j@\xab#\x16\x929^N?m\x82Y\xbd\xd3z\xf3?\xe7A\xf7<\x85\xa0\xe0?'
p13
tp14
b(lp15
(lp16
cnumpy.core.multiarray
scalar
p17
(g10
S'W\xda\xd5&\xf0\xb2a@'
p18
tp19
Rp20
ag17
(g10
S'F\x95dA<\xabq@'
p21
tp22
Rp23
aa(lp24
g17
(g10
S'\xce\x05\x1e\x1f\r\x04\\\xbf'
p25
tp26
Rp27
ag17
(g10
S'\xbd\x14\x9aX#1m?'
p28
tp29
Rp30
aa(lp31
g17
(g10
S'M;\xe58\xbfF&\xc0'
p32
tp33
Rp34
ag17
(g10
S'\xe9\x9b;(t%+@'
p35
tp36
Rp37
aa(lp38
g17
(g10
S'\xd3]XN\xdb\x90\xe0?'
p39
tp40
Rp41
ag17
(g10
S'\xfb%\x96+/\xb0\xe0?'
p42
tp43
Rp44
aatp45
.