(cnumpy.core.multiarray
_reconstruct
p0
(cnumpy
ndarray
p1
(I0
tp2
S'b'
p3
tp4
Rp5
(I1
(I4
tp6
cnumpy
dtype
p7
(S'f8'
p8
I0
I1
tp9
Rp10
(I3
S'<'
p11
NNNI-1
I-1
I0
tp12
bI00
S'< \x12g\n\xa9o@y\xe3\x08i\xc1\x81Z?b\xfd\xb6>6x\xe1?F\xf9\xdc\xc6L\xc1\xe0?'
p13
tp14
b(lp15
(lp16
cnumpy.core.multiarray
scalar
p17
(g10
S'\xc4f\x82j02j@'
p18
tp19
Rp20
ag17
(g10
S'\xda\xec\xd01\xf2\x8fr@'
p21
tp22
Rp23
aa(lp24
g17
(g10
S'\xbf\xb8\xa7bPvZ?'
p25
tp26
Rp27
ag17
(g10
S'3\x0ejo2\x8dZ?'
p28
tp29
Rp30
aa(lp31
g17
(g10
S't\xc30x*\xb6\x05\xc0'
p32
tp33
Rp34
ag17
(g10
S'$B\x8c\x97Er\x0e@'
p35
tp36
Rp37
aa(lp38
g17
(g10
S'\xaexL\x8a\xd2\xbe\xe0?'
p39
tp40
Rp41
ag17
(g10
S'\xdeym\x03\xc7\xc3\xe0?'
p42
tp43
Rp44
aatp45
.