(cnumpy.core.multiarray
_reconstruct
p0
(cnumpy
ndarray
p1
(I0
tp2
S'b'
p3
tp4
Rp5
(I1
(I4
tp6
cnumpy
dtype
p7
(S'f8'
p8
I0
I1
tp9
Rp10
(I3
S'<'
p11
NNNI-1
I-1
I0
tp12
bI00
S"\xb4'\xa8/}\xf0k@\x15\n\xd3j\xe5]\n?\xfe\xccJ>k/\xcd?k\xe7{Va\xc5\xe0?"
p13
tp14
b(lp15
(lp16
cnumpy.core.multiarray
scalar
p17
(g10
S'\xd6\xc6NL!(i@'
p18
tp19
Rp20
ag17
(g10
S'\x92\x88\x01\x13\xd9\xb8n@'
p21
tp22
Rp23
aa(lp24
g17
(g10
S'\xf9\x86q5\xc3e\t?'
p25
tp26
Rp27
ag17
(g10
S'1\x8d4\xa0\x07V\x0b?'
p28
tp29
Rp30
aa(lp31
g17
(g10
S'\xa0vU%\xf6S\x9e?'
p32
tp33
Rp34
ag17
(g10
S'\x94u\xf5\xdb+J\xdb?'
p35
tp36
Rp37
aa(lp38
g17
(g10
S'n\x84*\x025\xc1\xe0?'
p39
tp40
Rp41
ag17
(g10
S'hJ\xcd\xaa\x8d\xc9\xe0?'
p42
tp43
Rp44
aatp45
.