(cnumpy.core.multiarray
_reconstruct
p0
(cnumpy
ndarray
p1
(I0
tp2
S'b'
p3
tp4
Rp5
(I1
(I4
tp6
cnumpy
dtype
p7
(S'f8'
p8
I0
I1
tp9
Rp10
(I3
S'<'
p11
NNNI-1
I-1
I0
tp12
bI00
S'Q\x057%xLf@\x02\x9cl\x9f[H\x18?\xd7g"\x88\x00\xe1\x91?\xa6\x04f\x84D\xf0\xe0?'
p13
tp14
b(lp15
(lp16
cnumpy.core.multiarray
scalar
p17
(g10
S'6"A.C\xb6c@'
p18
tp19
Rp20
ag17
(g10
S'l\xe8,\x1c\xad\xe2h@'
p21
tp22
Rp23
aa(lp24
g17
(g10
S'\xfcbKnq\xbc\x17?'
p25
tp26
Rp27
ag17
(g10
S'\x08\xd5\x8d\xd0E\xd4\x18?'
p28
tp29
Rp30
aa(lp31
g17
(g10
S'\xaa&Gaz\xd3\x84?'
p32
tp33
Rp34
ag17
(g10
S'Y<\xa1\xdfCX\x99?'
p35
tp36
Rp37
aa(lp38
g17
(g10
S'}\x11a\x8d\x1e\xeb\xe0?'
p39
tp40
Rp41
ag17
(g10
S'\xcf\xf7j{j\xf5\xe0?'
p42
tp43
Rp44
aatp45
.