(cnumpy.core.multiarray
_reconstruct
p0
(cnumpy
ndarray
p1
(I0
tp2
S'b'
p3
tp4
Rp5
(I1
(I4
tp6
cnumpy
dtype
p7
(S'f8'
p8
I0
I1
tp9
Rp10
(I3
S'<'
p11
NNNI-1
I-1
I0
tp12
bI00
S"M\xfc\x173nB`@Y\x17\xae\xa3r\xcb|?,88'8g*@\xba\x11_M\xbe\xca\xe0?"
p13
tp14
b(lp15
(lp16
cnumpy.core.multiarray
scalar
p17
(g10
S'\x04\xef\xad\xb1\x82\xdcV@'
p18
tp19
Rp20
ag17
(g10
S'\x18\x01Y\r\x9b\x16e@'
p21
tp22
Rp23
aa(lp24
g17
(g10
S'`S\x80\xf1\xa1l.?'
p25
tp26
Rp27
ag17
(g10
S'\x0c\x16\xe8\x1b\xc0Q\x8c?'
p28
tp29
Rp30
aa(lp31
g17
(g10
S",88'8g*@"
p32
tp33
Rp34
ag17
(g10
S",88'8g*@"
p35
tp36
Rp37
aa(lp38
g17
(g10
S'n\xe5`(\xae\xc6\xe0?'
p39
tp40
Rp41
ag17
(g10
S'\x06>]r\xce\xce\xe0?'
p42
tp43
Rp44
aatp45
.