(cnumpy.core.multiarray
_reconstruct
p0
(cnumpy
ndarray
p1
(I0
tp2
S'b'
p3
tp4
Rp5
(I1
(I4
tp6
cnumpy
dtype
p7
(S'f8'
p8
I0
I1
tp9
Rp10
(I3
S'<'
p11
NNNI-1
I-1
I0
tp12
bI00
S'V\x02oX\x18\x12`@\x08oc\xd5\x0e\x0c\x98?AQ\x1c(\r\xf75@7\xe8I\x112_\xe1?'
p13
tp14
b(lp15
(lp16
cnumpy.core.multiarray
scalar
p17
(g10
S'``\xbck\xf3.;@'
p18
tp19
Rp20
ag17
(g10
S'\xa0xfCR\xbel@'
p21
tp22
Rp23
aa(lp24
g17
(g10
S'\x18$\x99\xbb\x03?\x8b\xbf'
p25
tp26
Rp27
ag17
(g10
S'\x0e\xb8I\xc4\xcf\xdb\xae?'
p28
tp29
Rp30
aa(lp31
g17
(g10
S'AQ\x1c(\r\xf75@'
p32
tp33
Rp34
ag17
(g10
S'AQ\x1c(\r\xf75@'
p35
tp36
Rp37
aa(lp38
g17
(g10
S'\xc0\x12\x1e\xe7x\\\xe1?'
p39
tp40
Rp41
ag17
(g10
S'\xae\xbdu;\xeba\xe1?'
p42
tp43
Rp44
aatp45
.