(cnumpy.core.multiarray
_reconstruct
p0
(cnumpy
ndarray
p1
(I0
tp2
S'b'
p3
tp4
Rp5
(I1
(I4
tp6
cnumpy
dtype
p7
(S'f8'
p8
I0
I1
tp9
Rp10
(I3
S'<'
p11
NNNI-1
I-1
I0
tp12
bI00
S'ZY\xc6\xdf\xd2\xa6R@j\xd8\x02\xbc\xdf\xd2\x9e?\xf1\x88\xa2"\xa0-.@\xe1p c@\x11\xe1?'
p13
tp14
b(lp15
(lp16
cnumpy.core.multiarray
scalar
p17
(g10
S'\xb4\x90R\x8e 8B@'
p18
tp19
Rp20
ag17
(g10
S'Zjcx\x951\\@'
p21
tp22
Rp23
aa(lp24
g17
(g10
S'@y\x0c\x01\xca\x82T?'
p25
tp26
Rp27
ag17
(g10
S'\xa0t\xfak\xc9.\xae?'
p28
tp29
Rp30
aa(lp31
g17
(g10
S'\nd\xa2"\xa0-.@'
p32
tp33
Rp34
ag17
(g10
S'\xd8\xad\xa2"\xa0-.@'
p35
tp36
Rp37
aa(lp38
g17
(g10
S'\x91e\xce2\xb7\x0e\xe1?'
p39
tp40
Rp41
ag17
(g10
S'1|r\x93\xc9\x13\xe1?'
p42
tp43
Rp44
aatp45
.