(cnumpy.core.multiarray
_reconstruct
p0
(cnumpy
ndarray
p1
(I0
tp2
S'b'
p3
tp4
Rp5
(I1
(I4
tp6
cnumpy
dtype
p7
(S'f8'
p8
I0
I1
tp9
Rp10
(I3
S'<'
p11
NNNI-1
I-1
I0
tp12
bI00
S'\xf1\x90\xc7,2\xc9]@|2X{+\xa0\x90?\xa1x\x16Dy2<@\xb1R\xc9\x96\xb4\n\xe1?'
p13
tp14
b(lp15
(lp16
cnumpy.core.multiarray
scalar
p17
(g10
S'(\xf0\xd4\xf4\xe2`J@'
p18
tp19
Rp20
ag17
(g10
S'\xe7T\x92o\xf90g@'
p21
tp22
Rp23
aa(lp24
g17
(g10
S'\xb0\xd5\xadq\xdc\xd6k\xbf'
p25
tp26
Rp27
ag17
(g10
S'\xd7\x0fsB\x99]\xa2?'
p28
tp29
Rp30
aa(lp31
g17
(g10
S'\xa1x\x16Dy2<@'
p32
tp33
Rp34
ag17
(g10
S'\xa1x\x16Dy2<@'
p35
tp36
Rp37
aa(lp38
g17
(g10
S'\xc0J\xaf\xcb\xdc\x07\xe1?'
p39
tp40
Rp41
ag17
(g10
S'\xa2Z\xe3a\x8c\r\xe1?'
p42
tp43
Rp44
aatp45
.