(cnumpy.core.multiarray
_reconstruct
p0
(cnumpy
ndarray
p1
(I0
tp2
S'b'
p3
tp4
Rp5
(I1
(I4
tp6
cnumpy
dtype
p7
(S'f8'
p8
I0
I1
tp9
Rp10
(I3
S'<'
p11
NNNI-1
I-1
I0
tp12
bI00
S'\xd0\x8b\xc9\xd4Q\x8dT@\xbf\x1ee\x06\xcaB\x99?X\xae\x7f@/\xc46@r\x8fTf\xb9;\xe1?'
p13
tp14
b(lp15
(lp16
cnumpy.core.multiarray
scalar
p17
(g10
S'\x97\xfe?"\xc6\xc4E@'
p18
tp19
Rp20
ag17
(g10
S'T\x18s\x98@8^@'
p21
tp22
Rp23
aa(lp24
g17
(g10
S'`\r\xcc\xaf\xe9\xed^?'
p25
tp26
Rp27
ag17
(g10
S'T\xbe\xe6\xb8ZK\xa8?'
p28
tp29
Rp30
aa(lp31
g17
(g10
S'X\xae\x7f@/\xc46@'
p32
tp33
Rp34
ag17
(g10
S'X\xae\x7f@/\xc46@'
p35
tp36
Rp37
aa(lp38
g17
(g10
S'G\xc3\x13\x95B9\xe1?'
p39
tp40
Rp41
ag17
(g10
S'\x9d[\x9570>\xe1?'
p42
tp43
Rp44
aatp45
.