(cnumpy.core.multiarray
_reconstruct
p0
(cnumpy
ndarray
p1
(I0
tp2
S'b'
p3
tp4
Rp5
(I1
(I4
tp6
cnumpy
dtype
p7
(S'f8'
p8
I0
I1
tp9
Rp10
(I3
S'<'
p11
NNNI-1
I-1
I0
tp12
bI00
S"j|\xac L\xb6U@\x1a;Ds\xe4;\x9e?\x8e\nxP\xbdb)@\x92>'\x98H\xfa\xe0?"
p13
tp14
b(lp15
(lp16
cnumpy.core.multiarray
scalar
p17
(g10
S'\x8a\xc9\xc5\xd2)\xdf>@'
p18
tp19
Rp20
ag17
(g10
S'9\xc3S\xe6f\xdaa@'
p21
tp22
Rp23
aa(lp24
g17
(g10
S'\xd0\x9b\xbf\x03j\xc3y\xbf'
p25
tp26
Rp27
ag17
(g10
S'J\x17\xde\xd9(\xba\xb0?'
p28
tp29
Rp30
aa(lp31
g17
(g10
S'\x8e\nxP\xbdb)@'
p32
tp33
Rp34
ag17
(g10
S'\x8e\nxP\xbdb)@'
p35
tp36
Rp37
aa(lp38
g17
(g10
S'c\xd5_Iz\xf7\xe0?'
p39
tp40
Rp41
ag17
(g10
S'\xc1\xa7\xee\xe6\x16\xfd\xe0?'
p42
tp43
Rp44
aatp45
.