(cnumpy.core.multiarray
_reconstruct
p0
(cnumpy
ndarray
p1
(I0
tp2
S'b'
p3
tp4
Rp5
(I1
(I4
tp6
cnumpy
dtype
p7
(S'f8'
p8
I0
I1
tp9
Rp10
(I3
S'<'
p11
NNNI-1
I-1
I0
tp12
bI00
S'fa5F\x82\x19X@\x8f0q\xd3<\xd6\xa0?p+\xd6\xacxf1@o/u\x10\xc5\xde\xe0?'
p13
tp14
b(lp15
(lp16
cnumpy.core.multiarray
scalar
p17
(g10
S'%hp\x19gPC@'
p18
tp19
Rp20
ag17
(g10
S']G\xd9\x7fhEc@'
p21
tp22
Rp23
aa(lp24
g17
(g10
S' \xcbT|\x82\xdej\xbf'
p25
tp26
Rp27
ag17
(g10
S'\xe8\xd6S\xe70\xad\xb1?'
p28
tp29
Rp30
aa(lp31
g17
(g10
S'p+\xd6\xacxf1@'
p32
tp33
Rp34
ag17
(g10
S'p+\xd6\xacxf1@'
p35
tp36
Rp37
aa(lp38
g17
(g10
S'\xa5\x01%@\x9b\xdc\xe0?'
p39
tp40
Rp41
ag17
(g10
S'9]\xc5\xe0\xee\xe0\xe0?'
p42
tp43
Rp44
aatp45
.