(cnumpy.core.multiarray
_reconstruct
p0
(cnumpy
ndarray
p1
(I0
tp2
S'b'
p3
tp4
Rp5
(I1
(I4
tp6
cnumpy
dtype
p7
(S'f8'
p8
I0
I1
tp9
Rp10
(I3
S'<'
p11
NNNI-1
I-1
I0
tp12
bI00
S'\xcf [\x02\x82Lu@FD/\x95\xfc}I?/!5\xfa\xaabw?a\xc7\xbb\x99\xfa\xc7\xe0?'
p13
tp14
b(lp15
(lp16
cnumpy.core.multiarray
scalar
p17
(g10
S'\xb4\x13X\xc9\rWk@'
p18
tp19
Rp20
ag17
(g10
S'\xc47\n }\xed|@'
p21
tp22
Rp23
aa(lp24
g17
(g10
S'\xe8\x16Dy\x9e<=\xbf'
p25
tp26
Rp27
ag17
(g10
S'\x00%\xc0\x19\x92f`?'
p28
tp29
Rp30
aa(lp31
g17
(g10
S'\xc4lL\xc4\xd9\xf3\x8a\xbf'
p32
tp33
Rp34
ag17
(g10
S'\xfa\xc6@_B+\x99?'
p35
tp36
Rp37
aa(lp38
g17
(g10
S'\x8ag\x04j\xd9\xc2\xe0?'
p39
tp40
Rp41
ag17
(g10
S"8's\xc9\x1b\xcd\xe0?"
p42
tp43
Rp44
aatp45
.