(cnumpy.core.multiarray
_reconstruct
p0
(cnumpy
ndarray
p1
(I0
tp2
S'b'
p3
tp4
Rp5
(I1
(I4
tp6
cnumpy
dtype
p7
(S'f8'
p8
I0
I1
tp9
Rp10
(I3
S'<'
p11
NNNI-1
I-1
I0
tp12
bI00
S'\xe4\\\x1c>\x8d}f@Q\xda\xa5\xe5\xe4\xcee?0\x07\xadp\x06\xa5\xed?\xc1z\\Wp\x1a\xe1?'
p13
tp14
b(lp15
(lp16
cnumpy.core.multiarray
scalar
p17
(g10
S'\x8bs|Z\xf8eb@'
p18
tp19
Rp20
ag17
(g10
S'=F\xbc!"\x95j@'
p21
tp22
Rp23
aa(lp24
g17
(g10
S'4fU\xc8\xfb\x07E?'
p25
tp26
Rp27
ag17
(g10
S'\x8a-\x9bl\xe5-s?'
p28
tp29
Rp30
aa(lp31
g17
(g10
S'Y\xfe\xca\x1a\x87\x8a\x07\xc0'
p32
tp33
Rp34
ag17
(g10
S'\xf8\xc0\x90)\x85.\x13@'
p35
tp36
Rp37
aa(lp38
g17
(g10
S';5\\^k\x17\xe1?'
p39
tp40
Rp41
ag17
(g10
S'G\xc0\\Pu\x1d\xe1?'
p42
tp43
Rp44
aatp45
.