(cnumpy.core.multiarray
_reconstruct
p0
(cnumpy
ndarray
p1
(I0
tp2
S'b'
p3
tp4
Rp5
(I1
(I4
tp6
cnumpy
dtype
p7
(S'f8'
p8
I0
I1
tp9
Rp10
(I3
S'<'
p11
NNNI-1
I-1
I0
tp12
bI00
S'\xd8\xcf\xac\x1dJ\xffj@,J\xe0\x1cyxK?\xdav}V*\xb2\x05@6\x9a\x95\xbd\xac\xde\xe0?'
p13
tp14
b(lp15
(lp16
cnumpy.core.multiarray
scalar
p17
(g10
S'}[7o\xe2\xbfh@'
p18
tp19
Rp20
ag17
(g10
S'3D"\xcc\xb1>m@'
p21
tp22
Rp23
aa(lp24
g17
(g10
S'\xe6\xf0\xf1\x03\x99<K?'
p25
tp26
Rp27
ag17
(g10
S'r\xa3\xce5Y\xb4K?'
p28
tp29
Rp30
aa(lp31
g17
(g10
S'\x93\x07j\x13\xb2\x95H\xc0'
p32
tp33
Rp34
ag17
(g10
S'o\xb69^\xf7KK@'
p35
tp36
Rp37
aa(lp38
g17
(g10
S':\x14\xbe\x1f\n\xdd\xe0?'
p39
tp40
Rp41
ag17
(g10
S'2 m[O\xe0\xe0?'
p42
tp43
Rp44
aatp45
.