(cnumpy.core.multiarray
_reconstruct
p0
(cnumpy
ndarray
p1
(I0
tp2
S'b'
p3
tp4
Rp5
(I1
(I4
tp6
cnumpy
dtype
p7
(S'f8'
p8
I0
I1
tp9
Rp10
(I3
S'<'
p11
NNNI-1
I-1
I0
tp12
bI00
S"\xae\xc3kQC\xf2l@\xf8\xb9)\x7f~D!?'~=b\xe3\xd9K@Z\xab\xee\xc5\xaf\x14\xe1?"
p13
tp14
b(lp15
(lp16
cnumpy.core.multiarray
scalar
p17
(g10
S'\xd8\x17\x8d]\xd9\x07h@'
p18
tp19
Rp20
ag17
(g10
S'\xc27\xa5\xa2V\xeep@'
p21
tp22
Rp23
aa(lp24
g17
(g10
S'\xb6\x17\xdbAr-:\xbf'
p25
tp26
Rp27
ag17
(g10
S'\xd7h\x82`\xf8\xb8E?'
p28
tp29
Rp30
aa(lp31
g17
(g10
S"'~=b\xe3\xd9K@"
p32
tp33
Rp34
ag17
(g10
S"'~=b\xe3\xd9K@"
p35
tp36
Rp37
aa(lp38
g17
(g10
S'.\x08\x11E\xcf\xf9\xe0?'
p39
tp40
Rp41
ag17
(g10
S'\x86N\xccF\x90/\xe1?'
p42
tp43
Rp44
aatp45
.