(cnumpy.core.multiarray
_reconstruct
p0
(cnumpy
ndarray
p1
(I0
tp2
S'b'
p3
tp4
Rp5
(I1
(I4
tp6
cnumpy
dtype
p7
(S'f8'
p8
I0
I1
tp9
Rp10
(I3
S'<'
p11
NNNI-1
I-1
I0
tp12
bI00
S'\x7f\xe3\x0c,]\xech@j<\xcdE"#M?KL!\xee\xb9Is@)\xa8yX\x1c\xd5\xe0?'
p13
tp14
b(lp15
(lp16
cnumpy.core.multiarray
scalar
p17
(g10
S'^\x89u&\xbe\x0cf@'
p18
tp19
Rp20
ag17
(g10
S'\xa0=\xa41\xfc\xcbk@'
p21
tp22
Rp23
aa(lp24
g17
(g10
S'x4\x87\x8e\xc0\xb1#?'
p25
tp26
Rp27
ag17
(g10
S'\xdbU\xfc3\xea\xacZ?'
p28
tp29
Rp30
aa(lp31
g17
(g10
S'KL!\xee\xb9Is@'
p32
tp33
Rp34
ag17
(g10
S'KL!\xee\xb9Is@'
p35
tp36
Rp37
aa(lp38
g17
(g10
S'^P\x1e\xab\xab\xd0\xe0?'
p39
tp40
Rp41
ag17
(g10
S'\xf4\xff\xd4\x05\x8d\xd9\xe0?'
p42
tp43
Rp44
aatp45
.