(cnumpy.core.multiarray
_reconstruct
p0
(cnumpy
ndarray
p1
(I0
tp2
S'b'
p3
tp4
Rp5
(I1
(I4
tp6
cnumpy
dtype
p7
(S'f8'
p8
I0
I1
tp9
Rp10
(I3
S'<'
p11
NNNI-1
I-1
I0
tp12
bI00
S'q\x13\xb6\x00\x97Bi@\x83\xd9\x92 "\x94*?\x9c\x97\x94\xba>\xbc\x14@)[ha,x\xe0?'
p13
tp14
b(lp15
(lp16
cnumpy.core.multiarray
scalar
p17
(g10
S'D\x1f\xfa\xd3\xe4\xb4g@'
p18
tp19
Rp20
ag17
(g10
S'\x9e\x07r-I\xd0j@'
p21
tp22
Rp23
aa(lp24
g17
(g10
S')t\xdeo\x0fK*?'
p25
tp26
Rp27
ag17
(g10
S'\xdd>G\xd14\xdd*?'
p28
tp29
Rp30
aa(lp31
g17
(g10
S'\xc83\x101\xf9\xf9m\xc0'
p32
tp33
Rp34
ag17
(g10
S'B}\xb9\x1c\xbdEo@'
p35
tp36
Rp37
aa(lp38
g17
(g10
S'\xa9\xc6>X)v\xe0?'
p39
tp40
Rp41
ag17
(g10
S'\xa9\xef\x91j/z\xe0?'
p42
tp43
Rp44
aatp45
.