(cnumpy.core.multiarray
_reconstruct
p0
(cnumpy
ndarray
p1
(I0
tp2
S'b'
p3
tp4
Rp5
(I1
(I4
tp6
cnumpy
dtype
p7
(S'f8'
p8
I0
I1
tp9
Rp10
(I3
S'<'
p11
NNNI-1
I-1
I0
tp12
bI00
S'\x1d\x92\x19kdzm@\x88\xc8L\xfd\xad\x89\x1e?\xf7-z\x95H[p@\x05\xc2\x8b*Qs\xe0?'
p13
tp14
b(lp15
(lp16
cnumpy.core.multiarray
scalar
p17
(g10
S'W\x18\x8a\x8b\xed\x83i@'
p18
tp19
Rp20
ag17
(g10
S'\xf1\x85T\xa5m\xb8p@'
p21
tp22
Rp23
aa(lp24
g17
(g10
S'\t1\x00\xdc\r\xd92\xbf'
p25
tp26
Rp27
ag17
(g10
S'\xa6JSm\xf2\x0eA?'
p28
tp29
Rp30
aa(lp31
g17
(g10
S'\xf7-z\x95H[p@'
p32
tp33
Rp34
ag17
(g10
S'\xf7-z\x95H[p@'
p35
tp36
Rp37
aa(lp38
g17
(g10
S'F>~\xc8J[\xe0?'
p39
tp40
Rp41
ag17
(g10
S'\xc4E\x99\x8cW\x8b\xe0?'
p42
tp43
Rp44
aatp45
.