(cnumpy.core.multiarray
_reconstruct
p0
(cnumpy
ndarray
p1
(I0
tp2
S'b'
p3
tp4
Rp5
(I1
(I4
tp6
cnumpy
dtype
p7
(S'f8'
p8
I0
I1
tp9
Rp10
(I3
S'<'
p11
NNNI-1
I-1
I0
tp12
bI00
S'\xaa%\xef\xcc\x9bTg@d\xec-\xdd\x9ceZ?\x12\x86\xe5\xdd\x15r\xe6?\x10\xc5F\x0b\xd9X\xe1?'
p13
tp14
b(lp15
(lp16
cnumpy.core.multiarray
scalar
p17
(g10
S'J\xd4t\xf6\x96ge@'
p18
tp19
Rp20
ag17
(g10
S'\nwi\xa3\xa0Ai@'
p21
tp22
Rp23
aa(lp24
g17
(g10
S'\xceK\x8f2\x19_Z?'
p25
tp26
Rp27
ag17
(g10
S'\xfa\x8c\xcc\x87 lZ?'
p28
tp29
Rp30
aa(lp31
g17
(g10
S'W\\\nj6\x03\xf8\xbf'
p32
tp33
Rp34
ag17
(g10
S'4\xf1\xf7#\xa6:\x07@'
p35
tp36
Rp37
aa(lp38
g17
(g10
S'\xc0\x80M\xd4hW\xe1?'
p39
tp40
Rp41
ag17
(g10
S'`\t@BIZ\xe1?'
p42
tp43
Rp44
aatp45
.