(cnumpy.core.multiarray
_reconstruct
p0
(cnumpy
ndarray
p1
(I0
tp2
S'b'
p3
tp4
Rp5
(I1
(I4
tp6
cnumpy
dtype
p7
(S'f8'
p8
I0
I1
tp9
Rp10
(I3
S'<'
p11
NNNI-1
I-1
I0
tp12
bI00
S'\xf6)\x96[\xb2\xced@\xc0g`\xd5a\x08f?0,\xbdFo\xea\xf9?`\xee\x0c\xf6\xc0\x1b\xe1?'
p13
tp14
b(lp15
(lp16
cnumpy.core.multiarray
scalar
p17
(g10
S'c\xb8m6\xe4\xbe`@'
p18
tp19
Rp20
ag17
(g10
S'\x89\x9b\xbe\x80\x80\xdeh@'
p21
tp22
Rp23
aa(lp24
g17
(g10
S'X\x05\xf1\xcd\x94\xf2>?'
p25
tp26
Rp27
ag17
(g10
S'jW\x81\x888\x19t?'
p28
tp29
Rp30
aa(lp31
g17
(g10
S"K5y[h\xdf'\xc0"
p32
tp33
Rp34
ag17
(g10
S'W\x80(-\x04Z.@'
p35
tp36
Rp37
aa(lp38
g17
(g10
S'\\.*\xaf:\x18\xe1?'
p39
tp40
Rp41
ag17
(g10
S'd\xae\xef<G\x1f\xe1?'
p42
tp43
Rp44
aatp45
.