(cnumpy.core.multiarray
_reconstruct
p0
(cnumpy
ndarray
p1
(I0
tp2
S'b'
p3
tp4
Rp5
(I1
(I4
tp6
cnumpy
dtype
p7
(S'f8'
p8
I0
I1
tp9
Rp10
(I3
S'<'
p11
NNNI-1
I-1
I0
tp12
bI00
S'G\xcc\xfc\xad\xdeWS@\x97T@t\\cQ?\x88XK\xc0\r\r)@|>2\xfa.\x80\xe0?'
p13
tp14
b(lp15
(lp16
cnumpy.core.multiarray
scalar
p17
(g10
S'\x8b\xde\xd3\xcd\xbe\x04L@'
p18
tp19
Rp20
ag17
(g10
S'H\xa9\x0f\xf5]\xadX@'
p21
tp22
Rp23
aa(lp24
g17
(g10
S'_w\x1c\x10\x96)T\xbf'
p25
tp26
Rp27
ag17
(g10
S"F\x90N|'xk?"
p28
tp29
Rp30
aa(lp31
g17
(g10
S'\x88XK\xc0\r\r)@'
p32
tp33
Rp34
ag17
(g10
S'\x88XK\xc0\r\r)@'
p35
tp36
Rp37
aa(lp38
g17
(g10
S'y8\xd6\x9f\xc4_\xe0?'
p39
tp40
Rp41
ag17
(g10
S'\x7fD\x8eT\x99\xa0\xe0?'
p42
tp43
Rp44
aatp45
.