(cnumpy.core.multiarray
_reconstruct
p0
(cnumpy
ndarray
p1
(I0
tp2
S'b'
p3
tp4
Rp5
(I1
(I4
tp6
cnumpy
dtype
p7
(S'f8'
p8
I0
I1
tp9
Rp10
(I3
S'<'
p11
NNNI-1
I-1
I0
tp12
bI00
S'E,d8s}P@\xf3\xd3G\xdaM\x11t?|\xdd\xec4$\t2@\xce\x8d\x17\xaef\xa4\xe0?'
p13
tp14
b(lp15
(lp16
cnumpy.core.multiarray
scalar
p17
(g10
S'B4\xb7Zm2E@'
p18
tp19
Rp20
ag17
(g10
S'i\xbel\xc3\xafaV@'
p21
tp22
Rp23
aa(lp24
g17
(g10
S'\xac\xa3\xa4\x05\x04\xaeR\xbf'
p25
tp26
Rp27
ag17
(g10
S'hh\xfcZ\x0eg\x86?'
p28
tp29
Rp30
aa(lp31
g17
(g10
S'|\xdd\xec4$\t2@'
p32
tp33
Rp34
ag17
(g10
S'|\xdd\xec4$\t2@'
p35
tp36
Rp37
aa(lp38
g17
(g10
S'\x83\xf2\xd4\x93E\x98\xe0?'
p39
tp40
Rp41
ag17
(g10
S'\x19)Z\xc8\x87\xb0\xe0?'
p42
tp43
Rp44
aatp45
.