(cnumpy.core.multiarray
_reconstruct
p0
(cnumpy
ndarray
p1
(I0
tp2
S'b'
p3
tp4
Rp5
(I1
(I4
tp6
cnumpy
dtype
p7
(S'f8'
p8
I0
I1
tp9
Rp10
(I3
S'<'
p11
NNNI-1
I-1
I0
tp12
bI00
S"\xf9K+i\x10zP@-W\x7f\xdc>\xf5y?DF'\xa4/Y'@5\x1aC)\\\xa2\xe0?"
p13
tp14
b(lp15
(lp16
cnumpy.core.multiarray
scalar
p17
(g10
S'|3r\\1\xa9N@'
p18
tp19
Rp20
ag17
(g10
S'4~\x1d$\x88\x9fQ@'
p21
tp22
Rp23
aa(lp24
g17
(g10
S'\x1c\x11qd\xa1>u?'
p25
tp26
Rp27
ag17
(g10
S'>\x9d\x8dT\xdc\xab~?'
p28
tp29
Rp30
aa(lp31
g17
(g10
S"\xa6\xbd\xcd\xa7'X\xbc\xc0"
p32
tp33
Rp34
ag17
(g10
S'\xec\xe4q\xd7\x80o\xbc@'
p35
tp36
Rp37
aa(lp38
g17
(g10
S'C;\x11H*\xa1\xe0?'
p39
tp40
Rp41
ag17
(g10
S"'\xf9t\n\x8e\xa3\xe0?"
p42
tp43
Rp44
aatp45
.