(cnumpy.core.multiarray
_reconstruct
p0
(cnumpy
ndarray
p1
(I0
tp2
S'b'
p3
tp4
Rp5
(I1
(I4
tp6
cnumpy
dtype
p7
(S'f8'
p8
I0
I1
tp9
Rp10
(I3
S'<'
p11
NNNI-1
I-1
I0
tp12
bI00
S'\xebgt\x11\xdc\xc5P@\x98\x93>\xdf\xb6ws?,W^\x08\x94Q;@\x1fH\xae\xcf\x86\xa2\xe0?'
p13
tp14
b(lp15
(lp16
cnumpy.core.multiarray
scalar
p17
(g10
S'\x1e\x1eu{\xa1UO@'
p18
tp19
Rp20
ag17
(g10
S'\xc7@.e\xe7\xe0Q@'
p21
tp22
Rp23
aa(lp24
g17
(g10
S'P\x8b\xa1\xf8*\x8bo?'
p25
tp26
Rp27
ag17
(g10
S'\x88a,B\xd8)w?'
p28
tp29
Rp30
aa(lp31
g17
(g10
S',W^\x08\x94Q;@'
p32
tp33
Rp34
ag17
(g10
S',W^\x08\x94Q;@'
p35
tp36
Rp37
aa(lp38
g17
(g10
S"'c\xf0N\x1b\xa1\xe0?"
p39
tp40
Rp41
ag17
(g10
S'\x17-lP\xf2\xa3\xe0?'
p42
tp43
Rp44
aatp45
.