(cnumpy.core.multiarray
_reconstruct
p0
(cnumpy
ndarray
p1
(I0
tp2
S'b'
p3
tp4
Rp5
(I1
(I4
tp6
cnumpy
dtype
p7
(S'f8'
p8
I0
I1
tp9
Rp10
(I3
S'<'
p11
NNNI-1
I-1
I0
tp12
bI00
S"W*7y\xc9`T@\xab\xd7\xa2\xad\xcb'\\?_EO\x8c\xf0\xe70@\x034n\x86\xd5\xa0\xe0?"
p13
tp14
b(lp15
(lp16
cnumpy.core.multiarray
scalar
p17
(g10
S'\xfd\x8c7\x1cD!S@'
p18
tp19
Rp20
ag17
(g10
S'\xb1\xc76\xd6N\xa0U@'
p21
tp22
Rp23
aa(lp24
g17
(g10
S'_\xb4\x96\xd38\x9eT?'
p25
tp26
Rp27
ag17
(g10
S'|}\xd7C\xaf\xd8a?'
p28
tp29
Rp30
aa(lp31
g17
(g10
S'_EO\x8c\xf0\xe70@'
p32
tp33
Rp34
ag17
(g10
S'_EO\x8c\xf0\xe70@'
p35
tp36
Rp37
aa(lp38
g17
(g10
S'5\x06\xe8 >\x9e\xe0?'
p39
tp40
Rp41
ag17
(g10
S'\xd1a\xf4\xebl\xa3\xe0?'
p42
tp43
Rp44
aatp45
.