(cnumpy.core.multiarray
_reconstruct
p0
(cnumpy
ndarray
p1
(I0
tp2
S'b'
p3
tp4
Rp5
(I1
(I4
tp6
cnumpy
dtype
p7
(S'f8'
p8
I0
I1
tp9
Rp10
(I3
S'<'
p11
NNNI-1
I-1
I0
tp12
bI00
S'Q8q\x85ipP@c\xca_SD\xa7u?_\r\xe0ne\xf6\x12@\xbfu\x83\x12\xba\x98\xe0?'
p13
tp14
b(lp15
(lp16
cnumpy.core.multiarray
scalar
p17
(g10
S'T>s\xb5.fO@'
p18
tp19
Rp20
ag17
(g10
S'x\xd1(\xb0\xbb-Q@'
p21
tp22
Rp23
aa(lp24
g17
(g10
S'<\x96\x12z<\x8au?'
p25
tp26
Rp27
ag17
(g10
S'\x8a\xfe\xac,L\xc4u?'
p28
tp29
Rp30
aa(lp31
g17
(g10
S'\x17u\x19\x85\r\xf2V\xc0'
p32
tp33
Rp34
ag17
(g10
S'\xc3v\xf52\xdaPY@'
p35
tp36
Rp37
aa(lp38
g17
(g10
S'\xc4\xb1\x9f>4\x97\xe0?'
p39
tp40
Rp41
ag17
(g10
S'\xba9g\xe6?\x9a\xe0?'
p42
tp43
Rp44
aatp45
.