(cnumpy.core.multiarray
_reconstruct
p0
(cnumpy
ndarray
p1
(I0
tp2
S'b'
p3
tp4
Rp5
(I1
(I4
tp6
cnumpy
dtype
p7
(S'f8'
p8
I0
I1
tp9
Rp10
(I3
S'<'
p11
NNNI-1
I-1
I0
tp12
bI00
S'(^\x9e-+^P@B\x08OJ\xb1\xc7r?\xf8;\xed?Jl2@\xff\xdd\xeec\x12\xae\xe0?'
p13
tp14
b(lp15
(lp16
cnumpy.core.multiarray
scalar
p17
(g10
S'\xe1\xf4 \xa7\xb3NM@'
p18
tp19
Rp20
ag17
(g10
S'\xe0A\xac\x87\xfc\x14R@'
p21
tp22
Rp23
aa(lp24
g17
(g10
S'7\x0er\xebP\xa0h?'
p25
tp26
Rp27
ag17
(g10
S'h\t\xe5\x1e:?y?'
p28
tp29
Rp30
aa(lp31
g17
(g10
S'\x1d1\xed?Jl2@'
p32
tp33
Rp34
ag17
(g10
S'\xd3F\xed?Jl2@'
p35
tp36
Rp37
aa(lp38
g17
(g10
S'+\x1fib\xed\xaa\xe0?'
p39
tp40
Rp41
ag17
(g10
S'\xd3\x9cte7\xb1\xe0?'
p42
tp43
Rp44
aatp45
.