(cnumpy.core.multiarray
_reconstruct
p0
(cnumpy
ndarray
p1
(I0
tp2
S'b'
p3
tp4
Rp5
(I1
(I4
tp6
cnumpy
dtype
p7
(S'f8'
p8
I0
I1
tp9
Rp10
(I3
S'<'
p11
NNNI-1
I-1
I0
tp12
bI00
S'\n\xc6\xb4\xd9\x96\xcbU@\xcd z\xf3p\xf6@?`\xcd\xa6\xa6.R*@o>+u+d\xe0?'
p13
tp14
b(lp15
(lp16
cnumpy.core.multiarray
scalar
p17
(g10
S'\x12\xbeTZ\x1f\xf9N@'
p18
tp19
Rp20
ag17
(g10
S'\x0b-?\x06\x9e\x1a\\@'
p21
tp22
Rp23
aa(lp24
g17
(g10
S'\x049\xc4\xb9\xa2LU\xbf'
p25
tp26
Rp27
ag17
(g10
S'\xe8,\x9f\xd6\x89!c?'
p28
tp29
Rp30
aa(lp31
g17
(g10
S'`\xcd\xa6\xa6.R*@'
p32
tp33
Rp34
ag17
(g10
S'`\xcd\xa6\xa6.R*@'
p35
tp36
Rp37
aa(lp38
g17
(g10
S'B\xbbh\\H,\xe0?'
p39
tp40
Rp41
ag17
(g10
S'\x9c\xc1\xed\x8d\x0e\x9c\xe0?'
p42
tp43
Rp44
aatp45
.