(cnumpy.core.multiarray
_reconstruct
p0
(cnumpy
ndarray
p1
(I0
tp2
S'b'
p3
tp4
Rp5
(I1
(I4
tp6
cnumpy
dtype
p7
(S'f8'
p8
I0
I1
tp9
Rp10
(I3
S'<'
p11
NNNI-1
I-1
I0
tp12
bI00
S'\xa6\xd5\x8c\xd9=1R@k\x0eC\x0b\x8fBa?\x94\r\x1f\x18_z1@o~\x13\xdf\xeb\xa1\xe0?'
p13
tp14
b(lp15
(lp16
cnumpy.core.multiarray
scalar
p17
(g10
S'\x151j\x83]\x83P@'
p18
tp19
Rp20
ag17
(g10
S'7z\xaf/\x1e\xdfS@'
p21
tp22
Rp23
aa(lp24
g17
(g10
S'\x1c\xe3,\xe2o\rT?'
p25
tp26
Rp27
ag17
(g10
S'H\xabo%f~h?'
p28
tp29
Rp30
aa(lp31
g17
(g10
S'\x94\r\x1f\x18_z1@'
p32
tp33
Rp34
ag17
(g10
S'\x94\r\x1f\x18_z1@'
p35
tp36
Rp37
aa(lp38
g17
(g10
S'\xd8<\x0eL=\x9d\xe0?'
p39
tp40
Rp41
ag17
(g10
S'\x06\xc0\x18r\x9a\xa6\xe0?'
p42
tp43
Rp44
aatp45
.