(cnumpy.core.multiarray
_reconstruct
p0
(cnumpy
ndarray
p1
(I0
tp2
S'b'
p3
tp4
Rp5
(I1
(I4
tp6
cnumpy
dtype
p7
(S'f8'
p8
I0
I1
tp9
Rp10
(I3
S'<'
p11
NNNI-1
I-1
I0
tp12
bI00
S'\xc4\xcc[\xfe5AP@\x19-\xdb@d\x96e?u\x07rH\xda\x8c\xf6?,\xda9\xbb\x91k\xe0?'
p13
tp14
b(lp15
(lp16
cnumpy.core.multiarray
scalar
p17
(g10
S'\xd0\xae\xeb-AwH@'
p18
tp19
Rp20
ag17
(g10
S' \xc2\xc1e\xcbFT@'
p21
tp22
Rp23
aa(lp24
g17
(g10
S'\xf0\xc9\x15n}N<\xbf'
p25
tp26
Rp27
ag17
(g10
S'\xb8\x89\xbc\x17L[w?'
p28
tp29
Rp30
aa(lp31
g17
(g10
S'-\xf1w\xf2;\n\x16\xc0'
p32
tp33
Rp34
ag17
(g10
S'tzX\x8bT\xa8 @'
p35
tp36
Rp37
aa(lp38
g17
(g10
S'\xb6\xaa5\x0e"\\\xe0?'
p39
tp40
Rp41
ag17
(g10
S'\xa2\t>h\x01{\xe0?'
p42
tp43
Rp44
aatp45
.