(cnumpy.core.multiarray
_reconstruct
p0
(cnumpy
ndarray
p1
(I0
tp2
S'b'
p3
tp4
Rp5
(I1
(I4
tp6
cnumpy
dtype
p7
(S'f8'
p8
I0
I1
tp9
Rp10
(I3
S'<'
p11
NNNI-1
I-1
I0
tp12
bI00
S'T\x15\xbb\xee\xbc\xddM@\xb5\xa7\xdbGpp\x82?L\x85c2;P\x13@K\x83i]\xd2\xa9\xe0?'
p13
tp14
b(lp15
(lp16
cnumpy.core.multiarray
scalar
p17
(g10
S'\xe9F\x0b\xd9\xadIJ@'
p18
tp19
Rp20
ag17
(g10
S'\xdfq5\x02\xe6\xb8P@'
p21
tp22
Rp23
aa(lp24
g17
(g10
S'I\xc11\xc52_y?'
p25
tp26
Rp27
ag17
(g10
S'\xc6n\x1e-G1\x88?'
p28
tp29
Rp30
aa(lp31
g17
(g10
S'Gk\x8b\xfb]\xfcV\xc0'
p32
tp33
Rp34
ag17
(g10
S'\xf1\xdb\xd7aefY@'
p35
tp36
Rp37
aa(lp38
g17
(g10
S'fl~\xb5\x82\xa7\xe0?'
p39
tp40
Rp41
ag17
(g10
S'0\x9aT\x05"\xac\xe0?'
p42
tp43
Rp44
aatp45
.