(cnumpy.core.multiarray
_reconstruct
p0
(cnumpy
ndarray
p1
(I0
tp2
S'b'
p3
tp4
Rp5
(I1
(I4
tp6
cnumpy
dtype
p7
(S'f8'
p8
I0
I1
tp9
Rp10
(I3
S'<'
p11
NNNI-1
I-1
I0
tp12
bI00
S' 4\xbf\xcfd,Q@\xf9\xa4_\x80W\x85v?N7\rH\xed\xb6\x13@\xbb\xf1\xd7\x8a\x88\xb3\xe0?'
p13
tp14
b(lp15
(lp16
cnumpy.core.multiarray
scalar
p17
(g10
S'\x8ar\xc9~\xe6xN@'
p18
tp19
Rp20
ag17
(g10
S'\xfb\xae\x19`V\x1cS@'
p21
tp22
Rp23
aa(lp24
g17
(g10
S'\xcd\xb7/J\\im?'
p25
tp26
Rp27
ag17
(g10
S'\x0cn\xa7\xdb\x00V~?'
p28
tp29
Rp30
aa(lp31
g17
(g10
S'k\xaeJN\x1b\xca[\xc0'
p32
tp33
Rp34
ag17
(g10
S'UUL\xf7\xf8@^@'
p35
tp36
Rp37
aa(lp38
g17
(g10
S'k\x07P{\xbe\xb0\xe0?'
p39
tp40
Rp41
ag17
(g10
S'\x0b\xdc_\x9aR\xb6\xe0?'
p42
tp43
Rp44
aatp45
.