(cnumpy.core.multiarray
_reconstruct
p0
(cnumpy
ndarray
p1
(I0
tp2
S'b'
p3
tp4
Rp5
(I1
(I4
tp6
cnumpy
dtype
p7
(S'f8'
p8
I0
I1
tp9
Rp10
(I3
S'<'
p11
NNNI-1
I-1
I0
tp12
bI00
S'\x90\xde =>.Q@Z^\x8d\x8b\xe8Lt?N~\xf0\xf8xc+@\xb1\x84\xba\x1d\xb5\xa1\xe0?'
p13
tp14
b(lp15
(lp16
cnumpy.core.multiarray
scalar
p17
(g10
S'\xb1VY\x87A\x07P@'
p18
tp19
Rp20
ag17
(g10
S'of\xe8\xf2:UR@'
p21
tp22
Rp23
aa(lp24
g17
(g10
S'0\x95\xda!\xc0op?'
p25
tp26
Rp27
ag17
(g10
S"\x84'@\xf5\x10*x?"
p28
tp29
Rp30
aa(lp31
g17
(g10
S'N~\xf0\xf8xc+@'
p32
tp33
Rp34
ag17
(g10
S'N~\xf0\xf8xc+@'
p35
tp36
Rp37
aa(lp38
g17
(g10
S'\xe0q\xb0\x8eX\xa0\xe0?'
p39
tp40
Rp41
ag17
(g10
S'\x82\x97\xc4\xac\x11\xa3\xe0?'
p42
tp43
Rp44
aatp45
.