(cnumpy.core.multiarray
_reconstruct
p0
(cnumpy
ndarray
p1
(I0
tp2
S'b'
p3
tp4
Rp5
(I1
(I4
tp6
cnumpy
dtype
p7
(S'f8'
p8
I0
I1
tp9
Rp10
(I3
S'<'
p11
NNNI-1
I-1
I0
tp12
bI00
S'\x98x\xad\xdaM#O@1cX\x8dSh{?/([]`G\r@v\xaeCE\x9e\xb2\xe0?'
p13
tp14
b(lp15
(lp16
cnumpy.core.multiarray
scalar
p17
(g10
S"\x8e\xb7'\xa4\xb3{K@"
p18
tp19
Rp20
ag17
(g10
S'\xd1\x9c\x99\x08teQ@'
p21
tp22
Rp23
aa(lp24
g17
(g10
S"b\x18'\x1c\x8f+r?"
p25
tp26
Rp27
ag17
(g10
S'\x00\xd7D\xff\x8bR\x82?'
p28
tp29
Rp30
aa(lp31
g17
(g10
S'P\xd93\xc6[8\x0b@'
p32
tp33
Rp34
ag17
(g10
S'\x0ew\x82\xf4dV\x0f@'
p35
tp36
Rp37
aa(lp38
g17
(g10
S'\xe9\xc5M\x1a\xe0\xaf\xe0?'
p39
tp40
Rp41
ag17
(g10
S'\x03\x979p\\\xb5\xe0?'
p42
tp43
Rp44
aatp45
.