(cnumpy.core.multiarray
_reconstruct
p0
(cnumpy
ndarray
p1
(I0
tp2
S'b'
p3
tp4
Rp5
(I1
(I4
tp6
cnumpy
dtype
p7
(S'f8'
p8
I0
I1
tp9
Rp10
(I3
S'<'
p11
NNNI-1
I-1
I0
tp12
bI00
S'\x88\xcc\x9da\x8cdN@\xa1:0G\xd7e~?u\x97q\x0ebr2@\x01\xff\xa2\x02\xc1\x9d\xe0?'
p13
tp14
b(lp15
(lp16
cnumpy.core.multiarray
scalar
p17
(g10
S'\xb8\xa7\xb6,o\xd4J@'
p18
tp19
Rp20
ag17
(g10
S'\xacxB\xcbT\xfaP@'
p21
tp22
Rp23
aa(lp24
g17
(g10
S'Z\xf2d\xcds\x84t?'
p25
tp26
Rp27
ag17
(g10
S't\xc1}`\x9d#\x84?'
p28
tp29
Rp30
aa(lp31
g17
(g10
S'u\x97q\x0ebr2@'
p32
tp33
Rp34
ag17
(g10
S'u\x97q\x0ebr2@'
p35
tp36
Rp37
aa(lp38
g17
(g10
S"b\ne\xc8'\x9b\xe0?"
p39
tp40
Rp41
ag17
(g10
S'\xa0\xf3\xe0<Z\xa0\xe0?'
p42
tp43
Rp44
aatp45
.