(cnumpy.core.multiarray
_reconstruct
p0
(cnumpy
ndarray
p1
(I0
tp2
S'b'
p3
tp4
Rp5
(I1
(I4
tp6
cnumpy
dtype
p7
(S'f8'
p8
I0
I1
tp9
Rp10
(I3
S'<'
p11
NNNI-1
I-1
I0
tp12
bI00
S'W1j"\xe2}O@\x03\xa3\xa2\xbd\xbb\x15w?k6\xd4@{\x0c\x1c@\xbc\xdf\xc4\'\xe3\xb2\xe0?'
p13
tp14
b(lp15
(lp16
cnumpy.core.multiarray
scalar
p17
(g10
S'\xb2B\x81&0\x17L@'
p18
tp19
Rp20
ag17
(g10
S'\xfe\x8f)\x0fJrQ@'
p21
tp22
Rp23
aa(lp24
g17
(g10
S'N\xae\xe5,&\xf8n?'
p25
tp26
Rp27
ag17
(g10
S'\xdfn\xd2dd\xaf~?'
p28
tp29
Rp30
aa(lp31
g17
(g10
S'\xbb7o`Vow\xc0'
p32
tp33
Rp34
ag17
(g10
S'o\xd9u:\xbaOx@'
p35
tp36
Rp37
aa(lp38
g17
(g10
S'\x17W\xc6\xbc\x07\xb0\xe0?'
p39
tp40
Rp41
ag17
(g10
S'ah\xc3\x92\xbe\xb5\xe0?'
p42
tp43
Rp44
aatp45
.