(cnumpy.core.multiarray
_reconstruct
p0
(cnumpy
ndarray
p1
(I0
tp2
S'b'
p3
tp4
Rp5
(I1
(I4
tp6
cnumpy
dtype
p7
(S'f8'
p8
I0
I1
tp9
Rp10
(I3
S'<'
p11
NNNI-1
I-1
I0
tp12
bI00
S'\xealW\x91\x13\xd3N@\xeb\xf8oZ\x18\xe4v?k}3~#\xc42@|vj\x15\xb5\x9b\xe0?'
p13
tp14
b(lp15
(lp16
cnumpy.core.multiarray
scalar
p17
(g10
S'\xfa\xd0\xc5\xaa\xa5\x90K@'
p18
tp19
Rp20
ag17
(g10
S'm\x84\xf4\xbb\xc0\nQ@'
p21
tp22
Rp23
aa(lp24
g17
(g10
S'RAF=[\xfbn?'
p25
tp26
Rp27
ag17
(g10
S'-\xd1<\x16\x83J~?'
p28
tp29
Rp30
aa(lp31
g17
(g10
S'k}3~#\xc42@'
p32
tp33
Rp34
ag17
(g10
S'k}3~#\xc42@'
p35
tp36
Rp37
aa(lp38
g17
(g10
S'\xaa\xd6\xecE\xd0\x98\xe0?'
p39
tp40
Rp41
ag17
(g10
S'N\x16\xe8\xe4\x99\x9e\xe0?'
p42
tp43
Rp44
aatp45
.