(cnumpy.core.multiarray
_reconstruct
p0
(cnumpy
ndarray
p1
(I0
tp2
S'b'
p3
tp4
Rp5
(I1
(I4
tp6
cnumpy
dtype
p7
(S'f8'
p8
I0
I1
tp9
Rp10
(I3
S'<'
p11
NNNI-1
I-1
I0
tp12
bI00
S'\xa2Q\xa3\xcaR\xdbM@\x15\xee\t\t\t\xc6\x81?6\xa2\x89\xdend\x03@\xb68\x87\x08\xce\xd4\xe0?'
p13
tp14
b(lp15
(lp16
cnumpy.core.multiarray
scalar
p17
(g10
S';c\x92\x84\xca?J@'
p18
tp19
Rp20
ag17
(g10
S'\x04 Z\x88m\xbbP@'
p21
tp22
Rp23
aa(lp24
g17
(g10
S'\x15\xc17M\xbdCx?'
p25
tp26
Rp27
ag17
(g10
S'\xa0\xfbwk3j\x87?'
p28
tp29
Rp30
aa(lp31
g17
(g10
S"\\\x1f`\xa5\xc8g'\xc0"
p32
tp33
Rp34
ag17
(g10
S';xR\n\x00\x8d0@'
p35
tp36
Rp37
aa(lp38
g17
(g10
S'R\x01\xbcmr\xd2\xe0?'
p39
tp40
Rp41
ag17
(g10
S'\x1apR\xa3)\xd7\xe0?'
p42
tp43
Rp44
aatp45
.