(cnumpy.core.multiarray
_reconstruct
p0
(cnumpy
ndarray
p1
(I0
tp2
S'b'
p3
tp4
Rp5
(I1
(I4
tp6
cnumpy
dtype
p7
(S'f8'
p8
I0
I1
tp9
Rp10
(I3
S'<'
p11
NNNI-1
I-1
I0
tp12
bI00
S'\x87s\xe8`\xee\xcfQ@\xe4\xf3\xac\xe9)Cg?\xb4`\xa6ck_1@Ko\xca\xa6\xe3\xaf\xe0?'
p13
tp14
b(lp15
(lp16
cnumpy.core.multiarray
scalar
p17
(g10
S'G\xbd,2{\x03P@'
p18
tp19
Rp20
ag17
(g10
S'\xc7)\xa4\x8fa\x9cS@'
p21
tp22
Rp23
aa(lp24
g17
(g10
S'\xc3\xe1e\xfb\r\xcf[?'
p25
tp26
Rp27
ag17
(g10
S's{\xd3jfOp?'
p28
tp29
Rp30
aa(lp31
g17
(g10
S'\xb4`\xa6ck_1@'
p32
tp33
Rp34
ag17
(g10
S'\xb4`\xa6ck_1@'
p35
tp36
Rp37
aa(lp38
g17
(g10
S'\x00U\r\x04\xcc\xab\xe0?'
p39
tp40
Rp41
ag17
(g10
S'\x96\x89\x87I\xfb\xb3\xe0?'
p42
tp43
Rp44
aatp45
.