(cnumpy.core.multiarray
_reconstruct
p0
(cnumpy
ndarray
p1
(I0
tp2
S'b'
p3
tp4
Rp5
(I1
(I4
tp6
cnumpy
dtype
p7
(S'f8'
p8
I0
I1
tp9
Rp10
(I3
S'<'
p11
NNNI-1
I-1
I0
tp12
bI00
S'\xd2\xb2\xcfoX\xbaM@\xb3\xb6\xb7i p\x80?\xf8~~\x01\xce\x86\xbd?LaG$\\\xd3\xe0?'
p13
tp14
b(lp15
(lp16
cnumpy.core.multiarray
scalar
p17
(g10
S'I\xf2ZrM\x94K@'
p18
tp19
Rp20
ag17
(g10
S'[sDmc\xe0O@'
p21
tp22
Rp23
aa(lp24
g17
(g10
S'\xe8\x12*\xaf:5{?'
p25
tp26
Rp27
ag17
(g10
S'\xf2c\xda{\xa3E\x83?'
p28
tp29
Rp30
aa(lp31
g17
(g10
S'\x0e\x89\xb2G\xb5\x82\xb0?'
p32
tp33
Rp34
ag17
(g10
S'q:\xa5]sE\xc5?'
p35
tp36
Rp37
aa(lp38
g17
(g10
S'\x13\n\xcd<:\xd2\xe0?'
p39
tp40
Rp41
ag17
(g10
S'\x85\xb8\xc1\x0b~\xd4\xe0?'
p42
tp43
Rp44
aatp45
.