(cnumpy.core.multiarray
_reconstruct
p0
(cnumpy
ndarray
p1
(I0
tp2
S'b'
p3
tp4
Rp5
(I1
(I4
tp6
cnumpy
dtype
p7
(S'f8'
p8
I0
I1
tp9
Rp10
(I3
S'<'
p11
NNNI-1
I-1
I0
tp12
bI00
S'C:\xb1a^\x1cM@\x08t\xb6\xec\xb5,x?\xedEsw\x07\x921@6\x85"\x8c\x0c\x8f\xe0?'
p13
tp14
b(lp15
(lp16
cnumpy.core.multiarray
scalar
p17
(g10
S'\xcdK\xe7B8XK@'
p18
tp19
Rp20
ag17
(g10
S'\xb9({\x80\x84\xe0N@'
p21
tp22
Rp23
aa(lp24
g17
(g10
S'\xf0\x060\x11tAt?'
p25
tp26
Rp27
ag17
(g10
S' \xe1<\xc8\xf7\x17|?'
p28
tp29
Rp30
aa(lp31
g17
(g10
S'\xeeBsw\x07\x921@'
p32
tp33
Rp34
ag17
(g10
S'\xecHsw\x07\x921@'
p35
tp36
Rp37
aa(lp38
g17
(g10
S'^\x0c\x171\xca\x8d\xe0?'
p39
tp40
Rp41
ag17
(g10
S'\x0e\xfe-\xe7N\x90\xe0?'
p42
tp43
Rp44
aatp45
.