(cnumpy.core.multiarray
_reconstruct
p0
(cnumpy
ndarray
p1
(I0
tp2
S'b'
p3
tp4
Rp5
(I1
(I4
tp6
cnumpy
dtype
p7
(S'f8'
p8
I0
I1
tp9
Rp10
(I3
S'<'
p11
NNNI-1
I-1
I0
tp12
bI00
S'\x0f\xd9z\xd2\x89\x1bM@\x19\xe2/\xa8B\xb7t?\xd5^A\xa9|/,@D\x00SD\xb5\x8d\xe0?'
p13
tp14
b(lp15
(lp16
cnumpy.core.multiarray
scalar
p17
(g10
S'\xc6\x08#nE7C@'
p18
tp19
Rp20
ag17
(g10
S'\xacTi\x1b\xe7\x7fS@'
p21
tp22
Rp23
aa(lp24
g17
(g10
S'x\x01b\x83\xde\x80I\xbf'
p25
tp26
Rp27
ag17
(g10
S'0\x02f\x90PO\x86?'
p28
tp29
Rp30
aa(lp31
g17
(g10
S'\xd5^A\xa9|/,@'
p32
tp33
Rp34
ag17
(g10
S'\xd5^A\xa9|/,@'
p35
tp36
Rp37
aa(lp38
g17
(g10
S'\n\xd0\xf3x\xf7\x80\xe0?'
p39
tp40
Rp41
ag17
(g10
S'~0\xb2\x0fs\x9a\xe0?'
p42
tp43
Rp44
aatp45
.