(cnumpy.core.multiarray
_reconstruct
p0
(cnumpy
ndarray
p1
(I0
tp2
S'b'
p3
tp4
Rp5
(I1
(I4
tp6
cnumpy
dtype
p7
(S'f8'
p8
I0
I1
tp9
Rp10
(I3
S'<'
p11
NNNI-1
I-1
I0
tp12
bI00
S'\xa9Ga\x04n5R@ \x18^D&\xd4j?\x0cV\xab\xe8:\xf7\x12@Of9M\x87\xe6\xe0?'
p13
tp14
b(lp15
(lp16
cnumpy.core.multiarray
scalar
p17
(g10
S'gd\x0c^\xfb+P@'
p18
tp19
Rp20
ag17
(g10
S'\xeb*\xb6\xaa\xe0>T@'
p21
tp22
Rp23
aa(lp24
g17
(g10
S'\x0c~\xcb\xbf,\x1f_?'
p25
tp26
Rp27
ag17
(g10
S'\x9d8k\x14[\x0cs?'
p28
tp29
Rp30
aa(lp31
g17
(g10
S'x\xe6%\xdf\x80s\\\xc0'
p32
tp33
Rp34
ag17
(g10
S':Q;<h\xd2^@'
p35
tp36
Rp37
aa(lp38
g17
(g10
S'W\xb2\xa0\xb7\xa1\xe2\xe0?'
p39
tp40
Rp41
ag17
(g10
S'G\x1a\xd2\xe2l\xea\xe0?'
p42
tp43
Rp44
aatp45
.