(cnumpy.core.multiarray
_reconstruct
p0
(cnumpy
ndarray
p1
(I0
tp2
S'b'
p3
tp4
Rp5
(I1
(I4
tp6
cnumpy
dtype
p7
(S'f8'
p8
I0
I1
tp9
Rp10
(I3
S'<'
p11
NNNI-1
I-1
I0
tp12
bI00
S"P:G\xcb\xbe\xa4N@\x85\x05\x98\x95'\xf2\x7f?o\xa4>k\x1cD/@\n2c\x90\xf7\x8c\xe0?"
p13
tp14
b(lp15
(lp16
cnumpy.core.multiarray
scalar
p17
(g10
S'B\xba\x15s\x8erL@'
p18
tp19
Rp20
ag17
(g10
S'/]\xbc\x91wkP@'
p21
tp22
Rp23
aa(lp24
g17
(g10
S'\x81&\x9f\xfbCYz?'
p25
tp26
Rp27
ag17
(g10
S'Er\xc8\x97\x85\xc5\x82?'
p28
tp29
Rp30
aa(lp31
g17
(g10
S' \x9b>k\x1cD/@'
p32
tp33
Rp34
ag17
(g10
S'\xbe\xad>k\x1cD/@'
p35
tp36
Rp37
aa(lp38
g17
(g10
S'\xef\x92Hj\xd9\x8b\xe0?'
p39
tp40
Rp41
ag17
(g10
S'%\xd1}\xb6\x15\x8e\xe0?'
p42
tp43
Rp44
aatp45
.