(cnumpy.core.multiarray
_reconstruct
p0
(cnumpy
ndarray
p1
(I0
tp2
S'b'
p3
tp4
Rp5
(I1
(I4
tp6
cnumpy
dtype
p7
(S'f8'
p8
I0
I1
tp9
Rp10
(I3
S'<'
p11
NNNI-1
I-1
I0
tp12
bI00
S'1h`d\xf9\x95P@\xc9A_\xf7\xa1\x11t?{\xcf\\.x\xf5M@h\xf9(\xc4\\\xab\xe0?'
p13
tp14
b(lp15
(lp16
cnumpy.core.multiarray
scalar
p17
(g10
S'\xcf\x10\x05iE\xe6N@'
p18
tp19
Rp20
ag17
(g10
S'\xfaG>\x14\xd0\xb8Q@'
p21
tp22
Rp23
aa(lp24
g17
(g10
S"\xde\t%\xbb\x02'p?"
p25
tp26
Rp27
ag17
(g10
S'\xb4y\x993A\xfcw?'
p28
tp29
Rp30
aa(lp31
g17
(g10
S'{\xcf\\.x\xf5M@'
p32
tp33
Rp34
ag17
(g10
S'{\xcf\\.x\xf5M@'
p35
tp36
Rp37
aa(lp38
g17
(g10
S'\xcd\x8fB^\xe9\xa9\xe0?'
p39
tp40
Rp41
ag17
(g10
S'\x03c\x0f*\xd0\xac\xe0?'
p42
tp43
Rp44
aatp45
.