(cnumpy.core.multiarray
_reconstruct
p0
(cnumpy
ndarray
p1
(I0
tp2
S'b'
p3
tp4
Rp5
(I1
(I4
tp6
cnumpy
dtype
p7
(S'f8'
p8
I0
I1
tp9
Rp10
(I3
S'<'
p11
NNNI-1
I-1
I0
tp12
bI00
S"?N\x8a\x1b\xf2\nQ@\xc1J'\x17B\xded?\xf4-6\xce/Z,@\x967P$\t\xbb\xe0?"
p13
tp14
b(lp15
(lp16
cnumpy.core.multiarray
scalar
p17
(g10
S'A\xdf{\x97\xd8\xfbN@'
p18
tp19
Rp20
ag17
(g10
S'\xde\xacV\xeb\xf7\x97R@'
p21
tp22
Rp23
aa(lp24
g17
(g10
S'\xb4\x92\x11\xb1\xfc\xe3Y?'
p25
tp26
Rp27
ag17
(g10
S'(\xcc\xc5\xd5\x85\xcal?'
p28
tp29
Rp30
aa(lp31
g17
(g10
S'\xc6\x1c6\xce/Z,@'
p32
tp33
Rp34
ag17
(g10
S'"?6\xce/Z,@'
p35
tp36
Rp37
aa(lp38
g17
(g10
S'Z-\x83B\xd7\xb6\xe0?'
p39
tp40
Rp41
ag17
(g10
S'\xd2A\x1d\x06;\xbf\xe0?'
p42
tp43
Rp44
aatp45
.