(cnumpy.core.multiarray
_reconstruct
p0
(cnumpy
ndarray
p1
(I0
tp2
S'b'
p3
tp4
Rp5
(I1
(I4
tp6
cnumpy
dtype
p7
(S'f8'
p8
I0
I1
tp9
Rp10
(I3
S'<'
p11
NNNI-1
I-1
I0
tp12
bI00
S'k\xa2U\xbb^\xc1T@\x1a\xd3\x9c\xe3\xdd\xc1I?\xbd\x90h\xc3\t\t)@"\xf8\xb5\xdd\xa9q\xe0?'
p13
tp14
b(lp15
(lp16
cnumpy.core.multiarray
scalar
p17
(g10
S';\xb3x;K\xf6M@'
p18
tp19
Rp20
ag17
(g10
S'8\xeb\xee\xd8\x97\x87Z@'
p21
tp22
Rp23
aa(lp24
g17
(g10
S';w\xcc\xd6"\xb9T\xbf'
p25
tp26
Rp27
ag17
(g10
S'*\xa54]\x80=g?'
p28
tp29
Rp30
aa(lp31
g17
(g10
S'\x7f;h\xc3\t\t)@'
p32
tp33
Rp34
ag17
(g10
S'\xfb\xe5h\xc3\t\t)@'
p35
tp36
Rp37
aa(lp38
g17
(g10
S'u\xb3j\xaf\x0eJ\xe0?'
p39
tp40
Rp41
ag17
(g10
S'\xcf<\x01\x0cE\x99\xe0?'
p42
tp43
Rp44
aatp45
.