(cnumpy.core.multiarray
_reconstruct
p0
(cnumpy
ndarray
p1
(I0
tp2
S'b'
p3
tp4
Rp5
(I1
(I4
tp6
cnumpy
dtype
p7
(S'f8'
p8
I0
I1
tp9
Rp10
(I3
S'<'
p11
NNNI-1
I-1
I0
tp12
bI00
S"C\x13M\xca3\x11L@\xe1^\x82\x10\n'|?JQDyVO2@\x93}\x13\x0f\xe6\xda\xe0?"
p13
tp14
b(lp15
(lp16
cnumpy.core.multiarray
scalar
p17
(g10
S'\xdc\xaa\xcf\nt\nI@'
p18
tp19
Rp20
ag17
(g10
S'\xaa{\xca\x89\xf3\x17O@'
p21
tp22
Rp23
aa(lp24
g17
(g10
S'\xba\x84\xb9W\xf1\x84s?'
p25
tp26
Rp27
ag17
(g10
S'\x84\x9c\xa5d\x91d\x82?'
p28
tp29
Rp30
aa(lp31
g17
(g10
S'JQDyVO2@'
p32
tp33
Rp34
ag17
(g10
S'JQDyVO2@'
p35
tp36
Rp37
aa(lp38
g17
(g10
S'\xceI\xdd?1\xd8\xe0?'
p39
tp40
Rp41
ag17
(g10
S'X\xb1I\xde\x9a\xdd\xe0?'
p42
tp43
Rp44
aatp45
.