(cnumpy.core.multiarray
_reconstruct
p0
(cnumpy
ndarray
p1
(I0
tp2
S'b'
p3
tp4
Rp5
(I1
(I4
tp6
cnumpy
dtype
p7
(S'f8'
p8
I0
I1
tp9
Rp10
(I3
S'<'
p11
NNNI-1
I-1
I0
tp12
bI00
S'\xaeI\x1fk"\xdcT@\x91\x1f\xc8I]\xeap?\xa84\xb7\xbd^\xa9\x86?\x82\xaa\x0e\xd3@y\xe0?'
p13
tp14
b(lp15
(lp16
cnumpy.core.multiarray
scalar
p17
(g10
S'\xa7D\xc7R\x11\x98S@'
p18
tp19
Rp20
ag17
(g10
S'\xb5Nw\x833 V@'
p21
tp22
Rp23
aa(lp24
g17
(g10
S'\x91\x871`\xd5\xb6l?'
p25
tp26
Rp27
ag17
(g10
S'Z{w\xe3Oys?'
p28
tp29
Rp30
aa(lp31
g17
(g10
S'\xc6j\x18\x97\xfc\xb7y?'
p32
tp33
Rp34
ag17
(g10
S'\xf6\x19\xf1\x97_;\x90?'
p35
tp36
Rp37
aa(lp38
g17
(g10
S'\tr\xaa$+x\xe0?'
p39
tp40
Rp41
ag17
(g10
S'\xfb\xe2r\x81Vz\xe0?'
p42
tp43
Rp44
aatp45
.