(cnumpy.core.multiarray
_reconstruct
p0
(cnumpy
ndarray
p1
(I0
tp2
S'b'
p3
tp4
Rp5
(I1
(I4
tp6
cnumpy
dtype
p7
(S'f8'
p8
I0
I1
tp9
Rp10
(I3
S'<'
p11
NNNI-1
I-1
I0
tp12
bI00
S'~+\xca\xc0_-T@\xc9\xe6\x83\xa8\xa4\xbc3?F\xd8RD=\x9c,@\xb6(^\x04\x9dl\xe0?'
p13
tp14
b(lp15
(lp16
cnumpy.core.multiarray
scalar
p17
(g10
S'T\x9ag\x16+qN@'
p18
tp19
Rp20
ag17
(g10
S'\xd2\x89`\xf6)"Y@'
p21
tp22
Rp23
aa(lp24
g17
(g10
S'Z\xfbn\xbb\xe5=O\xbf'
p25
tp26
Rp27
ag17
(g10
S'\x11q\xf91E}Y?'
p28
tp29
Rp30
aa(lp31
g17
(g10
S'F\xd8RD=\x9c,@'
p32
tp33
Rp34
ag17
(g10
S'F\xd8RD=\x9c,@'
p35
tp36
Rp37
aa(lp38
g17
(g10
S'Z\xe0\xa2\xe4\xe7\x1d\xe0?'
p39
tp40
Rp41
ag17
(g10
S'\x12q\x19$R\xbb\xe0?'
p42
tp43
Rp44
aatp45
.