(cnumpy.core.multiarray
_reconstruct
p0
(cnumpy
ndarray
p1
(I0
tp2
S'b'
p3
tp4
Rp5
(I1
(I4
tp6
cnumpy
dtype
p7
(S'f8'
p8
I0
I1
tp9
Rp10
(I3
S'<'
p11
NNNI-1
I-1
I0
tp12
bI00
S'\x1c\xfd@.e\x1bQ@8-X\x12k\x1aw?E\xcdp^w\xf1\x00@\xc1z:<*\xcc\xe0?'
p13
tp14
b(lp15
(lp16
cnumpy.core.multiarray
scalar
p17
(g10
S'J\xe1\x07F4RN@'
p18
tp19
Rp20
ag17
(g10
S'\x93\t~9\xb0\rS@'
p21
tp22
Rp23
aa(lp24
g17
(g10
S'\xae+}\xcb\x99=n?'
p25
tp26
Rp27
ag17
(g10
S'\x99\xc4\xf1>\t\x16\x7f?'
p28
tp29
Rp30
aa(lp31
g17
(g10
S'\xc8m\xa3H\x85j!\xc0'
p32
tp33
Rp34
ag17
(g10
S'j\xd4\xdb\xf7@\xe3)@'
p35
tp36
Rp37
aa(lp38
g17
(g10
S'\x8e@\x98\xb1o\xc9\xe0?'
p39
tp40
Rp41
ag17
(g10
S'\xf4\xb4\xdc\xc6\xe4\xce\xe0?'
p42
tp43
Rp44
aatp45
.