(cnumpy.core.multiarray
_reconstruct
p0
(cnumpy
ndarray
p1
(I0
tp2
S'b'
p3
tp4
Rp5
(I1
(I4
tp6
cnumpy
dtype
p7
(S'f8'
p8
I0
I1
tp9
Rp10
(I3
S'<'
p11
NNNI-1
I-1
I0
tp12
bI00
S'\xc6\xeb\xf2."\x81P@L\xa8o\x0835y?*\x1e{\xaf\xe0c,@|4|\x8c2\x97\xe0?'
p13
tp14
b(lp15
(lp16
cnumpy.core.multiarray
scalar
p17
(g10
S'\x8e\x9a\xd7\xa2\x98\x8fN@'
p18
tp19
Rp20
ag17
(g10
S'E\nz\x0cx\xbaQ@'
p21
tp22
Rp23
aa(lp24
g17
(g10
S'8<\xd6s\xa0Gt?'
p25
tp26
Rp27
ag17
(g10
S'`\x14\t\x9d\xc5"~?'
p28
tp29
Rp30
aa(lp31
g17
(g10
S'*\x1e{\xaf\xe0c,@'
p32
tp33
Rp34
ag17
(g10
S'*\x1e{\xaf\xe0c,@'
p35
tp36
Rp37
aa(lp38
g17
(g10
S'd-k\xb4\xe3\x95\xe0?'
p39
tp40
Rp41
ag17
(g10
S'\x94;\x8dd\x81\x98\xe0?'
p42
tp43
Rp44
aatp45
.