(cnumpy.core.multiarray
_reconstruct
p0
(cnumpy
ndarray
p1
(I0
tp2
S'b'
p3
tp4
Rp5
(I1
(I4
tp6
cnumpy
dtype
p7
(S'f8'
p8
I0
I1
tp9
Rp10
(I3
S'<'
p11
NNNI-1
I-1
I0
tp12
bI00
S"e4\x12\x85\xd3CJ@\x96\x8f}\x1c+\x9a\x88?\xa4\n4iX\xae8@\xc1\x8d\xbc\xda'\xb9\xe0?"
p13
tp14
b(lp15
(lp16
cnumpy.core.multiarray
scalar
p17
(g10
S'av\xc2\xf9\xd2\xe2F@'
p18
tp19
Rp20
ag17
(g10
S'i\xf2a\x10\xd4\xa4M@'
p21
tp22
Rp23
aa(lp24
g17
(g10
S'HW\\\n\xb8\r\x81?'
p25
tp26
Rp27
ag17
(g10
S'\xf2cO\x17O\x13\x90?'
p28
tp29
Rp30
aa(lp31
g17
(g10
S'\xa4\n4iX\xae8@'
p32
tp33
Rp34
ag17
(g10
S'\xa4\n4iX\xae8@'
p35
tp36
Rp37
aa(lp38
g17
(g10
S'w\xf2,\x91\xea\xb6\xe0?'
p39
tp40
Rp41
ag17
(g10
S'\x0b)L$e\xbb\xe0?'
p42
tp43
Rp44
aatp45
.