(cnumpy.core.multiarray
_reconstruct
p0
(cnumpy
ndarray
p1
(I0
tp2
S'b'
p3
tp4
Rp5
(I1
(I4
tp6
cnumpy
dtype
p7
(S'f8'
p8
I0
I1
tp9
Rp10
(I3
S'<'
p11
NNNI-1
I-1
I0
tp12
bI00
S"\xf5\xbe\xdf\x10R\xa4K@\xe2\xec\xce\xf1q8\x88?)\x85\xa7\xb7\tO;@\xa9B'\x11\xb7\xaf\xe0?"
p13
tp14
b(lp15
(lp16
cnumpy.core.multiarray
scalar
p17
(g10
S'\x83*[\x1dZ(H@'
p18
tp19
Rp20
ag17
(g10
S'gSd\x04J O@'
p21
tp22
Rp23
aa(lp24
g17
(g10
S'\x9e\x85"o\x94\xe7\x80?'
p25
tp26
Rp27
ag17
(g10
S'&T{tO\x89\x8f?'
p28
tp29
Rp30
aa(lp31
g17
(g10
S')\x85\xa7\xb7\tO;@'
p32
tp33
Rp34
ag17
(g10
S')\x85\xa7\xb7\tO;@'
p35
tp36
Rp37
aa(lp38
g17
(g10
S'X-\xf4O\x99\xad\xe0?'
p39
tp40
Rp41
ag17
(g10
S'\xfaWZ\xd2\xd4\xb1\xe0?'
p42
tp43
Rp44
aatp45
.