(cnumpy.core.multiarray
_reconstruct
p0
(cnumpy
ndarray
p1
(I0
tp2
S'b'
p3
tp4
Rp5
(I1
(I4
tp6
cnumpy
dtype
p7
(S'f8'
p8
I0
I1
tp9
Rp10
(I3
S'<'
p11
NNNI-1
I-1
I0
tp12
bI00
S'\\c\x80\x16x/S@r\x17\xec\xe3\x8f\xcdV?\x95\x8a\xac_X<+@D*0%\xb0o\xe0?'
p13
tp14
b(lp15
(lp16
cnumpy.core.multiarray
scalar
p17
(g10
S'\xa2\x8b\xa7\xe4$\xfdK@'
p18
tp19
Rp20
ag17
(g10
S'\xe7\x00\xad\xba]`X@'
p21
tp22
Rp23
aa(lp24
g17
(g10
S'\x10\x0c\xa5\xce~\x81R\xbf'
p25
tp26
Rp27
ag17
(g10
S"\xbdN\x9f\xa5'\x07p?"
p28
tp29
Rp30
aa(lp31
g17
(g10
S'\x95\x8a\xac_X<+@'
p32
tp33
Rp34
ag17
(g10
S'\x95\x8a\xac_X<+@'
p35
tp36
Rp37
aa(lp38
g17
(g10
S'1\x80#+BV\xe0?'
p39
tp40
Rp41
ag17
(g10
S'W\xd4<\x1f\x1e\x89\xe0?'
p42
tp43
Rp44
aatp45
.