(cnumpy.core.multiarray
_reconstruct
p0
(cnumpy
ndarray
p1
(I0
tp2
S'b'
p3
tp4
Rp5
(I1
(I4
tp6
cnumpy
dtype
p7
(S'f8'
p8
I0
I1
tp9
Rp10
(I3
S'<'
p11
NNNI-1
I-1
I0
tp12
bI00
S'Q9\x130\xabGK@mi\x8e~\xba2\x89?@k\xfc=\xf5d2@\x04\x04\xde\xba9\x86\xe0?'
p13
tp14
b(lp15
(lp16
cnumpy.core.multiarray
scalar
p17
(g10
S',I\xc7\x0e\xc1+I@'
p18
tp19
Rp20
ag17
(g10
S'v)_Q\x95cM@'
p21
tp22
Rp23
aa(lp24
g17
(g10
S'\x1d\x11{FL\x04\x85?'
p25
tp26
Rp27
ag17
(g10
S'\xbd\xc1\xa1\xb6(a\x8d?'
p28
tp29
Rp30
aa(lp31
g17
(g10
S'\ri\xfc=\xf5d2@'
p32
tp33
Rp34
ag17
(g10
S'sm\xfc=\xf5d2@'
p35
tp36
Rp37
aa(lp38
g17
(g10
S'W\x08\xd5\xc4L\x85\xe0?'
p39
tp40
Rp41
ag17
(g10
S'\xb1\xff\xe6\xb0&\x87\xe0?'
p42
tp43
Rp44
aatp45
.