(cnumpy.core.multiarray
_reconstruct
p0
(cnumpy
ndarray
p1
(I0
tp2
S'b'
p3
tp4
Rp5
(I1
(I4
tp6
cnumpy
dtype
p7
(S'f8'
p8
I0
I1
tp9
Rp10
(I3
S'<'
p11
NNNI-1
I-1
I0
tp12
bI00
S'\x9e\x19\x13;i\xd5Y@Z\x950\x90\x8cp\x08?W\xac0\x03E\xec\xc6?\xb3}]\x91\xedN\xe0?'
p13
tp14
b(lp15
(lp16
cnumpy.core.multiarray
scalar
p17
(g10
S'8H\xd1\xb4\xdbyQ@'
p18
tp19
Rp20
ag17
(g10
S'\x82u\xaa`{\x18a@'
p21
tp22
Rp23
aa(lp24
g17
(g10
S'\xf6\xa1\x1f\xdfl\xfdG\xbf'
p25
tp26
Rp27
ag17
(g10
S'\xa2\xb4%q~\x0bK?'
p28
tp29
Rp30
aa(lp31
g17
(g10
S'\xa4\xbbvr\xf2P\xa6?'
p32
tp33
Rp34
ag17
(g10
S'\xe2\xd4\xe1\xb4&"\xd4?'
p35
tp36
Rp37
aa(lp38
g17
(g10
S'B0\xech?K\xde?'
p39
tp40
Rp41
ag17
(g10
S'E\xe3Dn;x\xe1?'
p42
tp43
Rp44
aatp45
.