(cnumpy.core.multiarray
_reconstruct
p0
(cnumpy
ndarray
p1
(I0
tp2
S'b'
p3
tp4
Rp5
(I1
(I4
tp6
cnumpy
dtype
p7
(S'f8'
p8
I0
I1
tp9
Rp10
(I3
S'<'
p11
NNNI-1
I-1
I0
tp12
bI00
S'\x94-\xd4\xcac-R@\xd5\xe1{nN6y?\xd5\x8a}\x8e@\xc8\x9d?\x02M\x837\xf0\x8f\xe0?'
p13
tp14
b(lp15
(lp16
cnumpy.core.multiarray
scalar
p17
(g10
S'\x9b\xc3\x93&\x92\xfdP@'
p18
tp19
Rp20
ag17
(g10
S'\x8d\x97\x14o5]S@'
p21
tp22
Rp23
aa(lp24
g17
(g10
S'\xc3j}`1\\u?'
p25
tp26
Rp27
ag17
(g10
S'\xe7Xz|k\x10}?'
p28
tp29
Rp30
aa(lp31
g17
(g10
S'Hk\x14\x92I\xc8\x94?'
p32
tp33
Rp34
ag17
(g10
S'1Us\xc5\x1bd\xa3?'
p35
tp36
Rp37
aa(lp38
g17
(g10
S'\xed\xdb\xb01\xf2\x8e\xe0?'
p39
tp40
Rp41
ag17
(g10
S'\x17\xbeU=\xee\x90\xe0?'
p42
tp43
Rp44
aatp45
.