(cnumpy.core.multiarray
_reconstruct
p0
(cnumpy
ndarray
p1
(I0
tp2
S'b'
p3
tp4
Rp5
(I1
(I4
tp6
cnumpy
dtype
p7
(S'f8'
p8
I0
I1
tp9
Rp10
(I3
S'<'
p11
NNNI-1
I-1
I0
tp12
bI00
S')5\xc9DVTH@,\xaa\xe1\r\xa4\xec\x91? \xafNA\xc505@\xba\x0f\x929\xe7\xb1\xe0?'
p13
tp14
b(lp15
(lp16
cnumpy.core.multiarray
scalar
p17
(g10
S'.A@o\xd6.F@'
p18
tp19
Rp20
ag17
(g10
S'$)R\x1a\xd6yJ@'
p21
tp22
Rp23
aa(lp24
g17
(g10
S'J\xe5\x99r)\xa4\x8d?'
p25
tp26
Rp27
ag17
(g10
S'\xb3avb3\x07\x95?'
p28
tp29
Rp30
aa(lp31
g17
(g10
S' \xafNA\xc505@'
p32
tp33
Rp34
ag17
(g10
S' \xafNA\xc505@'
p35
tp36
Rp37
aa(lp38
g17
(g10
S'\x8eL7#\x08\xb1\xe0?'
p39
tp40
Rp41
ag17
(g10
S'\xe6\xd2\xecO\xc6\xb2\xe0?'
p42
tp43
Rp44
aatp45
.