(cnumpy.core.multiarray
_reconstruct
p0
(cnumpy
ndarray
p1
(I0
tp2
S'b'
p3
tp4
Rp5
(I1
(I4
tp6
cnumpy
dtype
p7
(S'f8'
p8
I0
I1
tp9
Rp10
(I3
S'<'
p11
NNNI-1
I-1
I0
tp12
bI00
S'\x88_\xd09w\xb7M@\x92\x836$\x1f)\x82?\xb2fv\x86V\xcc)@tP*Y\x06\xa1\xe0?'
p13
tp14
b(lp15
(lp16
cnumpy.core.multiarray
scalar
p17
(g10
S'\x95s`\x06\xb4sK@'
p18
tp19
Rp20
ag17
(g10
S'{K@m:\xfbO@'
p21
tp22
Rp23
aa(lp24
g17
(g10
S'-X\xfb&@\xcf}?'
p25
tp26
Rp27
ag17
(g10
S'\x0e[\xef4\x9ej\x85?'
p28
tp29
Rp30
aa(lp31
g17
(g10
S'\xb2fv\x86V\xcc)@'
p32
tp33
Rp34
ag17
(g10
S'\xb2fv\x86V\xcc)@'
p35
tp36
Rp37
aa(lp38
g17
(g10
S'\x02\xed\xfd\x14\xee\x9f\xe0?'
p39
tp40
Rp41
ag17
(g10
S'\xe6\xb3V\x9d\x1e\xa2\xe0?'
p42
tp43
Rp44
aatp45
.