(cnumpy.core.multiarray
_reconstruct
p0
(cnumpy
ndarray
p1
(I0
tp2
S'b'
p3
tp4
Rp5
(I1
(I4
tp6
cnumpy
dtype
p7
(S'f8'
p8
I0
I1
tp9
Rp10
(I3
S'<'
p11
NNNI-1
I-1
I0
tp12
bI00
S'^,\x95\x82\x894V@\x98\xe90.\xe3gI?B\x1e\x18\xf1K#(@\x80\xfbo"o\x91\xe0?'
p13
tp14
b(lp15
(lp16
cnumpy.core.multiarray
scalar
p17
(g10
S'y\xfa\xe1\x06E\x91N@'
p18
tp19
Rp20
ag17
(g10
S'\x80[\xb9\x81p ]@'
p21
tp22
Rp23
aa(lp24
g17
(g10
S'\xde\xde\x12!\xc8\xd0X\xbf'
p25
tp26
Rp27
ag17
(g10
S';\xe4\xa1\xa7U\x1ci?'
p28
tp29
Rp30
aa(lp31
g17
(g10
S'B\x1e\x18\xf1K#(@'
p32
tp33
Rp34
ag17
(g10
S'B\x1e\x18\xf1K#(@'
p35
tp36
Rp37
aa(lp38
g17
(g10
S'\x8f"\xb5\x18\xb9g\xe0?'
p39
tp40
Rp41
ag17
(g10
S'q\xd4*,%\xbb\xe0?'
p42
tp43
Rp44
aatp45
.