(cnumpy.core.multiarray
_reconstruct
p0
(cnumpy
ndarray
p1
(I0
tp2
S'b'
p3
tp4
Rp5
(I1
(I4
tp6
cnumpy
dtype
p7
(S'f8'
p8
I0
I1
tp9
Rp10
(I3
S'<'
p11
NNNI-1
I-1
I0
tp12
bI00
S'\xaf\xe3\xde\x85\xbb\x1bT@E}\xc8\xf7m\x1bZ?\x12>g/\xad>,@\xf2\x92\x82gJ\x85\xe0?'
p13
tp14
b(lp15
(lp16
cnumpy.core.multiarray
scalar
p17
(g10
S'0\x88\xf5lV"L@'
p18
tp19
Rp20
ag17
(g10
S'F\x03C\xd5K&Z@'
p21
tp22
Rp23
aa(lp24
g17
(g10
S'M\xda\xa0\xf8l\x94V\xbf'
p25
tp26
Rp27
ag17
(g10
S'6u\x0c:\xd2\xb2r?'
p28
tp29
Rp30
aa(lp31
g17
(g10
S'\x12>g/\xad>,@'
p32
tp33
Rp34
ag17
(g10
S'\x12>g/\xad>,@'
p35
tp36
Rp37
aa(lp38
g17
(g10
S'E\xee(B~m\xe0?'
p39
tp40
Rp41
ag17
(g10
S'\x9f7\xdc\x8c\x16\x9d\xe0?'
p42
tp43
Rp44
aatp45
.