(cnumpy.core.multiarray
_reconstruct
p0
(cnumpy
ndarray
p1
(I0
tp2
S'b'
p3
tp4
Rp5
(I1
(I4
tp6
cnumpy
dtype
p7
(S'f8'
p8
I0
I1
tp9
Rp10
(I3
S'<'
p11
NNNI-1
I-1
I0
tp12
bI00
S'\xae\x91bdU4V@N\x8eL\xd7r\x87Z?\x82\xaat\xca\xb2\xb6\x9a?\nTN\x9f\x10r\xe0?'
p13
tp14
b(lp15
(lp16
cnumpy.core.multiarray
scalar
p17
(g10
S'P\xefT\xac\x8aQQ@'
p18
tp19
Rp20
ag17
(g10
S'\x0c4p\x1c \x17[@'
p21
tp22
Rp23
aa(lp24
g17
(g10
S'8)\xcbI\x80\xfe,\xbf'
p25
tp26
Rp27
ag17
(g10
S'\xe2@\xe9\xdbZWl?'
p28
tp29
Rp30
aa(lp31
g17
(g10
S'\xacJp\xdfd\x8d~?'
p32
tp33
Rp34
ag17
(g10
S',\xa1\x86.\x06\xe5\xa6?'
p35
tp36
Rp37
aa(lp38
g17
(g10
S'\xbfJ5!fc\xe0?'
p39
tp40
Rp41
ag17
(g10
S'U]g\x1d\xbb\x80\xe0?'
p42
tp43
Rp44
aatp45
.