(cnumpy.core.multiarray
_reconstruct
p0
(cnumpy
ndarray
p1
(I0
tp2
S'b'
p3
tp4
Rp5
(I1
(I4
tp6
cnumpy
dtype
p7
(S'f8'
p8
I0
I1
tp9
Rp10
(I3
S'<'
p11
NNNI-1
I-1
I0
tp12
bI00
S'\xca\x96a\xef~\xb8]@\xcbA\nd\xee\xb0\x90?\xe8\xd1 j\xb5g\x14@G\x9d!\x8b\xb5\n\xe1?'
p13
tp14
b(lp15
(lp16
cnumpy.core.multiarray
scalar
p17
(g10
S'8\xbe\xa9\x98\xaePJ@'
p18
tp19
Rp20
ag17
(g10
S"<'7IS$g@"
p21
tp22
Rp23
aa(lp24
g17
(g10
S'\x80\x01\x80\xe7\t\xd7k\xbf'
p25
tp26
Rp27
ag17
(g10
S'\xe3A\x82\x02_n\xa2?'
p28
tp29
Rp30
aa(lp31
g17
(g10
S'\x06\x8e\r\x8d.\xa5t\xc0'
p32
tp33
Rp34
ag17
(g10
S'\x96\x94^8lHu@'
p35
tp36
Rp37
aa(lp38
g17
(g10
S'2\xc4F\\\xde\x07\xe1?'
p39
tp40
Rp41
ag17
(g10
S'\\v\xfc\xb9\x8c\r\xe1?'
p42
tp43
Rp44
aatp45
.