(cnumpy.core.multiarray
_reconstruct
p0
(cnumpy
ndarray
p1
(I0
tp2
S'b'
p3
tp4
Rp5
(I1
(I4
tp6
cnumpy
dtype
p7
(S'f8'
p8
I0
I1
tp9
Rp10
(I3
S'<'
p11
NNNI-1
I-1
I0
tp12
bI00
S'\xde\xc1q\xb7\x8a+h@\xf8\x93:7h\xfdY?IS\xae*\xc7*6@OZ+\x07\xf9\xb9\xe0?'
p13
tp14
b(lp15
(lp16
cnumpy.core.multiarray
scalar
p17
(g10
S'\x0b\x9e!9\x9b\x84[@'
p18
tp19
Rp20
ag17
(g10
S'[Z)\xe9cJq@'
p21
tp22
Rp23
aa(lp24
g17
(g10
S'*y\x9c\x0f\x84\x92e\xbf'
p25
tp26
Rp27
ag17
(g10
S'\x91\x86k#\xf6\xc7w?'
p28
tp29
Rp30
aa(lp31
g17
(g10
S'IS\xae*\xc7*6@'
p32
tp33
Rp34
ag17
(g10
S'IS\xae*\xc7*6@'
p35
tp36
Rp37
aa(lp38
g17
(g10
S'\xdf\xa1\xcen\x8a\xac\xe0?'
p39
tp40
Rp41
ag17
(g10
S'\xbf\x12\x88\x9fg\xc7\xe0?'
p42
tp43
Rp44
aatp45
.