(cnumpy.core.multiarray
_reconstruct
p0
(cnumpy
ndarray
p1
(I0
tp2
S'b'
p3
tp4
Rp5
(I1
(I4
tp6
cnumpy
dtype
p7
(S'f8'
p8
I0
I1
tp9
Rp10
(I3
S'<'
p11
NNNI-1
I-1
I0
tp12
bI00
S'\xc4\x9b\x15\x971\xa0m@\xbfk\xee?\xb8n\xdc>M\x97\xd8=\x99I\n@\x88\xaa\xacZx\xb4\xe0?'
p13
tp14
b(lp15
(lp16
cnumpy.core.multiarray
scalar
p17
(g10
S'nK2\x9f\x9c\xeaa@'
p18
tp19
Rp20
ag17
(g10
S'\rv|G\xe3\xaat@'
p21
tp22
Rp23
aa(lp24
g17
(g10
S'\xb0$rm\x19\tA\xbf'
p25
tp26
Rp27
ag17
(g10
S'^\xdeqN\xd4zA?'
p28
tp29
Rp30
aa(lp31
g17
(g10
S'kJ\xb3C\xe0\xddb\xc0'
p32
tp33
Rp34
ag17
(g10
S'%\x0f\xa2\r-\xb0c@'
p35
tp36
Rp37
aa(lp38
g17
(g10
S'\xa8{)q\x17\x85\xdc?'
p39
tp40
Rp41
ag17
(g10
S'<\x97\xc4\xfcd&\xe3?'
p42
tp43
Rp44
aatp45
.