(cnumpy.core.multiarray
_reconstruct
p0
(cnumpy
ndarray
p1
(I0
tp2
S'b'
p3
tp4
Rp5
(I1
(I4
tp6
cnumpy
dtype
p7
(S'f8'
p8
I0
I1
tp9
Rp10
(I3
S'<'
p11
NNNI-1
I-1
I0
tp12
bI00
S'\xd6\xa3xg8im@\xe8\x8b+B\xf7\xd4.?4/\xe6\x109\x17\x0c@NW$\xf2\xed\xaa\xe0?'
p13
tp14
b(lp15
(lp16
cnumpy.core.multiarray
scalar
p17
(g10
S'\xd1\\\x8cw\x88\xfca@'
p18
tp19
Rp20
ag17
(g10
S'nu\xb2+\xf4jt@'
p21
tp22
Rp23
aa(lp24
g17
(g10
S'N\x16j\x03\xa5\x9eY\xbf'
p25
tp26
Rp27
ag17
(g10
S'\xa4|\xfai\xf1\xa9`?'
p28
tp29
Rp30
aa(lp31
g17
(g10
S'D:\xd0p\xbd\xa5n\xc0'
p32
tp33
Rp34
ag17
(g10
S'\xbekW9w\x86o@'
p35
tp36
Rp37
aa(lp38
g17
(g10
S'\xa4i\x9f\nNy\xe0?'
p39
tp40
Rp41
ag17
(g10
S'\xf8D\xa9\xd9\x8d\xdc\xe0?'
p42
tp43
Rp44
aatp45
.