(cnumpy.core.multiarray
_reconstruct
p0
(cnumpy
ndarray
p1
(I0
tp2
S'b'
p3
tp4
Rp5
(I1
(I4
tp6
cnumpy
dtype
p7
(S'f8'
p8
I0
I1
tp9
Rp10
(I3
S'<'
p11
NNNI-1
I-1
I0
tp12
bI00
S'\xd6ll\x9f\xf2\x84k@\xd5\xe8t\x1a\xf4(\xc5>m\xec\xbe`\xec*\xde?\x08n\x99\xae\xf4|\xe0?'
p13
tp14
b(lp15
(lp16
cnumpy.core.multiarray
scalar
p17
(g10
S'Pk1\x1d}\t7@'
p18
tp19
Rp20
ag17
(g10
S'!V\x99\xcdZ\x14z@'
p21
tp22
Rp23
aa(lp24
g17
(g10
S'N\xa0Dvc\x1bE\xbf'
p25
tp26
Rp27
ag17
(g10
S' \x8ay^\xb5EE?'
p28
tp29
Rp30
aa(lp31
g17
(g10
S'+Kw\xe7\xa8\x89\xd9?'
p32
tp33
Rp34
ag17
(g10
S'\xd8F\x03\xed\x17f\xe1?'
p35
tp36
Rp37
aa(lp38
g17
(g10
S'Dh\xe0\xce\xeeV\xce?'
p39
tp40
Rp41
ag17
(g10
S'\xff\xc1z\xa9-d\xe9?'
p42
tp43
Rp44
aatp45
.