(cnumpy.core.multiarray
_reconstruct
p0
(cnumpy
ndarray
p1
(I0
tp2
S'b'
p3
tp4
Rp5
(I1
(I4
tp6
cnumpy
dtype
p7
(S'f8'
p8
I0
I1
tp9
Rp10
(I3
S'<'
p11
NNNI-1
I-1
I0
tp12
bI00
S'\xbfI\xf8\x18r\x9af@R\xcdgZs\xc5\xa7>8,\tba\t\xfe?\x8a\xe5\x9bbeV\xe0?'
p13
tp14
b(lp15
(lp16
cnumpy.core.multiarray
scalar
p17
(g10
S'\xcd\xe7\x88\xc1\xb2\x9da\xc0'
p18
tp19
Rp20
ag17
(g10
S'\xa6\xbd\xbcyKi\x7f@'
p21
tp22
Rp23
aa(lp24
g17
(g10
S'x\xe9\x87\xc4`U:\xbf'
p25
tp26
Rp27
ag17
(g10
S'FQ\xe27&m:?'
p28
tp29
Rp30
aa(lp31
g17
(g10
S'\xc1\x94\\=\x92_B\xc0'
p32
tp33
Rp34
ag17
(g10
S"\x85'}S(@D@"
p35
tp36
Rp37
aa(lp38
g17
(g10
S'\xacVk\xb2C\xa3\xcf\xbf'
p39
tp40
Rp41
ag17
(g10
S'`P\xe9\xd8\xcdJ\xf4?'
p42
tp43
Rp44
aatp45
.