(cnumpy.core.multiarray
_reconstruct
p0
(cnumpy
ndarray
p1
(I0
tp2
S'b'
p3
tp4
Rp5
(I1
(I4
tp6
cnumpy
dtype
p7
(S'f8'
p8
I0
I1
tp9
Rp10
(I3
S'<'
p11
NNNI-1
I-1
I0
tp12
bI00
S'\xee\x96\xb9AP\x91k@_-\x05\x89\xa0:Z?\xf0;\x13$W\xa2\xe0?D2\x00\xaas7\xe1?'
p13
tp14
b(lp15
(lp16
cnumpy.core.multiarray
scalar
p17
(g10
S'4pzE&\x87d@'
p18
tp19
Rp20
ag17
(g10
S'\xd4^\xfc\x1e\xbdMq@'
p21
tp22
Rp23
aa(lp24
g17
(g10
S'\x8e\xd0IDQ\x94Y?'
p25
tp26
Rp27
ag17
(g10
S'0\x8a\xc0\xcd\xef\xe0Z?'
p28
tp29
Rp30
aa(lp31
g17
(g10
S'{\xf2lP\x92~\x06\xc0'
p32
tp33
Rp34
ag17
(g10
S's\x90v\xe2\xbd\xcf\x0e@'
p35
tp36
Rp37
aa(lp38
g17
(g10
S'f\xb3aaq3\xe1?'
p39
tp40
Rp41
ag17
(g10
S'"\xb1\x9e\xf2u;\xe1?'
p42
tp43
Rp44
aatp45
.