(cnumpy.core.multiarray
_reconstruct
p0
(cnumpy
ndarray
p1
(I0
tp2
S'b'
p3
tp4
Rp5
(I1
(I4
tp6
cnumpy
dtype
p7
(S'f8'
p8
I0
I1
tp9
Rp10
(I3
S'<'
p11
NNNI-1
I-1
I0
tp12
bI00
S'\xc7\x82\xd4\xf9\xa1\xefh@7\x15\xb2\xa9\x81\t/?bC1\x07oF+@\xc7\xe4xN\xd6\xc5\xe0?'
p13
tp14
b(lp15
(lp16
cnumpy.core.multiarray
scalar
p17
(g10
S'\x80\xb8V\x04!/`@'
p18
tp19
Rp20
ag17
(g10
S'\x87&\xa9w\x11\xd8p@'
p21
tp22
Rp23
aa(lp24
g17
(g10
S'=\xbcU\x91\xaa\xb1V\xbf'
p25
tp26
Rp27
ag17
(g10
S'\x8bA\xc2\xfb\nt^?'
p28
tp29
Rp30
aa(lp31
g17
(g10
S'bC1\x07oF+@'
p32
tp33
Rp34
ag17
(g10
S'bC1\x07oF+@'
p35
tp36
Rp37
aa(lp38
g17
(g10
S'M\xec\xb5\xd1\xd0\x91\xe0?'
p39
tp40
Rp41
ag17
(g10
S'A\xdd;\xcb\xdb\xf9\xe0?'
p42
tp43
Rp44
aatp45
.