(cnumpy.core.multiarray
_reconstruct
p0
(cnumpy
ndarray
p1
(I0
tp2
S'b'
p3
tp4
Rp5
(I1
(I4
tp6
cnumpy
dtype
p7
(S'f8'
p8
I0
I1
tp9
Rp10
(I3
S'<'
p11
NNNI-1
I-1
I0
tp12
bI00
S'\xa6\xcf$p\x9cgk@\x8c\x10"b\xb6\xd4Q>7\xca6\x02\xdfl\xda?\xd8Y0S\nb\xe0?'
p13
tp14
b(lp15
(lp16
cnumpy.core.multiarray
scalar
p17
(g10
S',x5\x00\x9bgk@'
p18
tp19
Rp20
ag17
(g10
S" '\x14\xe0\x9dgk@"
p21
tp22
Rp23
aa(lp24
g17
(g10
S'\xf1$\x93\x93\xf6Y\xbc\xbe'
p25
tp26
Rp27
ag17
(g10
S'u5\xa4F\x9c\xe8\xbc>'
p28
tp29
Rp30
aa(lp31
g17
(g10
S'R\xf1C\xb82n\xea\xbf'
p32
tp33
Rp34
ag17
(g10
S'\xc5]=\xdd\x88m\xfa?'
p35
tp36
Rp37
aa(lp38
g17
(g10
S'D.+\x8eac\xdb?'
p39
tp40
Rp41
ag17
(g10
S'\x8e\x1cK\xdfc\x12\xe3?'
p42
tp43
Rp44
aatp45
.