(cnumpy.core.multiarray
_reconstruct
p0
(cnumpy
ndarray
p1
(I0
tp2
S'b'
p3
tp4
Rp5
(I1
(I4
tp6
cnumpy
dtype
p7
(S'f8'
p8
I0
I1
tp9
Rp10
(I3
S'<'
p11
NNNI-1
I-1
I0
tp12
bI00
S'\x02\xb8.\xf3\xc3\xa1k@v\xea\xdc\xbc\xefr:?\xea\xf2\xafX\x98]\xda?S\xca<Iob\xe0?'
p13
tp14
b(lp15
(lp16
cnumpy.core.multiarray
scalar
p17
(g10
S'\xd4\xfe7\xba;ug@'
p18
tp19
Rp20
ag17
(g10
S'0q%,L\xceo@'
p21
tp22
Rp23
aa(lp24
g17
(g10
S'\x88\x922A@\xf68?'
p25
tp26
Rp27
ag17
(g10
S'dB\x878\x9f\xef;?'
p28
tp29
Rp30
aa(lp31
g17
(g10
S'\xe3\xc6MT\xbfV\xec\xbf'
p32
tp33
Rp34
ag17
(g10
S'\xe6\xdc~\xd6+Z\xfb?'
p35
tp36
Rp37
aa(lp38
g17
(g10
S'\xef \x80\xa0\x86^\xe0?'
p39
tp40
Rp41
ag17
(g10
S'\xb7s\xf9\xf1Wf\xe0?'
p42
tp43
Rp44
aatp45
.