(cnumpy.core.multiarray
_reconstruct
p0
(cnumpy
ndarray
p1
(I0
tp2
S'b'
p3
tp4
Rp5
(I1
(I4
tp6
cnumpy
dtype
p7
(S'f8'
p8
I0
I1
tp9
Rp10
(I3
S'<'
p11
NNNI-1
I-1
I0
tp12
bI00
S'\xa4j\xf9\x7f\xa0\xa7m@\x9b3\xf4\xa4\xb0\xe6\xd9>)&\xf8\xd6\xf1\xaf\x14@\x90c\xaeK\xbf\xb3\xe0?'
p13
tp14
b(lp15
(lp16
cnumpy.core.multiarray
scalar
p17
(g10
S'\x83&|/(\x99a@'
p18
tp19
Rp20
ag17
(g10
S'bW;h\x0c\xdbt@'
p21
tp22
Rp23
aa(lp24
g17
(g10
S'$wIPg\xc1@\xbf'
p25
tp26
Rp27
ag17
(g10
S'\xf2G\xdd\x12\x02)A?'
p28
tp29
Rp30
aa(lp31
g17
(g10
S'A1\xdc\x80~?\x81\xc0'
p32
tp33
Rp34
ag17
(g10
S'\xd9\x118H>\x92\x81@'
p35
tp36
Rp37
aa(lp38
g17
(g10
S'\xa2\xa7^&> \xdc?'
p39
tp40
Rp41
ag17
(g10
S'Os-\x84_W\xe3?'
p42
tp43
Rp44
aatp45
.