(cnumpy.core.multiarray
_reconstruct
p0
(cnumpy
ndarray
p1
(I0
tp2
S'b'
p3
tp4
Rp5
(I1
(I4
tp6
cnumpy
dtype
p7
(S'f8'
p8
I0
I1
tp9
Rp10
(I3
S'<'
p11
NNNI-1
I-1
I0
tp12
bI00
S'k6M\xfb\xbcnl@COE\x0f:\x7f\xf1>\xdf\xbf*\xb4\xa4\x8f\n@\xb3\xc5|-\r\x86\xe0?'
p13
tp14
b(lp15
(lp16
cnumpy.core.multiarray
scalar
p17
(g10
S"H\x1a'\xac\xfc\x0c_@"
p18
tp19
Rp20
ag17
(g10
S'\xd9oC\xd0}\xabt@'
p21
tp22
Rp23
aa(lp24
g17
(g10
S'r\x8f\xf9\xdaQ^L\xbf'
p25
tp26
Rp27
ag17
(g10
S'f\xe4\xed{EvM?'
p28
tp29
Rp30
aa(lp31
g17
(g10
S'/\x8c\xe6\xfdBrh\xc0'
p32
tp33
Rp34
ag17
(g10
S'-\xe2\x87#\xc0Fi@'
p35
tp36
Rp37
aa(lp38
g17
(g10
S'$\x84!RR\x9c\xdd?'
p39
tp40
Rp41
ag17
(g10
S'T\xc9\xe81\xf1=\xe2?'
p42
tp43
Rp44
aatp45
.