(cnumpy.core.multiarray
_reconstruct
p0
(cnumpy
ndarray
p1
(I0
tp2
S'b'
p3
tp4
Rp5
(I1
(I4
tp6
cnumpy
dtype
p7
(S'f8'
p8
I0
I1
tp9
Rp10
(I3
S'<'
p11
NNNI-1
I-1
I0
tp12
bI00
S"\xa8\xf3\x8fgg\te@59\xa8(M[J?l\xd4k\xe1_\xafq?l\xb0oq'\xe5\xe0?"
p13
tp14
b(lp15
(lp16
cnumpy.core.multiarray
scalar
p17
(g10
S'"\xaf\xeb\xcd\x7fOb@'
p18
tp19
Rp20
ag17
(g10
S'.84\x01O\xc3g@'
p21
tp22
Rp23
aa(lp24
g17
(g10
S'\xfaF\x16/\x1f\xfdI?'
p25
tp26
Rp27
ag17
(g10
S'p+:"{\xb9J?'
p28
tp29
Rp30
aa(lp31
g17
(g10
S'\xa4i)\xf8\xd8\xdea\xbf'
p32
tp33
Rp34
ag17
(g10
S"\xd5.v\x1f\x16'\x86?"
p35
tp36
Rp37
aa(lp38
g17
(g10
S'\xf6\x9fhh\x91\xe1\xe0?'
p39
tp40
Rp41
ag17
(g10
S'\xe2\xc0vz\xbd\xe8\xe0?'
p42
tp43
Rp44
aatp45
.