(cnumpy.core.multiarray
_reconstruct
p0
(cnumpy
ndarray
p1
(I0
tp2
S'b'
p3
tp4
Rp5
(I1
(I4
tp6
cnumpy
dtype
p7
(S'f8'
p8
I0
I1
tp9
Rp10
(I3
S'<'
p11
NNNI-1
I-1
I0
tp12
bI00
S'\xdaQU"\x15ia@\x0b\xaa\x03\x92r\xbbj?\xf3\xb2]1\xc4RT@\xaf($y\x1eh\xe0?'
p13
tp14
b(lp15
(lp16
cnumpy.core.multiarray
scalar
p17
(g10
S'\x9f\x06\xb8\xc2k\xf1[@'
p18
tp19
Rp20
ag17
(g10
S'e\xa0Nct\xd9d@'
p21
tp22
Rp23
aa(lp24
g17
(g10
S'p\xfa\xeeM\x00\x8a2?'
p25
tp26
Rp27
ag17
(g10
S'd\xba$\x8d\xd2\x92y?'
p28
tp29
Rp30
aa(lp31
g17
(g10
S'\xf3\xb2]1\xc4RT@'
p32
tp33
Rp34
ag17
(g10
S'\xf3\xb2]1\xc4RT@'
p35
tp36
Rp37
aa(lp38
g17
(g10
S'\xd3\xa8\xb6o\xcfb\xe0?'
p39
tp40
Rp41
ag17
(g10
S'\x8b\xa8\x91\x82mm\xe0?'
p42
tp43
Rp44
aatp45
.