(cnumpy.core.multiarray
_reconstruct
p0
(cnumpy
ndarray
p1
(I0
tp2
S'b'
p3
tp4
Rp5
(I1
(I4
tp6
cnumpy
dtype
p7
(S'f8'
p8
I0
I1
tp9
Rp10
(I3
S'<'
p11
NNNI-1
I-1
I0
tp12
bI00
S'\xac=#&:\x9d`@\x94ZE\xcc\xd7qw?j\xf3\xbf\xf4sWe@Vory%\xc6\xe0?'
p13
tp14
b(lp15
(lp16
cnumpy.core.multiarray
scalar
p17
(g10
S'\xd6-\x89^r\xe3V@'
p18
tp19
Rp20
ag17
(g10
S'm\xe4\x01\x1d\xbb\xc8e@'
p21
tp22
Rp23
aa(lp24
g17
(g10
S'\x18\xcdl,\xf8\xd2D\xbf'
p25
tp26
Rp27
ag17
(g10
S"f'\x0cO\x07\xbf\x88?"
p28
tp29
Rp30
aa(lp31
g17
(g10
S'j\xf3\xbf\xf4sWe@'
p32
tp33
Rp34
ag17
(g10
S'j\xf3\xbf\xf4sWe@'
p35
tp36
Rp37
aa(lp38
g17
(g10
S':\xf8\xa9J\xf8\xc0\xe0?'
p39
tp40
Rp41
ag17
(g10
S'r\xe6:\xa8R\xcb\xe0?'
p42
tp43
Rp44
aatp45
.