(cnumpy.core.multiarray
_reconstruct
p0
(cnumpy
ndarray
p1
(I0
tp2
S'b'
p3
tp4
Rp5
(I1
(I4
tp6
cnumpy
dtype
p7
(S'f8'
p8
I0
I1
tp9
Rp10
(I3
S'<'
p11
NNNI-1
I-1
I0
tp12
bI00
S'l\x86\xf4O\xe4\xb0b@w\xfc@\xe9(\xe2w?\x95\x80eY\x15\xa8P@\xd9\x85Mx.\xb1\xe0?'
p13
tp14
b(lp15
(lp16
cnumpy.core.multiarray
scalar
p17
(g10
S'\xec\x06 Y]|Z@'
p18
tp19
Rp20
ag17
(g10
S'b\tY\xf3\x99#h@'
p21
tp22
Rp23
aa(lp24
g17
(g10
S'\xe0\xd4m\xf9\xa3\xde(\xbf'
p25
tp26
Rp27
ag17
(g10
S'\xca\xb3&y\xa3E\x88?'
p28
tp29
Rp30
aa(lp31
g17
(g10
S'\xcbaeY\x15\xa8P@'
p32
tp33
Rp34
ag17
(g10
S'_\x9feY\x15\xa8P@'
p35
tp36
Rp37
aa(lp38
g17
(g10
S']+Pc\xeb\xac\xe0?'
p39
tp40
Rp41
ag17
(g10
S'U\xe0J\x8dq\xb5\xe0?'
p42
tp43
Rp44
aatp45
.