(cnumpy.core.multiarray
_reconstruct
p0
(cnumpy
ndarray
p1
(I0
tp2
S'b'
p3
tp4
Rp5
(I1
(I4
tp6
cnumpy
dtype
p7
(S'f8'
p8
I0
I1
tp9
Rp10
(I3
S'<'
p11
NNNI-1
I-1
I0
tp12
bI00
S'v\xbb\xf8\xb6\x18\x19f@3v:r\x82\xfa)?\x19\xd0\xb3\n\x15\xfa\xb9?\x03\xc4\xbeg\xbev\xe0?'
p13
tp14
b(lp15
(lp16
cnumpy.core.multiarray
scalar
p17
(g10
S'\xab;\xfd\x10\xe2\x1ed@'
p18
tp19
Rp20
ag17
(g10
S'A;\xf4\\O\x13h@'
p21
tp22
Rp23
aa(lp24
g17
(g10
S'\x82o\x04\xdb,\xd7)?'
p25
tp26
Rp27
ag17
(g10
S'\xe4|p\t\xd8\x1d*?'
p28
tp29
Rp30
aa(lp31
g17
(g10
S'C\x9f6M\x88\xf6\xa6?'
p32
tp33
Rp34
ag17
(g10
S'H(f\xf7r<\xc4?'
p35
tp36
Rp37
aa(lp38
g17
(g10
S'K\xcd\x1et,s\xe0?'
p39
tp40
Rp41
ag17
(g10
S'\xbb\xba^[Pz\xe0?'
p42
tp43
Rp44
aatp45
.