(cnumpy.core.multiarray
_reconstruct
p0
(cnumpy
ndarray
p1
(I0
tp2
S'b'
p3
tp4
Rp5
(I1
(I4
tp6
cnumpy
dtype
p7
(S'f8'
p8
I0
I1
tp9
Rp10
(I3
S'<'
p11
NNNI-1
I-1
I0
tp12
bI00
S'v<%\x05\xb4@`@YCy\x1ed\xe7\x80? \x03PS$\xcbd@e\xa4AE\x9e\xba\xe0?'
p13
tp14
b(lp15
(lp16
cnumpy.core.multiarray
scalar
p17
(g10
S'\xe2\x90\xfa\x92BDW@'
p18
tp19
Rp20
ag17
(g10
S'{0\xcd\xc0F\xdfd@'
p21
tp22
Rp23
aa(lp24
g17
(g10
S"\x8cd$\xcf'<Q?"
p25
tp26
Rp27
ag17
(g10
S' \xfa\rCC\xa7\x8f?'
p28
tp29
Rp30
aa(lp31
g17
(g10
S' \x03PS$\xcbd@'
p32
tp33
Rp34
ag17
(g10
S' \x03PS$\xcbd@'
p35
tp36
Rp37
aa(lp38
g17
(g10
S'9\xe0\xb3$ \xb7\xe0?'
p39
tp40
Rp41
ag17
(g10
S'\x91h\xcfe\x1c\xbe\xe0?'
p42
tp43
Rp44
aatp45
.