(cnumpy.core.multiarray
_reconstruct
p0
(cnumpy
ndarray
p1
(I0
tp2
S'b'
p3
tp4
Rp5
(I1
(I4
tp6
cnumpy
dtype
p7
(S'f8'
p8
I0
I1
tp9
Rp10
(I3
S'<'
p11
NNNI-1
I-1
I0
tp12
bI00
S'\xac\x01w>\xb7\x15h@(g\xbco%\x90W?<jpm\x9ctr?\xe7\x97\x8do\x8f\xe3\xe0?'
p13
tp14
b(lp15
(lp16
cnumpy.core.multiarray
scalar
p17
(g10
S'\xa9\x92\xa8$\xf9\xd7d@'
p18
tp19
Rp20
ag17
(g10
S'\xafpEXuSk@'
p21
tp22
Rp23
aa(lp24
g17
(g10
S'\x94\xf7Jd^eS?'
p25
tp26
Rp27
ag17
(g10
S'\xbc\xd6-{\xec\xba[?'
p28
tp29
Rp30
aa(lp31
g17
(g10
S'\x061\rc\xa7\x92r\xbf'
p32
tp33
Rp34
ag17
(g10
S'\xbf\x02\xf7\x1e\xf0\xbd\x8b?'
p35
tp36
Rp37
aa(lp38
g17
(g10
S'9\xcc\xf2n\xba\xe0\xe0?'
p39
tp40
Rp41
ag17
(g10
S'\x95c(pd\xe6\xe0?'
p42
tp43
Rp44
aatp45
.