(cnumpy.core.multiarray
_reconstruct
p0
(cnumpy
ndarray
p1
(I0
tp2
S'b'
p3
tp4
Rp5
(I1
(I4
tp6
cnumpy
dtype
p7
(S'f8'
p8
I0
I1
tp9
Rp10
(I3
S'<'
p11
NNNI-1
I-1
I0
tp12
bI00
S"(qxw4]m@N+\x1f\x7f\xf2'9?\x7f7b^\xb2\x9d\xa9?_\xe6<\xfc\xb7\xd3\xe0?"
p13
tp14
b(lp15
(lp16
cnumpy.core.multiarray
scalar
p17
(g10
S'\xdb |\xdd\x8d^i@'
p18
tp19
Rp20
ag17
(g10
S'\xbb`\xba\x88\xed\xadp@'
p21
tp22
Rp23
aa(lp24
g17
(g10
S'\xa4N\xff:`\x169?'
p25
tp26
Rp27
ag17
(g10
S'\xf8\x07?\xc3\x8499?'
p28
tp29
Rp30
aa(lp31
g17
(g10
S'j\x8dJ\xc4PV\x92?'
p32
tp33
Rp34
ag17
(g10
S'$\x94O-\x1e\x08\xb5?'
p35
tp36
Rp37
aa(lp38
g17
(g10
S'\xbf\x86L\xc1f\xd0\xe0?'
p39
tp40
Rp41
ag17
(g10
S'\xffE-7\t\xd7\xe0?'
p42
tp43
Rp44
aatp45
.