(cnumpy.core.multiarray
_reconstruct
p0
(cnumpy
ndarray
p1
(I0
tp2
S'b'
p3
tp4
Rp5
(I1
(I4
tp6
cnumpy
dtype
p7
(S'f8'
p8
I0
I1
tp9
Rp10
(I3
S'<'
p11
NNNI-1
I-1
I0
tp12
bI00
S'9\xbf\x06/x{m@C\xd3\xf9N\xe5\x8b\xc3>\x08\xf9&cb\xcd!@s\x80\x05\xfc^}\xe0?'
p13
tp14
b(lp15
(lp16
cnumpy.core.multiarray
scalar
p17
(g10
S'\xf6\x06q\xe6\xc6\x8cT@'
p18
tp19
Rp20
ag17
(g10
S'|}juFXx@'
p21
tp22
Rp23
aa(lp24
g17
(g10
S'\x1dM%\xae+\xf3?\xbf'
p25
tp26
Rp27
ag17
(g10
S'5\x9a\xb0\xa1\xad @?'
p28
tp29
Rp30
aa(lp31
g17
(g10
S':\x02\x0c\xe3^:\xa7\xc0'
p32
tp33
Rp34
ag17
(g10
S',P\xd2\xa7\xf9]\xa7@'
p35
tp36
Rp37
aa(lp38
g17
(g10
S'p\x8fw\xaa\xd6S\xd3?'
p39
tp40
Rp41
ag17
(g10
S'.9\xcf\xa2\xd2P\xe7?'
p42
tp43
Rp44
aatp45
.