(cnumpy.core.multiarray
_reconstruct
p0
(cnumpy
ndarray
p1
(I0
tp2
S'b'
p3
tp4
Rp5
(I1
(I4
tp6
cnumpy
dtype
p7
(S'f8'
p8
I0
I1
tp9
Rp10
(I3
S'<'
p11
NNNI-1
I-1
I0
tp12
bI00
S'\xb31\x93!/Tg@\x1d\x0cN\xb6r\xb37?\x00i\x9fpe\xa8\xc9>\xc7\x08I\x13m\x95\xe0?'
p13
tp14
b(lp15
(lp16
cnumpy.core.multiarray
scalar
p17
(g10
S'z\'\xef\x19"\xfad@'
p18
tp19
Rp20
ag17
(g10
S'\xec;7)<\xaei@'
p21
tp22
Rp23
aa(lp24
g17
(g10
S',\xd7b\xb4\x85~2?'
p25
tp26
Rp27
ag17
(g10
S'\x0eA9\xb8_\xe8<?'
p28
tp29
Rp30
aa(lp31
g17
(g10
S',/ly\xb3\xcaf\xbf'
p32
tp33
Rp34
ag17
(g10
S'\xe0~$\xac\x87\xd7f?'
p35
tp36
Rp37
aa(lp38
g17
(g10
S'\xfbk\x06/d\x91\xe0?'
p39
tp40
Rp41
ag17
(g10
S'\x93\xa5\x8b\xf7u\x99\xe0?'
p42
tp43
Rp44
aatp45
.