(cnumpy.core.multiarray
_reconstruct
p0
(cnumpy
ndarray
p1
(I0
tp2
S'b'
p3
tp4
Rp5
(I1
(I4
tp6
cnumpy
dtype
p7
(S'f8'
p8
I0
I1
tp9
Rp10
(I3
S'<'
p11
NNNI-1
I-1
I0
tp12
bI00
S'\xd9Y\x17\x7fL^e@xn\x020eJh?P\x9f\xae8\xcdB\xd3?f_\x03\xafA\xde\xe0?'
p13
tp14
b(lp15
(lp16
cnumpy.core.multiarray
scalar
p17
(g10
S'_s$\xd2\xaa@c@'
p18
tp19
Rp20
ag17
(g10
S'S@\n,\xee{g@'
p21
tp22
Rp23
aa(lp24
g17
(g10
S"\xccW\x0c'\xfa?h?"
p25
tp26
Rp27
ag17
(g10
S'$\x85\xf88\xd0Th?'
p28
tp29
Rp30
aa(lp31
g17
(g10
S'Ni\xf8O\x08\xee\xc2\xbf'
p32
tp33
Rp34
ag17
(g10
S'\xa4\xb9\xacLO\xfe\xe7?'
p35
tp36
Rp37
aa(lp38
g17
(g10
S'\xee\x82\\b\x90\xdc\xe0?'
p39
tp40
Rp41
ag17
(g10
S'\xde;\xaa\xfb\xf2\xdf\xe0?'
p42
tp43
Rp44
aatp45
.