(cnumpy.core.multiarray
_reconstruct
p0
(cnumpy
ndarray
p1
(I0
tp2
S'b'
p3
tp4
Rp5
(I1
(I4
tp6
cnumpy
dtype
p7
(S'f8'
p8
I0
I1
tp9
Rp10
(I3
S'<'
p11
NNNI-1
I-1
I0
tp12
bI00
S'C\xa6J,\xd2p`@p\x19\xc6;\xc5\xf1x?\x1b\xb9=oJ\xb5\n@f~\xe0\x16 \xce\xe0?'
p13
tp14
b(lp15
(lp16
cnumpy.core.multiarray
scalar
p17
(g10
S'<\xedBG\xbd\xe8W@'
p18
tp19
Rp20
ag17
(g10
S'\xe8\xd5\xf3\xb4E\xedd@'
p21
tp22
Rp23
aa(lp24
g17
(g10
S'\xa0\xe9G1c\xcd4?'
p25
tp26
Rp27
ag17
(g10
S'#\xda;"ZK\x88?'
p28
tp29
Rp30
aa(lp31
g17
(g10
S'\x9cQv\xedJ\x8cT\xc0'
p32
tp33
Rp34
ag17
(g10
S'.-j\x94\x9f7V@'
p35
tp36
Rp37
aa(lp38
g17
(g10
S'"\xc5T\xcc\xcd\xc9\xe0?'
p39
tp40
Rp41
ag17
(g10
S'\xaa7lar\xd2\xe0?'
p42
tp43
Rp44
aatp45
.