(cnumpy.core.multiarray
_reconstruct
p0
(cnumpy
ndarray
p1
(I0
tp2
S'b'
p3
tp4
Rp5
(I1
(I4
tp6
cnumpy
dtype
p7
(S'f8'
p8
I0
I1
tp9
Rp10
(I3
S'<'
p11
NNNI-1
I-1
I0
tp12
bI00
S"t\xd2\x91>\xce\xc1f@\xb9'\x98@\x03jp?-^8p\xe7IL@M$%\x81\x04\xea\xe0?"
p13
tp14
b(lp15
(lp16
cnumpy.core.multiarray
scalar
p17
(g10
S'\\\x8a\xb8\xbe3\x8a]@'
p18
tp19
Rp20
ag17
(g10
S'\xba_\xc7\x9d\x82\xben@'
p21
tp22
Rp23
aa(lp24
g17
(g10
S'\xc4&1\x1eF\x03_\xbf'
p25
tp26
Rp27
ag17
(g10
S'\x92L^\x04lJ\x84?'
p28
tp29
Rp30
aa(lp31
g17
(g10
S'-^8p\xe7IL@'
p32
tp33
Rp34
ag17
(g10
S'-^8p\xe7IL@'
p35
tp36
Rp37
aa(lp38
g17
(g10
S'r\x01\x91P3\xe4\xe0?'
p39
tp40
Rp41
ag17
(g10
S'(G\xb9\xb1\xd5\xef\xe0?'
p42
tp43
Rp44
aatp45
.