(cnumpy.core.multiarray
_reconstruct
p0
(cnumpy
ndarray
p1
(I0
tp2
S'b'
p3
tp4
Rp5
(I1
(I4
tp6
cnumpy
dtype
p7
(S'f8'
p8
I0
I1
tp9
Rp10
(I3
S'<'
p11
NNNI-1
I-1
I0
tp12
bI00
S'\xa1\xc9\xd3:\xe5\xeb[@\xbc#\x17\xa3~\n\x81?\xa3^p\xeb\x03\xfe6@D=\xfa\xd1#\xc2\xe0?'
p13
tp14
b(lp15
(lp16
cnumpy.core.multiarray
scalar
p17
(g10
S'>\x04\xc5\xca~\x8dT@'
p18
tp19
Rp20
ag17
(g10
S'\x82Gq\xd5%\xa5a@'
p21
tp22
Rp23
aa(lp24
g17
(g10
S'` g\x9bgCZ?'
p25
tp26
Rp27
ag17
(g10
S'lc\xc1R\x90\xcc\x8e?'
p28
tp29
Rp30
aa(lp31
g17
(g10
S'\xa3^p\xeb\x03\xfe6@'
p32
tp33
Rp34
ag17
(g10
S'\xa3^p\xeb\x03\xfe6@'
p35
tp36
Rp37
aa(lp38
g17
(g10
S'M\nSif\xbe\xe0?'
p39
tp40
Rp41
ag17
(g10
S';p\xa1:\xe1\xc5\xe0?'
p42
tp43
Rp44
aatp45
.