(cnumpy.core.multiarray
_reconstruct
p0
(cnumpy
ndarray
p1
(I0
tp2
S'b'
p3
tp4
Rp5
(I1
(I4
tp6
cnumpy
dtype
p7
(S'f8'
p8
I0
I1
tp9
Rp10
(I3
S'<'
p11
NNNI-1
I-1
I0
tp12
bI00
S'\xcb\x9f\xd2<$\xe5j@G\xdf\x9d\x16\\\xf4)?t\xcaf\x06\xd8\xb2\xb4?<\xb0\xf2u\xc7\xd5\xe0?'
p13
tp14
b(lp15
(lp16
cnumpy.core.multiarray
scalar
p17
(g10
S'\xe16\x1d\xb0aAe@'
p18
tp19
Rp20
ag17
(g10
S'Z\x04\xc4dsDp@'
p21
tp22
Rp23
aa(lp24
g17
(g10
S'x\xa5\xe0\xfe/bG\xbf'
p25
tp26
Rp27
ag17
(g10
S'\x8e\xca\x17\x05/.R?'
p28
tp29
Rp30
aa(lp31
g17
(g10
S'6,T/W\xe5\x9a?'
p32
tp33
Rp34
ag17
(g10
S'\xedD| -V\xc1?'
p35
tp36
Rp37
aa(lp38
g17
(g10
S'\x107F\xf4z\xb3\xe0?'
p39
tp40
Rp41
ag17
(g10
S'h)\x9f\xf7\x13\xf8\xe0?'
p42
tp43
Rp44
aatp45
.