(cnumpy.core.multiarray
_reconstruct
p0
(cnumpy
ndarray
p1
(I0
tp2
S'b'
p3
tp4
Rp5
(I1
(I4
tp6
cnumpy
dtype
p7
(S'f8'
p8
I0
I1
tp9
Rp10
(I3
S'<'
p11
NNNI-1
I-1
I0
tp12
bI00
S'+K\xaf\xe5\x1b]]@so\xd3\xc6\xc4\x99\x83?b\xcfRl{6,@k\xa6\x96\xf9\xb1\xc7\xe0?'
p13
tp14
b(lp15
(lp16
cnumpy.core.multiarray
scalar
p17
(g10
S'\\\xce\xfb:\xe1)U@'
p18
tp19
Rp20
ag17
(g10
S'\xfdc1H+\xc8b@'
p21
tp22
Rp23
aa(lp24
g17
(g10
S'4\xc4\xd5N\x03\xd7]?'
p25
tp26
Rp27
ag17
(g10
S'0\x13\xe6\x91T\xbc\x91?'
p28
tp29
Rp30
aa(lp31
g17
(g10
S'b\xcfRl{6,@'
p32
tp33
Rp34
ag17
(g10
S'b\xcfRl{6,@'
p35
tp36
Rp37
aa(lp38
g17
(g10
S'\x84?\x8e\xb0`\xc4\xe0?'
p39
tp40
Rp41
ag17
(g10
S'R\r\x9fB\x03\xcb\xe0?'
p42
tp43
Rp44
aatp45
.