(cnumpy.core.multiarray
_reconstruct
p0
(cnumpy
ndarray
p1
(I0
tp2
S'b'
p3
tp4
Rp5
(I1
(I4
tp6
cnumpy
dtype
p7
(S'f8'
p8
I0
I1
tp9
Rp10
(I3
S'<'
p11
NNNI-1
I-1
I0
tp12
bI00
S"\xa7\xe4P\x13\x10JW@\xba\xd2\xbd\xbe\x8c%\x90?N:\xbb\x177\xd1?@5I\xb4W8'\xe1?"
p13
tp14
b(lp15
(lp16
cnumpy.core.multiarray
scalar
p17
(g10
S'SDT\xb56\tN@'
p18
tp19
Rp20
ag17
(g10
S'$\xa7\xf7\xcb\x84\x8f_@'
p21
tp22
Rp23
aa(lp24
g17
(g10
S'\x08\xa9\xc3@\xc0\xa2a?'
p25
tp26
Rp27
ag17
(g10
S'S0cu\xc1\x16\x9e?'
p28
tp29
Rp30
aa(lp31
g17
(g10
S'N:\xbb\x177\xd1?@'
p32
tp33
Rp34
ag17
(g10
S'N:\xbb\x177\xd1?@'
p35
tp36
Rp37
aa(lp38
g17
(g10
S'\xf0\xc4>\xf5\xe2#\xe1?'
p39
tp40
Rp41
ag17
(g10
S'z\xcd)\xba\x8d*\xe1?'
p42
tp43
Rp44
aatp45
.