(cnumpy.core.multiarray
_reconstruct
p0
(cnumpy
ndarray
p1
(I0
tp2
S'b'
p3
tp4
Rp5
(I1
(I4
tp6
cnumpy
dtype
p7
(S'f8'
p8
I0
I1
tp9
Rp10
(I3
S'<'
p11
NNNI-1
I-1
I0
tp12
bI00
S'\xa4\x1f\xcafRg]@\x92wB\xee\x9dr\x86?sf\x05\xac\xf9m2@\x943\x0e\xac\xb9/\xe1?'
p13
tp14
b(lp15
(lp16
cnumpy.core.multiarray
scalar
p17
(g10
S'\xd6L\x9f\xbb\xff\x97R@'
p18
tp19
Rp20
ag17
(g10
S'9y\xfa\x88R\x1bd@'
p21
tp22
Rp23
aa(lp24
g17
(g10
S'@9K0\xa9\xce#\xbf'
p25
tp26
Rp27
ag17
(g10
S'\x04\x0e\xa3@;\x9a\x96?'
p28
tp29
Rp30
aa(lp31
g17
(g10
S'sf\x05\xac\xf9m2@'
p32
tp33
Rp34
ag17
(g10
S'sf\x05\xac\xf9m2@'
p35
tp36
Rp37
aa(lp38
g17
(g10
S'?C5X\xf6+\xe1?'
p39
tp40
Rp41
ag17
(g10
S'\xe9#\xe7\xff|3\xe1?'
p42
tp43
Rp44
aatp45
.