(cnumpy.core.multiarray
_reconstruct
p0
(cnumpy
ndarray
p1
(I0
tp2
S'b'
p3
tp4
Rp5
(I1
(I4
tp6
cnumpy
dtype
p7
(S'f8'
p8
I0
I1
tp9
Rp10
(I3
S'<'
p11
NNNI-1
I-1
I0
tp12
bI00
S's\x82/;\xeeXb@\xe9\x05\x1d\xff-\x11s?n\xa4\xb6Pr\xa50@\x19"\xab\xdb\x9f\xa4\xe0?'
p13
tp14
b(lp15
(lp16
cnumpy.core.multiarray
scalar
p17
(g10
S'\xaf=H\xf6}\xf0Z@'
p18
tp19
Rp20
ag17
(g10
S'\x0e\xe6:{\x9d9g@'
p21
tp22
Rp23
aa(lp24
g17
(g10
S' \x0c[\x8emt(\xbf'
p25
tp26
Rp27
ag17
(g10
S'\x1arV\xb5\xffr\x83?'
p28
tp29
Rp30
aa(lp31
g17
(g10
S'n\xa4\xb6Pr\xa50@'
p32
tp33
Rp34
ag17
(g10
S'n\xa4\xb6Pr\xa50@'
p35
tp36
Rp37
aa(lp38
g17
(g10
S'\xfe\xbfw_\xc3\x9f\xe0?'
p39
tp40
Rp41
ag17
(g10
S'4\x84\xdeW|\xa9\xe0?'
p42
tp43
Rp44
aatp45
.