(cnumpy.core.multiarray
_reconstruct
p0
(cnumpy
ndarray
p1
(I0
tp2
S'b'
p3
tp4
Rp5
(I1
(I4
tp6
cnumpy
dtype
p7
(S'f8'
p8
I0
I1
tp9
Rp10
(I3
S'<'
p11
NNNI-1
I-1
I0
tp12
bI00
S'la83\xe2\xc2g@W\xady\xd3m\xc5 ?\xee<\x08\xc3\x85\x07\x11@hT w\x87\xbd\xe0?'
p13
tp14
b(lp15
(lp16
cnumpy.core.multiarray
scalar
p17
(g10
S"\xf8\xc1\r'\x95\x16^@"
p18
tp19
Rp20
ag17
(g10
S'\xee\xf0t\xe9<=p@'
p21
tp22
Rp23
aa(lp24
g17
(g10
S'S\x13H^\x8a\t]\xbf'
p25
tp26
Rp27
ag17
(g10
S'T?\x93\xe9r\x9d`?'
p28
tp29
Rp30
aa(lp31
g17
(g10
S'g\x90nSM\xddj\xc0'
p32
tp33
Rp34
ag17
(g10
S'5\x14\x9f\xaf\xc5\xedk@'
p35
tp36
Rp37
aa(lp38
g17
(g10
S'z\xf0K\x1c\x8d7\xe0?'
p39
tp40
Rp41
ag17
(g10
S'V\xb8\xf4\xd1\x81C\xe1?'
p42
tp43
Rp44
aatp45
.