(cnumpy.core.multiarray
_reconstruct
p0
(cnumpy
ndarray
p1
(I0
tp2
S'b'
p3
tp4
Rp5
(I1
(I4
tp6
cnumpy
dtype
p7
(S'f8'
p8
I0
I1
tp9
Rp10
(I3
S'<'
p11
NNNI-1
I-1
I0
tp12
bI00
S'\x0cD|n\xaf\x11i@Yj\x8c\xbf:\x84*?o\n}>iX\xe1?\xae\xde\tR"\x07\xe1?'
p13
tp14
b(lp15
(lp16
cnumpy.core.multiarray
scalar
p17
(g10
S'\xd2P\xcf.\xbb\x80c@'
p18
tp19
Rp20
ag17
(g10
S'F7)\xae\xa3\xa2n@'
p21
tp22
Rp23
aa(lp24
g17
(g10
S'\xc0\xfeB\x0cv;*?'
p25
tp26
Rp27
ag17
(g10
S'\xf2\xd5\xd5r\xff\xcc*?'
p28
tp29
Rp30
aa(lp31
g17
(g10
S'\x96\xb4\xbbn"=\x02\xc0'
p32
tp33
Rp34
ag17
(g10
S'\xce9\xfa\rW\xe9\n@'
p35
tp36
Rp37
aa(lp38
g17
(g10
S'\xf9\x94\xb7(!\xff\xe0?'
p39
tp40
Rp41
ag17
(g10
S'c(\\{#\x0f\xe1?'
p42
tp43
Rp44
aatp45
.