(cnumpy.core.multiarray
_reconstruct
p0
(cnumpy
ndarray
p1
(I0
tp2
S'b'
p3
tp4
Rp5
(I1
(I4
tp6
cnumpy
dtype
p7
(S'f8'
p8
I0
I1
tp9
Rp10
(I3
S'<'
p11
NNNI-1
I-1
I0
tp12
bI00
S'Bs\x06^t\ti@\xed?\xb2\x8d\xd8\x90G?~\xb1\r\xfcA\\\xe4?_B\x98\xf5\xc8\xd4\xe0?'
p13
tp14
b(lp15
(lp16
cnumpy.core.multiarray
scalar
p17
(g10
S'{=O=n`e@'
p18
tp19
Rp20
ag17
(g10
S'\t\xa9\xbd~z\xb2l@'
p21
tp22
Rp23
aa(lp24
g17
(g10
S'\x95\x13\xc3\xd3\x7f,1?'
p25
tp26
Rp27
ag17
(g10
S'\x08{\xc1\x98\xb8ES?'
p28
tp29
Rp30
aa(lp31
g17
(g10
S'\x1c4U\x8a\xa35\xf5\xbf'
p32
tp33
Rp34
ag17
(g10
S'\xcdr1\xc3\xf2\xc8\x04@'
p35
tp36
Rp37
aa(lp38
g17
(g10
S'\xc8y\x93l)\xcf\xe0?'
p39
tp40
Rp41
ag17
(g10
S'\xf6\n\x9d~h\xda\xe0?'
p42
tp43
Rp44
aatp45
.