(cnumpy.core.multiarray
_reconstruct
p0
(cnumpy
ndarray
p1
(I0
tp2
S'b'
p3
tp4
Rp5
(I1
(I4
tp6
cnumpy
dtype
p7
(S'f8'
p8
I0
I1
tp9
Rp10
(I3
S'<'
p11
NNNI-1
I-1
I0
tp12
bI00
S'9\xbc\xb3UnPg@[U\xa0C\xddmV?\x12@\xc7\n\x8a\xd3\x0b@<\xa8\xb8\xa7\xe0\x97\xe0?'
p13
tp14
b(lp15
(lp16
cnumpy.core.multiarray
scalar
p17
(g10
S'\x9d\xdbVt(+^@'
p18
tp19
Rp20
ag17
(g10
S'\xa4\n<qH\x8bo@'
p21
tp22
Rp23
aa(lp24
g17
(g10
S':\x16hm\xe2ig\xbf'
p25
tp26
Rp27
ag17
(g10
S'\xcb5\x84\xd8\xdf\xebv?'
p28
tp29
Rp30
aa(lp31
g17
(g10
S'L\x9b\x16\xb5;Yc\xc0'
p32
tp33
Rp34
ag17
(g10
S'L\xd5l\x05\xd87d@'
p35
tp36
Rp37
aa(lp38
g17
(g10
S'\x1fS\x000]\x84\xe0?'
p39
tp40
Rp41
ag17
(g10
S'Y\xfdp\x1fd\xab\xe0?'
p42
tp43
Rp44
aatp45
.