(cnumpy.core.multiarray
_reconstruct
p0
(cnumpy
ndarray
p1
(I0
tp2
S'b'
p3
tp4
Rp5
(I1
(I4
tp6
cnumpy
dtype
p7
(S'f8'
p8
I0
I1
tp9
Rp10
(I3
S'<'
p11
NNNI-1
I-1
I0
tp12
bI00
S'3\x1f\x00y\x1cOf@\xd0\x14-|\x1c\xfd\xf2>`\xbc\xc4aN\x89\xc5?\xf0e_\x84~\xc9\xe0?'
p13
tp14
b(lp15
(lp16
cnumpy.core.multiarray
scalar
p17
(g10
S'A\xf0\xd0G^\x1fW@'
p18
tp19
Rp20
ag17
(g10
S'#\xe3\x0b\xe7D\x87p@'
p21
tp22
Rp23
aa(lp24
g17
(g10
S'l\xf9h\x93Z\xe8R\xbf'
p25
tp26
Rp27
ag17
(g10
S'\x12bJwC\x80S?'
p28
tp29
Rp30
aa(lp31
g17
(g10
S'\xc8b\x89\t@\x8b\x9a\xbf'
p32
tp33
Rp34
ag17
(g10
S'\x8cR]b\x022\xd7?'
p35
tp36
Rp37
aa(lp38
g17
(g10
S'!\x0f/\xa7\xb3=\xdc?'
p39
tp40
Rp41
ag17
(g10
S"PD'5#t\xe3?"
p42
tp43
Rp44
aatp45
.