(cnumpy.core.multiarray
_reconstruct
p0
(cnumpy
ndarray
p1
(I0
tp2
S'b'
p3
tp4
Rp5
(I1
(I4
tp6
cnumpy
dtype
p7
(S'f8'
p8
I0
I1
tp9
Rp10
(I3
S'<'
p11
NNNI-1
I-1
I0
tp12
bI00
S'P\xd1\x1eM\xcc\x9bk@9\x0b5\x87m\xf2\x19?7F\xa3\xca\nc\xa9?tl;\x8d>+\xe1?'
p13
tp14
b(lp15
(lp16
cnumpy.core.multiarray
scalar
p17
(g10
S'm\xfd\x91MG\xced@'
p18
tp19
Rp20
ag17
(g10
S'\x9a\xd2U\xa6\xa84q@'
p21
tp22
Rp23
aa(lp24
g17
(g10
S'\xf0\xf3G\xe6~\xe6\x18?'
p25
tp26
Rp27
ag17
(g10
S'\x82""(\\\xfe\x1a?'
p28
tp29
Rp30
aa(lp31
g17
(g10
S'\xa0\x15\xc1\x93k\x1bm?'
p32
tp33
Rp34
ag17
(g10
S'\x8a=\x05n/z\xb8?'
p35
tp36
Rp37
aa(lp38
g17
(g10
S'\x93@\x10\xd0\xff!\xe1?'
p39
tp40
Rp41
ag17
(g10
S'U\x98fJ}4\xe1?'
p42
tp43
Rp44
aatp45
.