(cnumpy.core.multiarray
_reconstruct
p0
(cnumpy
ndarray
p1
(I0
tp2
S'b'
p3
tp4
Rp5
(I1
(I4
tp6
cnumpy
dtype
p7
(S'f8'
p8
I0
I1
tp9
Rp10
(I3
S'<'
p11
NNNI-1
I-1
I0
tp12
bI00
S'G\xee\xc0\xba\x92Dm@\x97f+\x08b\xf8\xec>U\nLu\xa7r\x1f@\x97n\xb6(M]\xe0?'
p13
tp14
b(lp15
(lp16
cnumpy.core.multiarray
scalar
p17
(g10
S'\xd6\xa7\x06RJmY@'
p18
tp19
Rp20
ag17
(g10
S'RD?&@\xe9v@'
p21
tp22
Rp23
aa(lp24
g17
(g10
S'n\x96\xca\xe3\x06\xe6U\xbf'
p25
tp26
Rp27
ag17
(g10
S'\x08D\xebk\xe8YV?'
p28
tp29
Rp30
aa(lp31
g17
(g10
S"\x855\xa1\xd0\xe0'\xa1\xc0"
p32
tp33
Rp34
ag17
(g10
S'\x8f\x81\x16xSG\xa1@'
p35
tp36
Rp37
aa(lp38
g17
(g10
S'\xc2\xadJ-8c\xda?'
p39
tp40
Rp41
ag17
(g10
S'M\x86\xc7:\xfe\x88\xe3?'
p42
tp43
Rp44
aatp45
.