(cnumpy.core.multiarray
_reconstruct
p0
(cnumpy
ndarray
p1
(I0
tp2
S'b'
p3
tp4
Rp5
(I1
(I4
tp6
cnumpy
dtype
p7
(S'f8'
p8
I0
I1
tp9
Rp10
(I3
S'<'
p11
NNNI-1
I-1
I0
tp12
bI00
S'\x0f\x06\x9e\xb6 \ni@\xd6\x01\xd6\x9d\x0e\xdf[?\x81\xd1u\x0c\xbd+\xe1?\n3\xd58\xc0=\xe1?'
p13
tp14
b(lp15
(lp16
cnumpy.core.multiarray
scalar
p17
(g10
S'Z\xd8\xc7\x99\xb1\xf9b@'
p18
tp19
Rp20
ag17
(g10
S'\xc43t\xd3\x8f\x1ao@'
p21
tp22
Rp23
aa(lp24
g17
(g10
S'R\x85J\xcd\xb2X[?'
p25
tp26
Rp27
ag17
(g10
S'Z~anje\\?'
p28
tp29
Rp30
aa(lp31
g17
(g10
S'l:I\xd3-\xc9\xdc?'
p32
tp33
Rp34
ag17
(g10
S'\xcc\x05G/\xe3\xf2\xe3?'
p35
tp36
Rp37
aa(lp38
g17
(g10
S'\nB\x9a\x14\x0f9\xe1?'
p39
tp40
Rp41
ag17
(g10
S'\n$\x10]qB\xe1?'
p42
tp43
Rp44
aatp45
.