(cnumpy.core.multiarray
_reconstruct
p0
(cnumpy
ndarray
p1
(I0
tp2
S'b'
p3
tp4
Rp5
(I1
(I4
tp6
cnumpy
dtype
p7
(S'f8'
p8
I0
I1
tp9
Rp10
(I3
S'<'
p11
NNNI-1
I-1
I0
tp12
bI00
S'\xfb1\xb8)\xcd6h@\xd9\xee\xd7\x142\xa6\xe1>\xe6\x0fX \xa5\xe2\x13@\xabC\xdc|\x05v\xe0?'
p13
tp14
b(lp15
(lp16
cnumpy.core.multiarray
scalar
p17
(g10
S'\xea^c3\x7fET@'
p18
tp19
Rp20
ag17
(g10
S'@Z\xdf\\m%s@'
p21
tp22
Rp23
aa(lp24
g17
(g10
S'\xb1D\x16|\xe6\x1cP\xbf'
p25
tp26
Rp27
ag17
(g10
S'm\xa4iD\x7fcP?'
p28
tp29
Rp30
aa(lp31
g17
(g10
S'\x1a\xfa"KGmt\xc0'
p32
tp33
Rp34
ag17
(g10
S'\x9a\xba%t\\\x0cu@'
p35
tp36
Rp37
aa(lp38
g17
(g10
S'+\xda\xf4\xf6Q\xa9\xd7?'
p39
tp40
Rp41
ag17
(g10
S'@\x1a>\xfea\x17\xe5?'
p42
tp43
Rp44
aatp45
.