(cnumpy.core.multiarray
_reconstruct
p0
(cnumpy
ndarray
p1
(I0
tp2
S'b'
p3
tp4
Rp5
(I1
(I4
tp6
cnumpy
dtype
p7
(S'f8'
p8
I0
I1
tp9
Rp10
(I3
S'<'
p11
NNNI-1
I-1
I0
tp12
bI00
S'g=t\x91\x1aGg@\xd09\x8a\n\x86\x82\n?BI\x82\xa1a3\x0e@q\xb1\xaa7Y@\xe1?'
p13
tp14
b(lp15
(lp16
cnumpy.core.multiarray
scalar
p17
(g10
S"\xc8\x1e\xe7h\xc2'c@"
p18
tp19
Rp20
ag17
(g10
S'\x06\\\x01\xbarfk@'
p21
tp22
Rp23
aa(lp24
g17
(g10
S'1\x88\x8c$\x83\x1d\x08?'
p25
tp26
Rp27
ag17
(g10
S'o\xeb\x87\xf0\x88\xe7\x0c?'
p28
tp29
Rp30
aa(lp31
g17
(g10
S"|'A\xd1\xdbjj\xc0"
p32
tp33
Rp34
ag17
(g10
S'\xc69M\xdev\\k@'
p35
tp36
Rp37
aa(lp38
g17
(g10
S'\xfd\x10k|\xeb6\xe1?'
p39
tp40
Rp41
ag17
(g10
S'\xe5Q\xea\xf2\xc6I\xe1?'
p42
tp43
Rp44
aatp45
.