(cnumpy.core.multiarray
_reconstruct
p0
(cnumpy
ndarray
p1
(I0
tp2
S'b'
p3
tp4
Rp5
(I1
(I4
tp6
cnumpy
dtype
p7
(S'f8'
p8
I0
I1
tp9
Rp10
(I3
S'<'
p11
NNNI-1
I-1
I0
tp12
bI00
S'\x92\xf4\xb5P\xc7Gh@\x11|\xbcR \xf7I?\xa05|{P%2@h\xce\xe6\x11\xea\xd4\xe0?'
p13
tp14
b(lp15
(lp16
cnumpy.core.multiarray
scalar
p17
(g10
S',\xb6Sq\t\x99`@'
p18
tp19
Rp20
ag17
(g10
S'\xf82\x180\x85\xf6o@'
p21
tp22
Rp23
aa(lp24
g17
(g10
S'\xf3\xee\xe7\xc9\xf8Ab\xbf'
p25
tp26
Rp27
ag17
(g10
S'\xfb,F\xf3\x88=o?'
p28
tp29
Rp30
aa(lp31
g17
(g10
S'\xa05|{P%2@'
p32
tp33
Rp34
ag17
(g10
S'\xa05|{P%2@'
p35
tp36
Rp37
aa(lp38
g17
(g10
S'\xf7S\xf1!\x06\xbb\xe0?'
p39
tp40
Rp41
ag17
(g10
S'\xd9H\xdc\x01\xce\xee\xe0?'
p42
tp43
Rp44
aatp45
.