(cnumpy.core.multiarray
_reconstruct
p0
(cnumpy
ndarray
p1
(I0
tp2
S'b'
p3
tp4
Rp5
(I1
(I4
tp6
cnumpy
dtype
p7
(S'f8'
p8
I0
I1
tp9
Rp10
(I3
S'<'
p11
NNNI-1
I-1
I0
tp12
bI00
S'c\x9d\x19\x90\xb5\x84g@|U\xcaQ\xf0\xcc5?\xad5\xf4\xbaI\xf01@US\xedN\x95\xde\xe0?'
p13
tp14
b(lp15
(lp16
cnumpy.core.multiarray
scalar
p17
(g10
S'98["{j[@'
p18
tp19
Rp20
ag17
(g10
S'U\xcf\x82\xc7\x16\xaap@'
p21
tp22
Rp23
aa(lp24
g17
(g10
S'\xe8zZ\x1c\xf9Ye\xbf'
p25
tp26
Rp27
ag17
(g10
S'F\x10\xcd05\xcdj?'
p28
tp29
Rp30
aa(lp31
g17
(g10
S'\xad5\xf4\xbaI\xf01@'
p32
tp33
Rp34
ag17
(g10
S'\xad5\xf4\xbaI\xf01@'
p35
tp36
Rp37
aa(lp38
g17
(g10
S'4\x08In\xaa\x96\xe0?'
p39
tp40
Rp41
ag17
(g10
S'v\x9e\x91/\x80&\xe1?'
p42
tp43
Rp44
aatp45
.