(cnumpy.core.multiarray
_reconstruct
p0
(cnumpy
ndarray
p1
(I0
tp2
S'b'
p3
tp4
Rp5
(I1
(I4
tp6
cnumpy
dtype
p7
(S'f8'
p8
I0
I1
tp9
Rp10
(I3
S'<'
p11
NNNI-1
I-1
I0
tp12
bI00
S'm\x99\xc9RT\x16i@\x8a\xd2JV\xb4hZ?[\xacw\xccP\xdd\xdf?,\xd9_/\xf6\x08\xe1?'
p13
tp14
b(lp15
(lp16
cnumpy.core.multiarray
scalar
p17
(g10
S'/h\xd7\x89\x88\\U@'
p18
tp19
Rp20
ag17
(g10
S'a\xbfS02\xbfs@'
p21
tp22
Rp23
aa(lp24
g17
(g10
S'\xe8\xc9\x9f\x01\x99\xbav\xbf'
p25
tp26
Rp27
ag17
(g10
S'\x96\x99b\x96y\xf7\x81?'
p28
tp29
Rp30
aa(lp31
g17
(g10
S'\\\x1eJ\x0c\xed/\x01\xc0'
p32
tp33
Rp34
ag17
(g10
S"r\th?A'\t@"
p35
tp36
Rp37
aa(lp38
g17
(g10
S'\xefw\\ \xcc\xf0\xe0?'
p39
tp40
Rp41
ag17
(g10
S'i:c> !\xe1?'
p42
tp43
Rp44
aatp45
.