(cnumpy.core.multiarray
_reconstruct
p0
(cnumpy
ndarray
p1
(I0
tp2
S'b'
p3
tp4
Rp5
(I1
(I4
tp6
cnumpy
dtype
p7
(S'f8'
p8
I0
I1
tp9
Rp10
(I3
S'<'
p11
NNNI-1
I-1
I0
tp12
bI00
S'\xe53\xf4eL(X@\xc5\xd4O\xb6\x12&\xa5?\xb2K"L)bA@yl\xc3\xe8dA\xe1?'
p13
tp14
b(lp15
(lp16
cnumpy.core.multiarray
scalar
p17
(g10
S'\x95+\xc8\x93\xeb\xc8A@'
p18
tp19
Rp20
ag17
(g10
S'\x00)\x02\x81\x11\xb6c@'
p21
tp22
Rp23
aa(lp24
g17
(g10
S'\xe8F\xc6\xb7\xa2@\x85\xbf'
p25
tp26
Rp27
ag17
(g10
S"\xa2\x9dH\r'\xce\xb7?"
p28
tp29
Rp30
aa(lp31
g17
(g10
S'\xb2K"L)bA@'
p32
tp33
Rp34
ag17
(g10
S'\xb2K"L)bA@'
p35
tp36
Rp37
aa(lp38
g17
(g10
S'\xb6X\xd6\xe0a>\xe1?'
p39
tp40
Rp41
ag17
(g10
S'<\x80\xb0\xf0gD\xe1?'
p42
tp43
Rp44
aatp45
.