(cnumpy.core.multiarray
_reconstruct
p0
(cnumpy
ndarray
p1
(I0
tp2
S'b'
p3
tp4
Rp5
(I1
(I4
tp6
cnumpy
dtype
p7
(S'f8'
p8
I0
I1
tp9
Rp10
(I3
S'<'
p11
NNNI-1
I-1
I0
tp12
bI00
S'\x1b\xf6\xf0\xcd\xa7\x89h@^\xc1o\xfe\xcbH\xd7>\xc9=|9%F1@\x99D\x95e\x01\xdc\xe0?'
p13
tp14
b(lp15
(lp16
cnumpy.core.multiarray
scalar
p17
(g10
S'\xb0\xf3|"\xc2\xa23@'
p18
tp19
Rp20
ag17
(g10
S'\xe0&\xc9\xab{Ow@'
p21
tp22
Rp23
aa(lp24
g17
(g10
S'$C\x9fg\x1b\x7fS\xbf'
p25
tp26
Rp27
ag17
(g10
S'\xa6"\x9c\xff\xac\xadS?'
p28
tp29
Rp30
aa(lp31
g17
(g10
S'\xc9=|9%F1@'
p32
tp33
Rp34
ag17
(g10
S'\xc9=|9%F1@'
p35
tp36
Rp37
aa(lp38
g17
(g10
S'\xa3\x8d\xc6\xed\xc4^\xd1?'
p39
tp40
Rp41
ag17
(g10
S'`BGT\xa0\x08\xe9?'
p42
tp43
Rp44
aatp45
.