(cnumpy.core.multiarray
_reconstruct
p0
(cnumpy
ndarray
p1
(I0
tp2
S'b'
p3
tp4
Rp5
(I1
(I4
tp6
cnumpy
dtype
p7
(S'f8'
p8
I0
I1
tp9
Rp10
(I3
S'<'
p11
NNNI-1
I-1
I0
tp12
bI00
S'\x05\x8a\\\xee\xaf\x10c@M\ruTr\xa1h?\xea\x0cr>\xb1=0@E\xc4\x08\xf0>\xfa\xe0?'
p13
tp14
b(lp15
(lp16
cnumpy.core.multiarray
scalar
p17
(g10
S'f\xd4dp\xdf\x85T@'
p18
tp19
Rp20
ag17
(g10
S'\xd7\xa9\x86$p\xdek@'
p21
tp22
Rp23
aa(lp24
g17
(g10
S't\xc5\x83/\xe8\x16s\xbf'
p25
tp26
Rp27
ag17
(g10
S'ai\xfcA-\xdc\x85?'
p28
tp29
Rp30
aa(lp31
g17
(g10
S'\xea\x0cr>\xb1=0@'
p32
tp33
Rp34
ag17
(g10
S'\xea\x0cr>\xb1=0@'
p35
tp36
Rp37
aa(lp38
g17
(g10
S'\xc1\xb3ns]\xeb\xe0?'
p39
tp40
Rp41
ag17
(g10
S'\xc9\xd4\xa2l \t\xe1?'
p42
tp43
Rp44
aatp45
.