(cnumpy.core.multiarray
_reconstruct
p0
(cnumpy
ndarray
p1
(I0
tp2
S'b'
p3
tp4
Rp5
(I1
(I4
tp6
cnumpy
dtype
p7
(S'f8'
p8
I0
I1
tp9
Rp10
(I3
S'<'
p11
NNNI-1
I-1
I0
tp12
bI00
S'3\n\xfb9URi@?R\xca\xdf5\xa2\xe6>7qgnX`0@\x0f\xd1\x1a\xfd\xa2Z\xe0?'
p13
tp14
b(lp15
(lp16
cnumpy.core.multiarray
scalar
p17
(g10
S'\xf6bZ\x1c\x0ceP@'
p18
tp19
Rp20
ag17
(g10
S'vq\xe42\x129u@'
p21
tp22
Rp23
aa(lp24
g17
(g10
S'rv_F\xda\xfbU\xbf'
p25
tp26
Rp27
ag17
(g10
S'\xba\x9f\xde\x1dcVV?'
p28
tp29
Rp30
aa(lp31
g17
(g10
S'7qgnX`0@'
p32
tp33
Rp34
ag17
(g10
S'7qgnX`0@'
p35
tp36
Rp37
aa(lp38
g17
(g10
S'\xd6\xb4\\\x00)C\xd7?'
p39
tp40
Rp41
ag17
(g10
S'\xb3G\x07z\xb1\x13\xe5?'
p42
tp43
Rp44
aatp45
.