(cnumpy.core.multiarray
_reconstruct
p0
(cnumpy
ndarray
p1
(I0
tp2
S'b'
p3
tp4
Rp5
(I1
(I4
tp6
cnumpy
dtype
p7
(S'f8'
p8
I0
I1
tp9
Rp10
(I3
S'<'
p11
NNNI-1
I-1
I0
tp12
bI00
S"+\x8b\xbf\xd0\x83zh@u38\x93\\\x8b'?4\xcdu\x91\xce\x0f\x07@[b\xb6:\xf2\xf1\xe0?"
p13
tp14
b(lp15
(lp16
cnumpy.core.multiarray
scalar
p17
(g10
S'\x11Y\xa6[\xc3Ld@'
p18
tp19
Rp20
ag17
(g10
S'E\xbd\xd8ED\xa8l@'
p21
tp22
Rp23
aa(lp24
g17
(g10
S'l~\x04\xc5a\xa4!?'
p25
tp26
Rp27
ag17
(g10
S'~\xe8kaWr-?'
p28
tp29
Rp30
aa(lp31
g17
(g10
S'S\x91\x93\xc1\xbc+l\xc0'
p32
tp33
Rp34
ag17
(g10
S'\xbd?\x1f6;\xe4l@'
p35
tp36
Rp37
aa(lp38
g17
(g10
S'\x9c\xc9(\x9fK\xeb\xe0?'
p39
tp40
Rp41
ag17
(g10
S'\x1a\xfbC\xd6\x98\xf8\xe0?'
p42
tp43
Rp44
aatp45
.