(cnumpy.core.multiarray
_reconstruct
p0
(cnumpy
ndarray
p1
(I0
tp2
S'b'
p3
tp4
Rp5
(I1
(I4
tp6
cnumpy
dtype
p7
(S'f8'
p8
I0
I1
tp9
Rp10
(I3
S'<'
p11
NNNI-1
I-1
I0
tp12
bI00
S'\xfd\xb7\x12|\x00\x9cj@\xb6r\x82\xee\xc29\xe9>S\x12bp\x1c\xa20@^E\x0ed\x15\x87\xe0?'
p13
tp14
b(lp15
(lp16
cnumpy.core.multiarray
scalar
p17
(g10
S'\xd6D^Z0\x95V@'
p18
tp19
Rp20
ag17
(g10
S'\xc8&{e\xb4\xf6t@'
p21
tp22
Rp23
aa(lp24
g17
(g10
S'JF\x15\xd1#)T\xbf'
p25
tp26
Rp27
ag17
(g10
S'\x14P\xcf\xdc\n\x8eT?'
p28
tp29
Rp30
aa(lp31
g17
(g10
S'S\x12bp\x1c\xa20@'
p32
tp33
Rp34
ag17
(g10
S'S\x12bp\x1c\xa20@'
p35
tp36
Rp37
aa(lp38
g17
(g10
S'I\xff\xce\x9b\x10\xbe\xd9?'
p39
tp40
Rp41
ag17
(g10
S'\x17\x0b5z"/\xe4?'
p42
tp43
Rp44
aatp45
.