(cnumpy.core.multiarray
_reconstruct
p0
(cnumpy
ndarray
p1
(I0
tp2
S'b'
p3
tp4
Rp5
(I1
(I4
tp6
cnumpy
dtype
p7
(S'f8'
p8
I0
I1
tp9
Rp10
(I3
S'<'
p11
NNNI-1
I-1
I0
tp12
bI00
S'\xea\x8d\x85\xb8\xf5\xdag@w\xa3\xffn\xcayQ?[\xc8*D}K2@mP\nkL\xb2\xe0?'
p13
tp14
b(lp15
(lp16
cnumpy.core.multiarray
scalar
p17
(g10
S'~=\x84fCr`@'
p18
tp19
Rp20
ag17
(g10
S'V\xde\x86\n\xa8Co@'
p21
tp22
Rp23
aa(lp24
g17
(g10
S'\xe8\xca\xa9}\xf4\xe5b\xbf'
p25
tp26
Rp27
ag17
(g10
S'/\xb7Tv\xdf/r?'
p28
tp29
Rp30
aa(lp31
g17
(g10
S'[\xc8*D}K2@'
p32
tp33
Rp34
ag17
(g10
S'[\xc8*D}K2@'
p35
tp36
Rp37
aa(lp38
g17
(g10
S'X7\xdf%\x9a\x9d\xe0?'
p39
tp40
Rp41
ag17
(g10
S'\x82i5\xb0\xfe\xc6\xe0?'
p42
tp43
Rp44
aatp45
.