(cnumpy.core.multiarray
_reconstruct
p0
(cnumpy
ndarray
p1
(I0
tp2
S'b'
p3
tp4
Rp5
(I1
(I4
tp6
cnumpy
dtype
p7
(S'f8'
p8
I0
I1
tp9
Rp10
(I3
S'<'
p11
NNNI-1
I-1
I0
tp12
bI00
S'\xbe\x02\xec<*\x9dh@1?f\xe0\n\xa2*?\xba\x1d-\x9edU\x02@$\xdf\xfc&1\x07\xe1?'
p13
tp14
b(lp15
(lp16
cnumpy.core.multiarray
scalar
p17
(g10
S"+)'z\xd1!d@"
p18
tp19
Rp20
ag17
(g10
S'Q\xdc\xb0\xff\x82\x18m@'
p21
tp22
Rp23
aa(lp24
g17
(g10
S'G\xb6\xaa\x90i\xa2)?'
p25
tp26
Rp27
ag17
(g10
S'\x1b\xc8!0\xac\xa1+?'
p28
tp29
Rp30
aa(lp31
g17
(g10
S'8\x15\xaf\x99^{H\xc0'
p32
tp33
Rp34
ag17
(g10
S'\xf0\xb8t-\x0b\xc6J@'
p35
tp36
Rp37
aa(lp38
g17
(g10
S'\xcaJ)\x93d\x00\xe1?'
p39
tp40
Rp41
ag17
(g10
S'~s\xd0\xba\xfd\r\xe1?'
p42
tp43
Rp44
aatp45
.