(cnumpy.core.multiarray
_reconstruct
p0
(cnumpy
ndarray
p1
(I0
tp2
S'b'
p3
tp4
Rp5
(I1
(I4
tp6
cnumpy
dtype
p7
(S'f8'
p8
I0
I1
tp9
Rp10
(I3
S'<'
p11
NNNI-1
I-1
I0
tp12
bI00
S'\x99\xcb\xf9gv\xffe@\x8e]z\x1a\xdd\xcbC?<(\xa0D\x1e_.@\xaf\xa6y\x98l\xa7\xe0?'
p13
tp14
b(lp15
(lp16
cnumpy.core.multiarray
scalar
p17
(g10
S'\xc8`\x18\xf5\x1a\xd9Z@'
p18
tp19
Rp20
ag17
(g10
S'\xcefgU_\x92n@'
p21
tp22
Rp23
aa(lp24
g17
(g10
S'zA\xc6\x92x\x9df\xbf'
p25
tp26
Rp27
ag17
(g10
S' \xb8\x01\x90\xb3Ap?'
p28
tp29
Rp30
aa(lp31
g17
(g10
S'\xb3%\x9eD\x1e_.@'
p32
tp33
Rp34
ag17
(g10
S'\xc5*\xa2D\x1e_.@'
p35
tp36
Rp37
aa(lp38
g17
(g10
S'8\x11\x990\xd3z\xe0?'
p39
tp40
Rp41
ag17
(g10
S'&<Z\x00\x06\xd4\xe0?'
p42
tp43
Rp44
aatp45
.