(cnumpy.core.multiarray
_reconstruct
p0
(cnumpy
ndarray
p1
(I0
tp2
S'b'
p3
tp4
Rp5
(I1
(I4
tp6
cnumpy
dtype
p7
(S'f8'
p8
I0
I1
tp9
Rp10
(I3
S'<'
p11
NNNI-1
I-1
I0
tp12
bI00
S'\x92\xc9n$\xbf\x10i@*lsG\x04!Z?!\xb4U\xc7\x84\xd3\xe1?\xa7OI8|\xb4\xe0?'
p13
tp14
b(lp15
(lp16
cnumpy.core.multiarray
scalar
p17
(g10
S'\xe0,4:&\x88c@'
p18
tp19
Rp20
ag17
(g10
S'Df\xa9\x0eX\x99n@'
p21
tp22
Rp23
aa(lp24
g17
(g10
S'\xf1:l\rR\xddY?'
p25
tp26
Rp27
ag17
(g10
S'c\x9dz\x81\xb6dZ?'
p28
tp29
Rp30
aa(lp31
g17
(g10
S'[T\xa1j\xf4d\x02\xc0'
p32
tp33
Rp34
ag17
(g10
S'k.L\xce\xb6N\x0b@'
p35
tp36
Rp37
aa(lp38
g17
(g10
S'~\xa508\x13\xb0\xe0?'
p39
tp40
Rp41
ag17
(g10
S'\xd0\xf9a8\xe5\xb8\xe0?'
p42
tp43
Rp44
aatp45
.