(cnumpy.core.multiarray
_reconstruct
p0
(cnumpy
ndarray
p1
(I0
tp2
S'b'
p3
tp4
Rp5
(I1
(I4
tp6
cnumpy
dtype
p7
(S'f8'
p8
I0
I1
tp9
Rp10
(I3
S'<'
p11
NNNI-1
I-1
I0
tp12
bI00
S'\x90\xe8\x08kT\xbbd@ T\xc5\xfcG\xb36?\x1a7\xb0\x18G\xc9\xfa?\x85&\xc0@y\xa6\xe0?'
p13
tp14
b(lp15
(lp16
cnumpy.core.multiarray
scalar
p17
(g10
S'k\xa6V\xe4\xe8"Z@'
p18
tp19
Rp20
ag17
(g10
S'\xea}\xe6c4el@'
p21
tp22
Rp23
aa(lp24
g17
(g10
S':A \x90\xde\xa4b\xbf'
p25
tp26
Rp27
ag17
(g10
S'B\x96Q\x8f\xb0Qh?'
p28
tp29
Rp30
aa(lp31
g17
(g10
S'\x8f\xf2Q9\x17\x077\xc0'
p32
tp33
Rp34
ag17
(g10
S's\xf9g\x1c@`:@'
p35
tp36
Rp37
aa(lp38
g17
(g10
S'j\xeffw\xfb_\xe0?'
p39
tp40
Rp41
ag17
(g10
S'\xa0]\x19\n\xf7\xec\xe0?'
p42
tp43
Rp44
aatp45
.