(cnumpy.core.multiarray
_reconstruct
p0
(cnumpy
ndarray
p1
(I0
tp2
S'b'
p3
tp4
Rp5
(I1
(I4
tp6
cnumpy
dtype
p7
(S'f8'
p8
I0
I1
tp9
Rp10
(I3
S'<'
p11
NNNI-1
I-1
I0
tp12
bI00
S'\xec\xb3O\xd3q\x9ef@P$\xb6\x9c\x11\xaag?".\xe1\x08B\x9c.@\xba7\xbav%\t\xe1?'
p13
tp14
b(lp15
(lp16
cnumpy.core.multiarray
scalar
p17
(g10
S'\x12ho|6@\\@'
p18
tp19
Rp20
ag17
(g10
S'\xcf\xb3gh\xc8\x1co@'
p21
tp22
Rp23
aa(lp24
g17
(g10
S'\x9c\xfc\xe3\xd1\xcf\x85k\xbf'
p25
tp26
Rp27
ag17
(g10
S'O\x11\xd4\xc2|\xb6\x82?'
p28
tp29
Rp30
aa(lp31
g17
(g10
S'".\xe1\x08B\x9c.@'
p32
tp33
Rp34
ag17
(g10
S'".\xe1\x08B\x9c.@'
p35
tp36
Rp37
aa(lp38
g17
(g10
S'%\x1a/,M\xfe\xe0?'
p39
tp40
Rp41
ag17
(g10
S'OUE\xc1\xfd\x13\xe1?'
p42
tp43
Rp44
aatp45
.