(cnumpy.core.multiarray
_reconstruct
p0
(cnumpy
ndarray
p1
(I0
tp2
S'b'
p3
tp4
Rp5
(I1
(I4
tp6
cnumpy
dtype
p7
(S'f8'
p8
I0
I1
tp9
Rp10
(I3
S'<'
p11
NNNI-1
I-1
I0
tp12
bI00
S'/B\x9b\xcf6\xc3a@\x00}\x1b\xad3\xd1\x83?DY\x12|j\xb2V@\xf8\x94U&\xab"\xe1?'
p13
tp14
b(lp15
(lp16
cnumpy.core.multiarray
scalar
p17
(g10
S'||%\x05I\xf9S@'
p18
tp19
Rp20
ag17
(g10
S' \xc6\xa3\x1c\xc9\x89i@'
p21
tp22
Rp23
aa(lp24
g17
(g10
S'T\xb6\xa6\xd2\xd9\xdfp\xbf'
p25
tp26
Rp27
ag17
(g10
S'\x95*\xc5!*\t\x98?'
p28
tp29
Rp30
aa(lp31
g17
(g10
S'DY\x12|j\xb2V@'
p32
tp33
Rp34
ag17
(g10
S'DY\x12|j\xb2V@'
p35
tp36
Rp37
aa(lp38
g17
(g10
S'6Z&\xfbL\x1d\xe1?'
p39
tp40
Rp41
ag17
(g10
S'\xba\xcf\x84Q\t(\xe1?'
p42
tp43
Rp44
aatp45
.