(cnumpy.core.multiarray
_reconstruct
p0
(cnumpy
ndarray
p1
(I0
tp2
S'b'
p3
tp4
Rp5
(I1
(I4
tp6
cnumpy
dtype
p7
(S'f8'
p8
I0
I1
tp9
Rp10
(I3
S'<'
p11
NNNI-1
I-1
I0
tp12
bI00
S'\x0e\xddX\xfd\x94\x06i@\xaa\xbem`[/A?\x9e+u\xb58\xcb\xe2?0\xc4\x0ei@\xf2\xe0?'
p13
tp14
b(lp15
(lp16
cnumpy.core.multiarray
scalar
p17
(g10
S'\xacb\x98M\x83~Z@'
p18
tp19
Rp20
ag17
(g10
S'c\xc4\xf2)\xf4fr@'
p21
tp22
Rp23
aa(lp24
g17
(g10
S'0\xafa\xac\xd8\xc1k\xbf'
p25
tp26
Rp27
ag17
(g10
S'BGL.\xc3,r?'
p28
tp29
Rp30
aa(lp31
g17
(g10
S'5v<1\x15\x7f\xe0?'
p32
tp33
Rp34
ag17
(g10
S'\x07\xe1\xad9\\\x17\xe5?'
p35
tp36
Rp37
aa(lp38
g17
(g10
S'\x13\xa6\x91\t;\xbd\xe0?'
p39
tp40
Rp41
ag17
(g10
S"M\xe2\x8b\xc8E'\xe1?"
p42
tp43
Rp44
aatp45
.