(cnumpy.core.multiarray
_reconstruct
p0
(cnumpy
ndarray
p1
(I0
tp2
S'b'
p3
tp4
Rp5
(I1
(I4
tp6
cnumpy
dtype
p7
(S'f8'
p8
I0
I1
tp9
Rp10
(I3
S'<'
p11
NNNI-1
I-1
I0
tp12
bI00
S'\xa12.%\xd4GU@&L\xa5\xce<\x12\xa9?S56jI\x152@!\xd3\r,\x0f\x01\xe1?'
p13
tp14
b(lp15
(lp16
cnumpy.core.multiarray
scalar
p17
(g10
S'\x82\xf9h\x1bz\x9dF@'
p18
tp19
Rp20
ag17
(g10
S'\x81\xe8\xa7<\xeb@_@'
p21
tp22
Rp23
aa(lp24
g17
(g10
S'\x00r;,V\xbar?'
p25
tp26
Rp27
ag17
(g10
S'\x06\x95\xe1k\x97\xe6\xb7?'
p28
tp29
Rp30
aa(lp31
g17
(g10
S'S56jI\x152@'
p32
tp33
Rp34
ag17
(g10
S'S56jI\x152@'
p35
tp36
Rp37
aa(lp38
g17
(g10
S'\xb2~[`\xbd\xfe\xe0?'
p39
tp40
Rp41
ag17
(g10
S"\x90'\xc0\xf7`\x03\xe1?"
p42
tp43
Rp44
aatp45
.