(cnumpy.core.multiarray
_reconstruct
p0
(cnumpy
ndarray
p1
(I0
tp2
S'b'
p3
tp4
Rp5
(I1
(I4
tp6
cnumpy
dtype
p7
(S'f8'
p8
I0
I1
tp9
Rp10
(I3
S'<'
p11
NNNI-1
I-1
I0
tp12
bI00
S'\xd3\xf6**\x85\xc3c@\xabv\xb1j\x86]}?\xaf\xc5\xb8{X\xb2\xb1?\xb3\x9d&\xdc\xf9,\xe1?'
p13
tp14
b(lp15
(lp16
cnumpy.core.multiarray
scalar
p17
(g10
S'\xfe\xfaZ^\x9e)Z@'
p18
tp19
Rp20
ag17
(g10
S"'p(%;rj@"
p21
tp22
Rp23
aa(lp24
g17
(g10
S'\x94,;H\x95&S\xbf'
p25
tp26
Rp27
ag17
(g10
S'>\xdc\xb8\x13Y\xc2\x8f?'
p28
tp29
Rp30
aa(lp31
g17
(g10
S'\x01m\xef\x11\x03\xea\xb6\xbf'
p32
tp33
Rp34
ag17
(g10
S"0|\xb0\x04Z'\xcd?"
p35
tp36
Rp37
aa(lp38
g17
(g10
S"D\xf1It\xfc'\xe1?"
p39
tp40
Rp41
ag17
(g10
S'"J\x03D\xf71\xe1?'
p42
tp43
Rp44
aatp45
.