(cnumpy.core.multiarray
_reconstruct
p0
(cnumpy
ndarray
p1
(I0
tp2
S'b'
p3
tp4
Rp5
(I1
(I4
tp6
cnumpy
dtype
p7
(S'f8'
p8
I0
I1
tp9
Rp10
(I3
S'<'
p11
NNNI-1
I-1
I0
tp12
bI00
S"\xf4<\xcb\xba\xf87c@\xa0P7'\xf7>x?\x89\x02\x85i\x05,\xf4?\xdb\x89uHsg\xe1?"
p13
tp14
b(lp15
(lp16
cnumpy.core.multiarray
scalar
p17
(g10
S'\x94:\xaa\n\x91-_@'
p18
tp19
Rp20
ag17
(g10
S'\x9e\\A\xf0(\xd9f@'
p21
tp22
Rp23
aa(lp24
g17
(g10
S'~>|ps\xb4t?'
p25
tp26
Rp27
ag17
(g10
S'\xc2b\xf2\xddz\xc9{?'
p28
tp29
Rp30
aa(lp31
g17
(g10
S'{\x85\xc3=|\x81*\xc0'
p32
tp33
Rp34
ag17
(g10
S'\x1d\xc6$\x98}\x8c/@'
p35
tp36
Rp37
aa(lp38
g17
(g10
S'i\x96\xc88sd\xe1?'
p39
tp40
Rp41
ag17
(g10
S'M}"Xsj\xe1?'
p42
tp43
Rp44
aatp45
.