(cnumpy.core.multiarray
_reconstruct
p0
(cnumpy
ndarray
p1
(I0
tp2
S'b'
p3
tp4
Rp5
(I1
(I4
tp6
cnumpy
dtype
p7
(S'f8'
p8
I0
I1
tp9
Rp10
(I3
S'<'
p11
NNNI-1
I-1
I0
tp12
bI00
S'C\xd1\x8d\x1b\x05\xbe]@\xdeT\x9c/\x0f\xd4\x91?,\xf7\xcbJ\x1df2@t\xd3^\xe0j\xbe\xe0?'
p13
tp14
b(lp15
(lp16
cnumpy.core.multiarray
scalar
p17
(g10
S'\xc8gE\x00\x82\x10T@'
p18
tp19
Rp20
ag17
(g10
S'_\x1dk\x1b\xc4\xb5c@'
p21
tp22
Rp23
aa(lp24
g17
(g10
S'@\x96\x8bWGGc?'
p25
tp26
Rp27
ag17
(g10
S'z\x9b#\xba\x9a\x9f\xa0?'
p28
tp29
Rp30
aa(lp31
g17
(g10
S',\xf7\xcbJ\x1df2@'
p32
tp33
Rp34
ag17
(g10
S',\xf7\xcbJ\x1df2@'
p35
tp36
Rp37
aa(lp38
g17
(g10
S'>v:ek\xbb\xe0?'
p39
tp40
Rp41
ag17
(g10
S'\xaa0\x83[j\xc1\xe0?'
p42
tp43
Rp44
aatp45
.