(cnumpy.core.multiarray
_reconstruct
p0
(cnumpy
ndarray
p1
(I0
tp2
S'b'
p3
tp4
Rp5
(I1
(I4
tp6
cnumpy
dtype
p7
(S'f8'
p8
I0
I1
tp9
Rp10
(I3
S'<'
p11
NNNI-1
I-1
I0
tp12
bI00
S'\xde{\xfc\xf1\xbf4V@<\xb0\xa6<\x93%\xa9?\x01@pp5`1@\xfaP9,\x87T\xe1?'
p13
tp14
b(lp15
(lp16
cnumpy.core.multiarray
scalar
p17
(g10
S'\xe6\x90\xf4\xcfLD=@'
p18
tp19
Rp20
ag17
(g10
S'\xc1\xe9\xfdW6\x8cb@'
p21
tp22
Rp23
aa(lp24
g17
(g10
S'\xb0f_T\x1a\xc8\x8d\xbf'
p25
tp26
Rp27
ag17
(g10
S'\x12\x9d2\x87\x96\xde\xbc?'
p28
tp29
Rp30
aa(lp31
g17
(g10
S'\x01@pp5`1@'
p32
tp33
Rp34
ag17
(g10
S'\x01@pp5`1@'
p35
tp36
Rp37
aa(lp38
g17
(g10
S'\x9c\x14\xf6\xf4lQ\xe1?'
p39
tp40
Rp41
ag17
(g10
S'X\x8d|c\xa1W\xe1?'
p42
tp43
Rp44
aatp45
.