(cnumpy.core.multiarray
_reconstruct
p0
(cnumpy
ndarray
p1
(I0
tp2
S'b'
p3
tp4
Rp5
(I1
(I4
tp6
cnumpy
dtype
p7
(S'f8'
p8
I0
I1
tp9
Rp10
(I3
S'<'
p11
NNNI-1
I-1
I0
tp12
bI00
S'\xdf1oQ\xdf\x9cc@\t\xbeR\x1a\xabz\x82?"\xa1\x8bfH?\x15@{\xc3A\x04\x98)\xe1?'
p13
tp14
b(lp15
(lp16
cnumpy.core.multiarray
scalar
p17
(g10
S'2\x83-\xe66sV@'
p18
tp19
Rp20
ag17
(g10
S'%\xa2\xc7/#\x00l@'
p21
tp22
Rp23
aa(lp24
g17
(g10
S'@\x99f\xa64\xdcp\xbf'
p25
tp26
Rp27
ag17
(g10
S'Yd\xecC\xb8\xb1\x96?'
p28
tp29
Rp30
aa(lp31
g17
(g10
S"'\xe3\t7p\xeb~\xc0"
p32
tp33
Rp34
ag17
(g10
S'1@>zj\x95\x7f@'
p35
tp36
Rp37
aa(lp38
g17
(g10
S'$S+v^$\xe1?'
p39
tp40
Rp41
ag17
(g10
S'\xd23X\x92\xd1.\xe1?'
p42
tp43
Rp44
aatp45
.