(cnumpy.core.multiarray
_reconstruct
p0
(cnumpy
ndarray
p1
(I0
tp2
S'b'
p3
tp4
Rp5
(I1
(I3
tp6
cnumpy
dtype
p7
(S'f8'
p8
I0
I1
tp9
Rp10
(I3
S'<'
p11
NNNI-1
I-1
I0
tp12
bI00
S'n\x1d\x12a\xee>S@:\x0c\x8aN\xc5qu?\x0e\xd8\x1cz=\x16\x80?'
p13
tp14
bg0
(g1
(I0
tp15
g3
tp16
Rp17
(I1
(I3
I2
tp18
g10
I00
S'x\xd4\xedF\x8f>R@df6{M?T@>\xadixP\x90t?6k\xaa$:Sv?X\xb0\x8ay\xcd\xff\x7f?\xf0Wt7\x94,\x80?'
p19
tp20
btp21
.