(cnumpy.core.multiarray
_reconstruct
p0
(cnumpy
ndarray
p1
(I0
tp2
S'b'
p3
tp4
Rp5
(I1
(I4
tp6
cnumpy
dtype
p7
(S'f8'
p8
I0
I1
tp9
Rp10
(I3
S'<'
p11
NNNI-1
I-1
I0
tp12
bI00
S'<F9\x19^nF@p\xe0\xe2=W@\x9a?\x8f\xb2v\xa5\x1e\xa3\x12@\x9aqJz\xc8h\xe0?'
p13
tp14
b(lp15
(lp16
cnumpy.core.multiarray
scalar
p17
(g10
S'\xdcrJ\xffgi@@'
p18
tp19
Rp20
ag17
(g10
S'\x9c\x19(3TsL@'
p21
tp22
Rp23
aa(lp24
g17
(g10
S'\xdb+\xb6\xa9\x9b\xa7\x8c?'
p25
tp26
Rp27
ag17
(g10
S'yUuSp\x16\xa3?'
p28
tp29
Rp30
aa(lp31
g17
(g10
S'\x19\x03t\xc5\n\xfbZ\xc0'
p32
tp33
Rp34
ag17
(g10
S'k\xd9"\x9anO]@'
p35
tp36
Rp37
aa(lp38
g17
(g10
S'\x1f\xb5\x1f\xacHg\xe0?'
p39
tp40
Rp41
ag17
(g10
S'\x15.uHHj\xe0?'
p42
tp43
Rp44
aatp45
.