(cnumpy.core.multiarray
_reconstruct
p0
(cnumpy
ndarray
p1
(I0
tp2
S'b'
p3
tp4
Rp5
(I1
(I4
tp6
cnumpy
dtype
p7
(S'f8'
p8
I0
I1
tp9
Rp10
(I3
S'<'
p11
NNNI-1
I-1
I0
tp12
bI00
S'\t\xf0\xa6(\xd0\xb8H@bW\xb8\x0b\x1c:\x9a?\x809\x99\xde\xa7J2@\xb62\t\t\x80A\xe0?'
p13
tp14
b(lp15
(lp16
cnumpy.core.multiarray
scalar
p17
(g10
S'\x07\x97o\xab\x86!=@'
p18
tp19
Rp20
ag17
(g10
S'G\n\xcb}npQ@'
p21
tp22
Rp23
aa(lp24
g17
(g10
S'\xc0\x01\xc1;^\xe7\x7f?'
p25
tp26
Rp27
ag17
(g10
S'*7@D0=\xa6?'
p28
tp29
Rp30
aa(lp31
g17
(g10
S'\x809\x99\xde\xa7J2@'
p32
tp33
Rp34
ag17
(g10
S'\x809\x99\xde\xa7J2@'
p35
tp36
Rp37
aa(lp38
g17
(g10
S'_<\x84\xc6c?\xe0?'
p39
tp40
Rp41
ag17
(g10
S'\r)\x8eK\x9cC\xe0?'
p42
tp43
Rp44
aatp45
.