(cnumpy.core.multiarray
_reconstruct
p0
(cnumpy
ndarray
p1
(I0
tp2
S'b'
p3
tp4
Rp5
(I1
(I4
tp6
cnumpy
dtype
p7
(S'f8'
p8
I0
I1
tp9
Rp10
(I3
S'<'
p11
NNNI-1
I-1
I0
tp12
bI00
S'\x98\xdc\xbeE\x87\xa9c@{\x83\xcek0q(?-<\tb.Su?>\x08\x1d[\xbf\xce\xe0?'
p13
tp14
b(lp15
(lp16
cnumpy.core.multiarray
scalar
p17
(g10
S'\x1dV\x88H4\x82b@'
p18
tp19
Rp20
ag17
(g10
S'\x13c\xf5B\xda\xd0d@'
p21
tp22
Rp23
aa(lp24
g17
(g10
S'\xafg\xb2\xc6\xa5"(?'
p25
tp26
Rp27
ag17
(g10
S'G\x9f\xea\x10\xbb\xbf(?'
p28
tp29
Rp30
aa(lp31
g17
(g10
S's\te\xad\xfc\x02i?'
p32
tp33
Rp34
ag17
(g10
S'\xa0\xf3_m\xde$~?'
p35
tp36
Rp37
aa(lp38
g17
(g10
S'z\x901\x84`\xcc\xe0?'
p39
tp40
Rp41
ag17
(g10
S'\x02\x80\x082\x1e\xd1\xe0?'
p42
tp43
Rp44
aatp45
.