(cnumpy.core.multiarray
_reconstruct
p0
(cnumpy
ndarray
p1
(I0
tp2
S'b'
p3
tp4
Rp5
(I1
(I4
tp6
cnumpy
dtype
p7
(S'f8'
p8
I0
I1
tp9
Rp10
(I3
S'<'
p11
NNNI-1
I-1
I0
tp12
bI00
S'\xc1\xd4VEEWa@\xf6\xec\xab\xba\x1b\x9e\x90?NL\xef\\XC)@Q2XNH\xeb\xe0?'
p13
tp14
b(lp15
(lp16
cnumpy.core.multiarray
scalar
p17
(g10
S'\xee\xf35\xc5&\x81Z@'
p18
tp19
Rp20
ag17
(g10
S'\x8b\xaf\x12(\xf7me@'
p21
tp22
Rp23
aa(lp24
g17
(g10
S',z\xdd"\x11]|?'
p25
tp26
Rp27
ag17
(g10
S'a{\xa0,\xf3$\x9a?'
p28
tp29
Rp30
aa(lp31
g17
(g10
S'NL\xef\\XC)@'
p32
tp33
Rp34
ag17
(g10
S'NL\xef\\XC)@'
p35
tp36
Rp37
aa(lp38
g17
(g10
S'\x1eY7.\xa6\xe9\xe0?'
p39
tp40
Rp41
ag17
(g10
S'\x84\x0byn\xea\xec\xe0?'
p42
tp43
Rp44
aatp45
.