(cnumpy.core.multiarray
_reconstruct
p0
(cnumpy
ndarray
p1
(I0
tp2
S'b'
p3
tp4
Rp5
(I1
(I4
tp6
cnumpy
dtype
p7
(S'f8'
p8
I0
I1
tp9
Rp10
(I3
S'<'
p11
NNNI-1
I-1
I0
tp12
bI00
S'\xbaC\xf7\x94.Xg@\xde\xdcA\xd1,oz?\x809\xb4\xf0\xef\x14\xa6:\n\xc0\xc9j\x0e\xe9\xe0?'
p13
tp14
b(lp15
(lp16
cnumpy.core.multiarray
scalar
p17
(g10
S"2'\xcce\x8dZb@"
p18
tp19
Rp20
ag17
(g10
S'B`"\xc4\xcfUl@'
p21
tp22
Rp23
aa(lp24
g17
(g10
S'\x98q\xd5{\x11\x00_?'
p25
tp26
Rp27
ag17
(g10
S'\xab.\xc7\xa1*\x8f\x86?'
p28
tp29
Rp30
aa(lp31
g17
(g10
S'^`<pDX\xa7\xbf'
p32
tp33
Rp34
ag17
(g10
S'^`<pDX\xa7?'
p35
tp36
Rp37
aa(lp38
g17
(g10
S'(j0\x7f\xc8\xe6\xe0?'
p39
tp40
Rp41
ag17
(g10
S'\xec\x15cVT\xeb\xe0?'
p42
tp43
Rp44
aatp45
.