(cnumpy.core.multiarray
_reconstruct
p0
(cnumpy
ndarray
p1
(I0
tp2
S'b'
p3
tp4
Rp5
(I1
(I4
tp6
cnumpy
dtype
p7
(S'f8'
p8
I0
I1
tp9
Rp10
(I3
S'<'
p11
NNNI-1
I-1
I0
tp12
bI00
S"\xa4\xa7\xd7'/Xj@\x8de>%v3>?\xd1\xb4+\x12y\xb5:@\xc1=\xbb\xde\xf6\xd0\xe0?"
p13
tp14
b(lp15
(lp16
cnumpy.core.multiarray
scalar
p17
(g10
S'V\xa1am\x15\x92e@'
p18
tp19
Rp20
ag17
(g10
S'\xf2\xadM\xe2H\x1eo@'
p21
tp22
Rp23
aa(lp24
g17
(g10
S'=\x02\xe3\xed\xf5\xfd>\xbf'
p25
tp26
Rp27
ag17
(g10
S'V\xf3\x17\x8e8\xd9V?'
p28
tp29
Rp30
aa(lp31
g17
(g10
S'{\x02+\x12y\xb5:@'
p32
tp33
Rp34
ag17
(g10
S"'g,\x12y\xb5:@"
p35
tp36
Rp37
aa(lp38
g17
(g10
S'\xee+\x1cM\x8b\xc4\xe0?'
p39
tp40
Rp41
ag17
(g10
S'\x94OZpb\xdd\xe0?'
p42
tp43
Rp44
aatp45
.