(cnumpy.core.multiarray
_reconstruct
p0
(cnumpy
ndarray
p1
(I0
tp2
S'b'
p3
tp4
Rp5
(I1
(I4
tp6
cnumpy
dtype
p7
(S'f8'
p8
I0
I1
tp9
Rp10
(I3
S'<'
p11
NNNI-1
I-1
I0
tp12
bI00
S')V\xa3\x9eODe@g=\x94\x861=\x85?}H[\xe2X&D@\x18A\xe16\xe7\xe6\xe0?'
p13
tp14
b(lp15
(lp16
cnumpy.core.multiarray
scalar
p17
(g10
S'\xbc\xc7\xa0\x0ek\xa3^@'
p18
tp19
Rp20
ag17
(g10
S'tH\xf6\xb5\xe96k@'
p21
tp22
Rp23
aa(lp24
g17
(g10
S'\xac\x9d)\xe9U\xb1b?'
p25
tp26
Rp27
ag17
(g10
S'\xb2\to\xc9\x06\xe7\x92?'
p28
tp29
Rp30
aa(lp31
g17
(g10
S'}H[\xe2X&D@'
p32
tp33
Rp34
ag17
(g10
S'}H[\xe2X&D@'
p35
tp36
Rp37
aa(lp38
g17
(g10
S'\xc7\xe4\n\xf3\xb1\xe4\xe0?'
p39
tp40
Rp41
ag17
(g10
S'i\x9d\xb7z\x1c\xe9\xe0?'
p42
tp43
Rp44
aatp45
.