(cnumpy.core.multiarray
_reconstruct
p0
(cnumpy
ndarray
p1
(I0
tp2
S'b'
p3
tp4
Rp5
(I1
(I4
tp6
cnumpy
dtype
p7
(S'f8'
p8
I0
I1
tp9
Rp10
(I3
S'<'
p11
NNNI-1
I-1
I0
tp12
bI00
S'_\xe8\xbd\x19\xcdMe@\xce`\x86\x8b\xbb\xa1\x17?Bm\x9a\x1a\x8an)@\xc5\x14\xd5\xc6\xb7\xe2\xe0?'
p13
tp14
b(lp15
(lp16
cnumpy.core.multiarray
scalar
p17
(g10
S"\x15\xc7'\xe4^tc@"
p18
tp19
Rp20
ag17
(g10
S"\xa9\tTO;'g@"
p21
tp22
Rp23
aa(lp24
g17
(g10
S'\x18KY)\xaf\xb4\xf0\xbe'
p25
tp26
Rp27
ag17
(g10
S'1\x8a\xb1pQ\xb8)?'
p28
tp29
Rp30
aa(lp31
g17
(g10
S'Bm\x9a\x1a\x8an)@'
p32
tp33
Rp34
ag17
(g10
S'Bm\x9a\x1a\x8an)@'
p35
tp36
Rp37
aa(lp38
g17
(g10
S'K_F6-\xd7\xe0?'
p39
tp40
Rp41
ag17
(g10
S'?\xcacWB\xee\xe0?'
p42
tp43
Rp44
aatp45
.