(cnumpy.core.multiarray
_reconstruct
p0
(cnumpy
ndarray
p1
(I0
tp2
S'b'
p3
tp4
Rp5
(I1
(I4
tp6
cnumpy
dtype
p7
(S'f8'
p8
I0
I1
tp9
Rp10
(I3
S'<'
p11
NNNI-1
I-1
I0
tp12
bI00
S'\x82\x13\\\x9fJ\x88k@i\x1c!\x93\x0ck}?\x03n\x8c8\xc1%+@\xce\xdfA\xf6\xdc\x9b\xe0?'
p13
tp14
b(lp15
(lp16
cnumpy.core.multiarray
scalar
p17
(g10
S'v\x18m\xcbFdc@'
p18
tp19
Rp20
ag17
(g10
S"G\x87\xa59'\xd6q@"
p21
tp22
Rp23
aa(lp24
g17
(g10
S' o\x17\xecB0@?'
p25
tp26
Rp27
ag17
(g10
S'w\xa5_d\x08h\x8c?'
p28
tp29
Rp30
aa(lp31
g17
(g10
S'\x03n\x8c8\xc1%+@'
p32
tp33
Rp34
ag17
(g10
S'\x03n\x8c8\xc1%+@'
p35
tp36
Rp37
aa(lp38
g17
(g10
S'\x95\x00\xf3?t\x99\xe0?'
p39
tp40
Rp41
ag17
(g10
S'\x07\xbf\x90\xacE\x9e\xe0?'
p42
tp43
Rp44
aatp45
.