(cnumpy.core.multiarray
_reconstruct
p0
(cnumpy
ndarray
p1
(I0
tp2
S'b'
p3
tp4
Rp5
(I1
(I4
tp6
cnumpy
dtype
p7
(S'f8'
p8
I0
I1
tp9
Rp10
(I3
S'<'
p11
NNNI-1
I-1
I0
tp12
bI00
S'\xc56\x9f{\xc8\x0e`@\xb7_aCS\x8eo?\x92\xb7W\xd4Q\xd8,@o\x83@\xcc\x92\xf9\xe0?'
p13
tp14
b(lp15
(lp16
cnumpy.core.multiarray
scalar
p17
(g10
S'\xf8)v\xc6{\x8cZ@'
p18
tp19
Rp20
ag17
(g10
S'\x8eX\x03\x14S\xd7b@'
p21
tp22
Rp23
aa(lp24
g17
(g10
S'"\xbd\xd7h7\xdaS?'
p25
tp26
Rp27
ag17
(g10
S'np+i\xc5\x97z?'
p28
tp29
Rp30
aa(lp31
g17
(g10
S'\\4W\xd4Q\xd8,@'
p32
tp33
Rp34
ag17
(g10
S'\xc8:X\xd4Q\xd8,@'
p35
tp36
Rp37
aa(lp38
g17
(g10
S'2\xa4\xf7\xdf\xd4\xf5\xe0?'
p39
tp40
Rp41
ag17
(g10
S'\xacb\x89\xb8P\xfd\xe0?'
p42
tp43
Rp44
aatp45
.