(cnumpy.core.multiarray
_reconstruct
p0
(cnumpy
ndarray
p1
(I0
tp2
S'b'
p3
tp4
Rp5
(I1
(I4
tp6
cnumpy
dtype
p7
(S'f8'
p8
I0
I1
tp9
Rp10
(I3
S'<'
p11
NNNI-1
I-1
I0
tp12
bI00
S'\xf0 \x9f\x08\xdf\xf4T@q\x88q<\xb3\x19\xab?\xd4\xdbL9m\xeb7@yT\x04#*2\xe1?'
p13
tp14
b(lp15
(lp16
cnumpy.core.multiarray
scalar
p17
(g10
S'\xca\xaf\xb3Q%\xfaB@'
p18
tp19
Rp20
ag17
(g10
S'\xfe42\xb4U6`@'
p21
tp22
Rp23
aa(lp24
g17
(g10
S'@\x1c$\xbb;\xecc?'
p25
tp26
Rp27
ag17
(g10
S'\x8fg\x98^Qz\xba?'
p28
tp29
Rp30
aa(lp31
g17
(g10
S'\xd4\xdbL9m\xeb7@'
p32
tp33
Rp34
ag17
(g10
S'\xd4\xdbL9m\xeb7@'
p35
tp36
Rp37
aa(lp38
g17
(g10
S'K\xc8\xe6\xd3\xd4/\xe1?'
p39
tp40
Rp41
ag17
(g10
S'\xa7\xe0!r\x7f4\xe1?'
p42
tp43
Rp44
aatp45
.