(cnumpy.core.multiarray
_reconstruct
p0
(cnumpy
ndarray
p1
(I0
tp2
S'b'
p3
tp4
Rp5
(I1
(I4
tp6
cnumpy
dtype
p7
(S'f8'
p8
I0
I1
tp9
Rp10
(I3
S'<'
p11
NNNI-1
I-1
I0
tp12
bI00
S'\x0b\x1c\x19\xa3H\xbf3@\xd3h\xcb\xa3\xbc\xa6\xdb?NpH:\x19;)@\xad\x80\xd0Da8\xe1?'
p13
tp14
b(lp15
(lp16
cnumpy.core.multiarray
scalar
p17
(g10
S'\x04\xb6\x8a\xd3m[\x19\xc0'
p18
tp19
Rp20
ag17
(g10
S'\xccr\x8a]\xb6\xeaF@'
p21
tp22
Rp23
aa(lp24
g17
(g10
S'\xb0\x0eCF\xaa;\xa8\xbf'
p25
tp26
Rp27
ag17
(g10
S'\xbe\x99/Hw*\xed?'
p28
tp29
Rp30
aa(lp31
g17
(g10
S'NpH:\x19;)@'
p32
tp33
Rp34
ag17
(g10
S'NpH:\x19;)@'
p35
tp36
Rp37
aa(lp38
g17
(g10
S'B\xddu\xe5\xe26\xe1?'
p39
tp40
Rp41
ag17
(g10
S'\x18$+\xa4\xdf9\xe1?'
p42
tp43
Rp44
aatp45
.