(cnumpy.core.multiarray
_reconstruct
p0
(cnumpy
ndarray
p1
(I0
tp2
S'b'
p3
tp4
Rp5
(I1
(I4
tp6
cnumpy
dtype
p7
(S'f8'
p8
I0
I1
tp9
Rp10
(I3
S'<'
p11
NNNI-1
I-1
I0
tp12
bI00
S'\xd2\x8c\x0b\x1cL\xa4h@bI\t\xd4V*\r?V\x8a!\xdaCd\xb1?\xa3(\x8e\x1b\xb9\xe1\xe0?'
p13
tp14
b(lp15
(lp16
cnumpy.core.multiarray
scalar
p17
(g10
S'xZ9\xd5\xc7\xf8e@'
p18
tp19
Rp20
ag17
(g10
S',\xbf\xddb\xd0Ok@'
p21
tp22
Rp23
aa(lp24
g17
(g10
S'D\x1c\xc1adu$\xbf'
p25
tp26
Rp27
ag17
(g10
S'z\xe0\xe2\xe5G\x851?'
p28
tp29
Rp30
aa(lp31
g17
(g10
S'3\x0e\xe1\x9f`\x1e\xa7?'
p32
tp33
Rp34
ag17
(g10
S'\x92\x8dRdW9\xb7?'
p35
tp36
Rp37
aa(lp38
g17
(g10
S'\xd8!"*\xf8\xbf\xe0?'
p39
tp40
Rp41
ag17
(g10
S'n/\xfa\x0cz\x03\xe1?'
p42
tp43
Rp44
aatp45
.