(cnumpy.core.multiarray
_reconstruct
p0
(cnumpy
ndarray
p1
(I0
tp2
S'b'
p3
tp4
Rp5
(I1
(I4
tp6
cnumpy
dtype
p7
(S'f8'
p8
I0
I1
tp9
Rp10
(I3
S'<'
p11
NNNI-1
I-1
I0
tp12
bI00
S' )\x99\x80\xd2\x07b@\xde[\x1aaBDr?\xcc(q2o)Y@\xbe\x1f\x98\xf0\xb7\x10\xe1?'
p13
tp14
b(lp15
(lp16
cnumpy.core.multiarray
scalar
p17
(g10
S'l\x16\xccJZ\t\\@'
p18
tp19
Rp20
ag17
(g10
S'\nG\xcc\xdb\xf7\nf@'
p21
tp22
Rp23
aa(lp24
g17
(g10
S'\x98\x8c\t\x15\xa4\x92H?'
p25
tp26
Rp27
ag17
(g10
S'\x14\xc3\xc9\x1f\x18\xbb\x80?'
p28
tp29
Rp30
aa(lp31
g17
(g10
S'\xcc(q2o)Y@'
p32
tp33
Rp34
ag17
(g10
S'\xcc(q2o)Y@'
p35
tp36
Rp37
aa(lp38
g17
(g10
S'S\xed\x99J\xe7\x0c\xe1?'
p39
tp40
Rp41
ag17
(g10
S')R\x96\x96\x88\x14\xe1?'
p42
tp43
Rp44
aatp45
.