(cnumpy.core.multiarray
_reconstruct
p0
(cnumpy
ndarray
p1
(I0
tp2
S'b'
p3
tp4
Rp5
(I1
(I4
tp6
cnumpy
dtype
p7
(S'f8'
p8
I0
I1
tp9
Rp10
(I3
S'<'
p11
NNNI-1
I-1
I0
tp12
bI00
S'\x97+>l\x123a@\x1f#L`\xd2\xf0\x90?<N\x83Ub\xffk@q{\x01\xabP\xeb\xe0?'
p13
tp14
b(lp15
(lp16
cnumpy.core.multiarray
scalar
p17
(g10
S'V\x05d}\xf2FZ@'
p18
tp19
Rp20
ag17
(g10
S'\x83T\xca\x99\xabBe@'
p21
tp22
Rp23
aa(lp24
g17
(g10
S'4=&\xfd\xc5\x14}?'
p25
tp26
Rp27
ag17
(g10
S'\xf1\xb6NAs\x9c\x9a?'
p28
tp29
Rp30
aa(lp31
g17
(g10
S'<N\x83Ub\xffk@'
p32
tp33
Rp34
ag17
(g10
S'<N\x83Ub\xffk@'
p35
tp36
Rp37
aa(lp38
g17
(g10
S'#\x04\xf2\x9f\xb0\xe9\xe0?'
p39
tp40
Rp41
ag17
(g10
S'\xbf\xf2\x10\xb6\xf0\xec\xe0?'
p42
tp43
Rp44
aatp45
.