(cnumpy.core.multiarray
_reconstruct
p0
(cnumpy
ndarray
p1
(I0
tp2
S'b'
p3
tp4
Rp5
(I1
(I4
tp6
cnumpy
dtype
p7
(S'f8'
p8
I0
I1
tp9
Rp10
(I3
S'<'
p11
NNNI-1
I-1
I0
tp12
bI00
S'CQ"\xe8\xaakA@^\xb7\x91\xa1M\xc8\xd6?o\xb6*\xcdUv4@-\x9b\xd7\x16Z\xdb\xe0?'
p13
tp14
b(lp15
(lp16
cnumpy.core.multiarray
scalar
p17
(g10
S'P\x10\xf4J\xfb\x89 \xc0'
p18
tp19
Rp20
ag17
(g10
S'M\xd3\x80Q\xea|S@'
p21
tp22
Rp23
aa(lp24
g17
(g10
S' !\xb6\xd4\xcd\\\xa8\xbf'
p25
tp26
Rp27
ag17
(g10
S'p\x19\xdd~\x1aN\xe8?'
p28
tp29
Rp30
aa(lp31
g17
(g10
S'o\xb6*\xcdUv4@'
p32
tp33
Rp34
ag17
(g10
S'o\xb6*\xcdUv4@'
p35
tp36
Rp37
aa(lp38
g17
(g10
S'\xd2:|a1\xda\xe0?'
p39
tp40
Rp41
ag17
(g10
S'\x88\xfb2\xcc\x82\xdc\xe0?'
p42
tp43
Rp44
aatp45
.