(cnumpy.core.multiarray
_reconstruct
p0
(cnumpy
ndarray
p1
(I0
tp2
S'b'
p3
tp4
Rp5
(I1
(I4
tp6
cnumpy
dtype
p7
(S'f8'
p8
I0
I1
tp9
Rp10
(I3
S'<'
p11
NNNI-1
I-1
I0
tp12
bI00
S'\x98\xc7p\xad`Ua@>\xa5TB\xbc\x9e\x90?\x87\xeaJ\xebJ\xa1k@\x9cvU\xa9G\xeb\xe0?'
p13
tp14
b(lp15
(lp16
cnumpy.core.multiarray
scalar
p17
(g10
S'\x16\x9ac+\xf7~Z@'
p18
tp19
Rp20
ag17
(g10
S'%\xc2/\xc5Eke@'
p21
tp22
Rp23
aa(lp24
g17
(g10
S'.R2M\xc3a|?'
p25
tp26
Rp27
ag17
(g10
S'\xf0\xb5\\\xb1\x07%\x9a?'
p28
tp29
Rp30
aa(lp31
g17
(g10
S'5\xe4J\xebJ\xa1k@'
p32
tp33
Rp34
ag17
(g10
S'\xd9\xf0J\xebJ\xa1k@'
p35
tp36
Rp37
aa(lp38
g17
(g10
S'\x03s\x81\x8a\xa5\xe9\xe0?'
p39
tp40
Rp41
ag17
(g10
S'5z)\xc8\xe9\xec\xe0?'
p42
tp43
Rp44
aatp45
.