(cnumpy.core.multiarray
_reconstruct
p0
(cnumpy
ndarray
p1
(I0
tp2
S'b'
p3
tp4
Rp5
(I1
(I4
tp6
cnumpy
dtype
p7
(S'f8'
p8
I0
I1
tp9
Rp10
(I3
S'<'
p11
NNNI-1
I-1
I0
tp12
bI00
S'\xed\x01\xebH,{c@\xb2@\x0e\xc6\xbd\x9aq?\xac\xcb\x062Wl1@\xc0\x9d4\xc3p\xc7\xe0?'
p13
tp14
b(lp15
(lp16
cnumpy.core.multiarray
scalar
p17
(g10
S'FR]\x88\xb2~_@'
p18
tp19
Rp20
ag17
(g10
S'\xb7Z\xa7M\xff6g@'
p21
tp22
Rp23
aa(lp24
g17
(g10
S'T]\x91\xa1\x8c=S?'
p25
tp26
Rp27
ag17
(g10
S'\x0f*\xb8c\x18f~?'
p28
tp29
Rp30
aa(lp31
g17
(g10
S'5\x89\x062Wl1@'
p32
tp33
Rp34
ag17
(g10
S'#\x0e\x072Wl1@'
p35
tp36
Rp37
aa(lp38
g17
(g10
S'm\xdd\\\x19A\xc4\xe0?'
p39
tp40
Rp41
ag17
(g10
S'\x13^\x0cm\xa0\xca\xe0?'
p42
tp43
Rp44
aatp45
.