(cnumpy.core.multiarray
_reconstruct
p0
(cnumpy
ndarray
p1
(I0
tp2
S'b'
p3
tp4
Rp5
(I1
(I4
tp6
cnumpy
dtype
p7
(S'f8'
p8
I0
I1
tp9
Rp10
(I3
S'<'
p11
NNNI-1
I-1
I0
tp12
bI00
S'\xcbwy(\rSo@\xf4%v\xe6\xb2uK?\xde\x08m\x80\x8a\xea\xea>{\xb8\x9bx\xbb\xe4\xe0?'
p13
tp14
b(lp15
(lp16
cnumpy.core.multiarray
scalar
p17
(g10
S'D%\x01\x13\xd2\x15k@'
p18
tp19
Rp20
ag17
(g10
S')\xe5\xf8\x1e$\xc8q@'
p21
tp22
Rp23
aa(lp24
g17
(g10
S'R\xdbuQ\xca\xfaJ?'
p25
tp26
Rp27
ag17
(g10
S'\x96pv{\x9b\xf0K?'
p28
tp29
Rp30
aa(lp31
g17
(g10
S'D\xf8}"z^}\xbf'
p32
tp33
Rp34
ag17
(g10
S'Le\xfe\xacdy}?'
p35
tp36
Rp37
aa(lp38
g17
(g10
S'nu\xf7\xd8*\xe2\xe0?'
p39
tp40
Rp41
ag17
(g10
S'\x88\xfb?\x18L\xe7\xe0?'
p42
tp43
Rp44
aatp45
.