(cnumpy.core.multiarray
_reconstruct
p0
(cnumpy
ndarray
p1
(I0
tp2
S'b'
p3
tp4
Rp5
(I1
(I4
tp6
cnumpy
dtype
p7
(S'f8'
p8
I0
I1
tp9
Rp10
(I3
S'<'
p11
NNNI-1
I-1
I0
tp12
bI00
S'aXy\xebb\x9eg@\x83(\xbc\xe9\x80\r9?,\xa1@\xb6Ox\xdc?s*\x8eMsx\xe0?'
p13
tp14
b(lp15
(lp16
cnumpy.core.multiarray
scalar
p17
(g10
S'\xb4\x87\xb6\xc1d\x1fe@'
p18
tp19
Rp20
ag17
(g10
S'\x0e)<\x15a\x1dj@'
p21
tp22
Rp23
aa(lp24
g17
(g10
S'\xac(w{Z\xac\x10\xbf'
p25
tp26
Rp27
ag17
(g10
S'\x98\r+9\x0c#K?'
p28
tp29
Rp30
aa(lp31
g17
(g10
S'|\x8dO\x96\x9b\xd5\xf3\xbf'
p32
tp33
Rp34
ag17
(g10
S'\t\xef\xb7\xb8\xe1\x08\x01@'
p35
tp36
Rp37
aa(lp38
g17
(g10
S'|\xa2V-\xbfo\xe0?'
p39
tp40
Rp41
ag17
(g10
S"j\xb2\xc5m'\x81\xe0?"
p42
tp43
Rp44
aatp45
.