(cnumpy.core.multiarray
_reconstruct
p0
(cnumpy
ndarray
p1
(I0
tp2
S'b'
p3
tp4
Rp5
(I1
(I4
tp6
cnumpy
dtype
p7
(S'f8'
p8
I0
I1
tp9
Rp10
(I3
S'<'
p11
NNNI-1
I-1
I0
tp12
bI00
S'\xdbVa\x89\xab$g@\xa9\x0f\xa7<\xe5\xee3?\xab\xc4xzJ83@\xe3{\xbf\xae\x1c\xce\xe0?'
p13
tp14
b(lp15
(lp16
cnumpy.core.multiarray
scalar
p17
(g10
S"\xe8\x89'\xabk\x82c@"
p18
tp19
Rp20
ag17
(g10
S'\xce#\x9bg\xeb\xc6j@'
p21
tp22
Rp23
aa(lp24
g17
(g10
S'\xc5\xad\x14\xa05\xb88\xbf'
p25
tp26
Rp27
ag17
(g10
S'F\xb3X\x06\x80%P?'
p28
tp29
Rp30
aa(lp31
g17
(g10
S'\xab\xc4xzJ83@'
p32
tp33
Rp34
ag17
(g10
S'\xab\xc4xzJ83@'
p35
tp36
Rp37
aa(lp38
g17
(g10
S'~\xefE%/\xbd\xe0?'
p39
tp40
Rp41
ag17
(g10
S'H\x0898\n\xdf\xe0?'
p42
tp43
Rp44
aatp45
.