(cnumpy.core.multiarray
_reconstruct
p0
(cnumpy
ndarray
p1
(I0
tp2
S'b'
p3
tp4
Rp5
(I1
(I4
tp6
cnumpy
dtype
p7
(S'f8'
p8
I0
I1
tp9
Rp10
(I3
S'<'
p11
NNNI-1
I-1
I0
tp12
bI00
S'~\xf088\x1d\x1c[@\x16,\x1f\xfdW]\xb6?$\xba.1\xaa.6@^\xed\x0fA5\n\xe1?'
p13
tp14
b(lp15
(lp16
cnumpy.core.multiarray
scalar
p17
(g10
S'\x1c5\xbe\xcd\x17\xa0@@'
p18
tp19
Rp20
ag17
(g10
S'7c\xc9D\x17\xf4f@'
p21
tp22
Rp23
aa(lp24
g17
(g10
S'\xa0#$\xa9\xa7\xefp\xbf'
p25
tp26
Rp27
ag17
(g10
S'3Mh:\xd5\xe4\xc6?'
p28
tp29
Rp30
aa(lp31
g17
(g10
S'r\xab.1\xaa.6@'
p32
tp33
Rp34
ag17
(g10
S'\xd6\xc8.1\xaa.6@'
p35
tp36
Rp37
aa(lp38
g17
(g10
S't\x16\x8eL\xcc\x08\xe1?'
p39
tp40
Rp41
ag17
(g10
S'H\xc4\x915\x9e\x0b\xe1?'
p42
tp43
Rp44
aatp45
.