(cnumpy.core.multiarray
_reconstruct
p0
(cnumpy
ndarray
p1
(I0
tp2
S'b'
p3
tp4
Rp5
(I1
(I4
tp6
cnumpy
dtype
p7
(S'f8'
p8
I0
I1
tp9
Rp10
(I3
S'<'
p11
NNNI-1
I-1
I0
tp12
bI00
S'!\xeb\x80Q\xf2[a@[V\xb7\xf8\xf5\xb4{?z\x18<]\'?=@\xbf\x95\xd7.\xe0"\xe1?'
p13
tp14
b(lp15
(lp16
cnumpy.core.multiarray
scalar
p17
(g10
S'\x99\xba\xd3v\xa4\xdfZ@'
p18
tp19
Rp20
ag17
(g10
S'\xf5\xf8\x97g\x12He@'
p21
tp22
Rp23
aa(lp24
g17
(g10
S'\xc0\xdfB\x11*^^?'
p25
tp26
Rp27
ag17
(g10
S'c\xfa\x8e\xb60\xe9\x87?'
p28
tp29
Rp30
aa(lp31
g17
(g10
S"z\x18<]'?=@"
p32
tp33
Rp34
ag17
(g10
S"z\x18<]'?=@"
p35
tp36
Rp37
aa(lp38
g17
(g10
S'~\xb3\xa0U\xee\x1f\xe1?'
p39
tp40
Rp41
ag17
(g10
S'\x00x\x0e\x08\xd2%\xe1?'
p42
tp43
Rp44
aatp45
.