(cnumpy.core.multiarray
_reconstruct
p0
(cnumpy
ndarray
p1
(I0
tp2
S'b'
p3
tp4
Rp5
(I1
(I4
tp6
cnumpy
dtype
p7
(S'f8'
p8
I0
I1
tp9
Rp10
(I3
S'<'
p11
NNNI-1
I-1
I0
tp12
bI00
S'\xa9\x85\xf8\x9eQ+a@\xc4<\x00gS\x02\x91?\xceC}9\x0eNk@\xe3!_TR\xeb\xe0?'
p13
tp14
b(lp15
(lp16
cnumpy.core.multiarray
scalar
p17
(g10
S'\x16\xb5d\x8c\x97:Z@'
p18
tp19
Rp20
ag17
(g10
S'\xc7\xb0\xbewW9e@'
p21
tp22
Rp23
aa(lp24
g17
(g10
S':\xa6\x03\x1f,<}?'
p25
tp26
Rp27
ag17
(g10
S'\xfa\x8f?\xc6\x9b\xb5\x9a?'
p28
tp29
Rp30
aa(lp31
g17
(g10
S'\x94=}9\x0eNk@'
p32
tp33
Rp34
ag17
(g10
S'\x08J}9\x0eNk@'
p35
tp36
Rp37
aa(lp38
g17
(g10
S'@L\x86\xb8\xb2\xe9\xe0?'
p39
tp40
Rp41
ag17
(g10
S'\x86\xf77\xf0\xf1\xec\xe0?'
p42
tp43
Rp44
aatp45
.