(cnumpy.core.multiarray
_reconstruct
p0
(cnumpy
ndarray
p1
(I0
tp2
S'b'
p3
tp4
Rp5
(I1
(I4
tp6
cnumpy
dtype
p7
(S'f8'
p8
I0
I1
tp9
Rp10
(I3
S'<'
p11
NNNI-1
I-1
I0
tp12
bI00
S"\xbcE\xbfl\xde'x@\xd5)\x17\xf4\xf6n8?r \xebM\xc3d?@IPw\xe2\x03\xd0\xe0?"
p13
tp14
b(lp15
(lp16
cnumpy.core.multiarray
scalar
p17
(g10
S'"Y\x89\xe2(\xc0p@'
p18
tp19
Rp20
ag17
(g10
S'V2\xf5\xf6\x93\x8f\x7f@'
p21
tp22
Rp23
aa(lp24
g17
(g10
S'\xc1]9\xb0\x84\xc5Q\xbf'
p25
tp26
Rp27
ag17
(g10
S'\xab\xf2D*\x00\xfd]?'
p28
tp29
Rp30
aa(lp31
g17
(g10
S'r \xebM\xc3d?@'
p32
tp33
Rp34
ag17
(g10
S'r \xebM\xc3d?@'
p35
tp36
Rp37
aa(lp38
g17
(g10
S'9p\xbb\xaeb\xc2\xe0?'
p39
tp40
Rp41
ag17
(g10
S'Y03\x16\xa5\xdd\xe0?'
p42
tp43
Rp44
aatp45
.