(cnumpy.core.multiarray
_reconstruct
p0
(cnumpy
ndarray
p1
(I0
tp2
S'b'
p3
tp4
Rp5
(I1
(I4
tp6
cnumpy
dtype
p7
(S'f8'
p8
I0
I1
tp9
Rp10
(I3
S'<'
p11
NNNI-1
I-1
I0
tp12
bI00
S'7\xd0\x0e\x05O\xfea@\xab\xc9s^\xf22\x84?T<1\x88[\xfc7@\x96\xbd\x9c7]\xea\xe0?'
p13
tp14
b(lp15
(lp16
cnumpy.core.multiarray
scalar
p17
(g10
S']\x96Xj\xe8\xabX@'
p18
tp19
Rp20
ag17
(g10
S'@U\xf1\xd4\xa9\xa6g@'
p21
tp22
Rp23
aa(lp24
g17
(g10
S'\xa8U\nb^\xa0Q?'
p25
tp26
Rp27
ag17
(g10
S'P$Sx\xec\x18\x93?'
p28
tp29
Rp30
aa(lp31
g17
(g10
S'T<1\x88[\xfc7@'
p32
tp33
Rp34
ag17
(g10
S'T<1\x88[\xfc7@'
p35
tp36
Rp37
aa(lp38
g17
(g10
S'\xa0\xbb\x8d\x9fR\xe7\xe0?'
p39
tp40
Rp41
ag17
(g10
S'\x8c\xbf\xab\xcfg\xed\xe0?'
p42
tp43
Rp44
aatp45
.