(cnumpy.core.multiarray
_reconstruct
p0
(cnumpy
ndarray
p1
(I0
tp2
S'b'
p3
tp4
Rp5
(I1
(I4
tp6
cnumpy
dtype
p7
(S'f8'
p8
I0
I1
tp9
Rp10
(I3
S'<'
p11
NNNI-1
I-1
I0
tp12
bI00
S'\xe7-X\xb9W\x95g@#C\x13\xf2G\xa6p?\xf3\xe0\x16\x87I\xee:@0,#\x85uz\xe0?'
p13
tp14
b(lp15
(lp16
cnumpy.core.multiarray
scalar
p17
(g10
S'\x86\xba-yz\x03c@'
p18
tp19
Rp20
ag17
(g10
S"H\xa1\x82\xf94'l@"
p21
tp22
Rp23
aa(lp24
g17
(g10
S'@l\x1a\xd2\x12\x93P?'
p25
tp26
Rp27
ag17
(g10
S"6\xeb\x9f/\xcb'}?"
p28
tp29
Rp30
aa(lp31
g17
(g10
S'\xf3\xe0\x16\x87I\xee:@'
p32
tp33
Rp34
ag17
(g10
S'\xf3\xe0\x16\x87I\xee:@'
p35
tp36
Rp37
aa(lp38
g17
(g10
S'\rA\xd5\x16\xa1w\xe0?'
p39
tp40
Rp41
ag17
(g10
S'S\x17q\xf3I}\xe0?'
p42
tp43
Rp44
aatp45
.