(cnumpy.core.multiarray
_reconstruct
p0
(cnumpy
ndarray
p1
(I0
tp2
S'b'
p3
tp4
Rp5
(I1
(I4
tp6
cnumpy
dtype
p7
(S'f8'
p8
I0
I1
tp9
Rp10
(I3
S'<'
p11
NNNI-1
I-1
I0
tp12
bI00
S"R>vV\x80^R@\xf1^=*\xfbHy?VV+i\x05\xa7\xc6?'\xd7\xd8V\xfe=\xe0?"
p13
tp14
b(lp15
(lp16
cnumpy.core.multiarray
scalar
p17
(g10
S'Df\x99\xb9\xc5jQ@'
p18
tp19
Rp20
ag17
(g10
S'`\x16S\xf3:RS@'
p21
tp22
Rp23
aa(lp24
g17
(g10
S'\xde\xca~\x05\x1e\xfdu?'
p25
tp26
Rp27
ag17
(g10
S'\x04\xf3\xfbN\xd8\x94|?'
p28
tp29
Rp30
aa(lp31
g17
(g10
S'7\x10\x99&\x0e\xc0\xc0?'
p32
tp33
Rp34
ag17
(g10
S'u\x9c\xbd\xab\xfc\x8d\xcc?'
p35
tp36
Rp37
aa(lp38
g17
(g10
S'{t\xf9\xb7/=\xe0?'
p39
tp40
Rp41
ag17
(g10
S'\xd39\xb8\xf5\xcc>\xe0?'
p42
tp43
Rp44
aatp45
.