(cnumpy.core.multiarray
_reconstruct
p0
(cnumpy
ndarray
p1
(I0
tp2
S'b'
p3
tp4
Rp5
(I1
(I4
tp6
cnumpy
dtype
p7
(S'f8'
p8
I0
I1
tp9
Rp10
(I3
S'<'
p11
NNNI-1
I-1
I0
tp12
bI00
S'})\xfe\xc3\xfbzQ@\x88\xd5}j\xc80x?\xae\xd7\xd1B\xb7\xc9\xd3?\xd79q\xc5\xbfE\xe0?'
p13
tp14
b(lp15
(lp16
cnumpy.core.multiarray
scalar
p17
(g10
S'V\xd0\x93_\xc1\xa0P@'
p18
tp19
Rp20
ag17
(g10
S'\xa4\x82h(6UR@'
p21
tp22
Rp23
aa(lp24
g17
(g10
S'\x14#z0\xdc#u?'
p25
tp26
Rp27
ag17
(g10
S'\xfc\x87\x81\xa4\xb4={?'
p28
tp29
Rp30
aa(lp31
g17
(g10
S'0\\\xb6o\xa6F\xca?'
p32
tp33
Rp34
ag17
(g10
S'D\x81\xc8M\x1bp\xda?'
p35
tp36
Rp37
aa(lp38
g17
(g10
S'C\x06\xa9{\xeaD\xe0?'
p39
tp40
Rp41
ag17
(g10
S'km9\x0f\x95F\xe0?'
p42
tp43
Rp44
aatp45
.