(cnumpy.core.multiarray
_reconstruct
p0
(cnumpy
ndarray
p1
(I0
tp2
S'b'
p3
tp4
Rp5
(I1
(I4
tp6
cnumpy
dtype
p7
(S'f8'
p8
I0
I1
tp9
Rp10
(I3
S'<'
p11
NNNI-1
I-1
I0
tp12
bI00
S'\x9cp\xc33\xa5}Q@\xd8\n?bz\xe7{?\xf8\x0c\xb6\xf8p\xdf\xbd?2?\x9cKG\xb4\xe0?'
p13
tp14
b(lp15
(lp16
cnumpy.core.multiarray
scalar
p17
(g10
S'\x00(\xb7\x14\x1a\x89P@'
p18
tp19
Rp20
ag17
(g10
S'8\xb9\xcfR0rR@'
p21
tp22
Rp23
aa(lp24
g17
(g10
S'1l4&\xa0;x?'
p25
tp26
Rp27
ag17
(g10
S'\x7f\xa9I\x9eT\x93\x7f?'
p28
tp29
Rp30
aa(lp31
g17
(g10
S'\x92E\xf9m\xef\xd2\xb6?'
p32
tp33
Rp34
ag17
(g10
S'/j\xb9A\xf9u\xc2?'
p35
tp36
Rp37
aa(lp38
g17
(g10
S'Z,\x07\xac{\xb3\xe0?'
p39
tp40
Rp41
ag17
(g10
S'\nR1\xeb\x12\xb5\xe0?'
p42
tp43
Rp44
aatp45
.