(cnumpy.core.multiarray
_reconstruct
p0
(cnumpy
ndarray
p1
(I0
tp2
S'b'
p3
tp4
Rp5
(I1
(I4
tp6
cnumpy
dtype
p7
(S'f8'
p8
I0
I1
tp9
Rp10
(I3
S'<'
p11
NNNI-1
I-1
I0
tp12
bI00
S'h\xa9+(\xbc\x83U@\x8a\xef\x95\xf08\xb2k?\x93i\xa1\xfd\xe2C\xc7?J\xd4\t\xb1\xc1g\xe0?'
p13
tp14
b(lp15
(lp16
cnumpy.core.multiarray
scalar
p17
(g10
S'm\xf0\xa6G\nlT@'
p18
tp19
Rp20
ag17
(g10
S'cb\xb0\x08n\x9bV@'
p21
tp22
Rp23
aa(lp24
g17
(g10
S'E.\x1f\xf2\x99Wg?'
p25
tp26
Rp27
ag17
(g10
S'hX\x86\xf7k\x06p?'
p28
tp29
Rp30
aa(lp31
g17
(g10
S'\xb1\x06 u}[\xc1?'
p32
tp33
Rp34
ag17
(g10
S'u\xcc"\x86H,\xcd?'
p35
tp36
Rp37
aa(lp38
g17
(g10
S'\x12v\xc4\xab\xa8f\xe0?'
p39
tp40
Rp41
ag17
(g10
S'\x822O\xb6\xdah\xe0?'
p42
tp43
Rp44
aatp45
.