(cnumpy.core.multiarray
_reconstruct
p0
(cnumpy
ndarray
p1
(I0
tp2
S'b'
p3
tp4
Rp5
(I1
(I4
tp6
cnumpy
dtype
p7
(S'f8'
p8
I0
I1
tp9
Rp10
(I3
S'<'
p11
NNNI-1
I-1
I0
tp12
bI00
S'aP\xbc5\x1bMR@\x16Q_A\xc0Iu?\xc7\r\xffk\xa9a\xc6?\xf3\xa9M\xc5\x0ca\xe0?'
p13
tp14
b(lp15
(lp16
cnumpy.core.multiarray
scalar
p17
(g10
S'\x11B4\xbd\xd2eQ@'
p18
tp19
Rp20
ag17
(g10
S'\xb1^D\xaec4S@'
p21
tp22
Rp23
aa(lp24
g17
(g10
S'\x1cxM7\x16\x7fr?'
p25
tp26
Rp27
ag17
(g10
S'\x10*qKj\x14x?'
p28
tp29
Rp30
aa(lp31
g17
(g10
S'\xa5&\xf9\xb1\xa0\xe3\xc0?'
p32
tp33
Rp34
ag17
(g10
S'\xe9\xf4\x04&\xb2\xdf\xcb?'
p35
tp36
Rp37
aa(lp38
g17
(g10
S'\xf9\x1f\xabg+`\xe0?'
p39
tp40
Rp41
ag17
(g10
S'\xed3\xf0"\xeea\xe0?'
p42
tp43
Rp44
aatp45
.