(cnumpy.core.multiarray
_reconstruct
p0
(cnumpy
ndarray
p1
(I0
tp2
S'b'
p3
tp4
Rp5
(I1
(I4
tp6
cnumpy
dtype
p7
(S'f8'
p8
I0
I1
tp9
Rp10
(I3
S'<'
p11
NNNI-1
I-1
I0
tp12
bI00
S'32_\xddB\x1bH@[\x1bU\x86>\x8dr?h\x06ZEQE\xbb?Y\xc7.y\xed\x94\xe0?'
p13
tp14
b(lp15
(lp16
cnumpy.core.multiarray
scalar
p17
(g10
S'5\xd5\x80\t@NG@'
p18
tp19
Rp20
ag17
(g10
S'1\x8f=\xb1E\xe8H@'
p21
tp22
Rp23
aa(lp24
g17
(g10
S'X\xe2\x95lC\xdfp?'
p25
tp26
Rp27
ag17
(g10
S'^T\x14\xa09;t?'
p28
tp29
Rp30
aa(lp31
g17
(g10
S':=\x06\xf6\xd0\x98\xb7?'
p32
tp33
Rp34
ag17
(g10
S'\x96\xcf\xad\x94\xd1\xf1\xbe?'
p35
tp36
Rp37
aa(lp38
g17
(g10
S'\xff/\xc4j\xf2\x93\xe0?'
p39
tp40
Rp41
ag17
(g10
S'\xb3^\x99\x87\xe8\x95\xe0?'
p42
tp43
Rp44
aatp45
.