(cnumpy.core.multiarray
_reconstruct
p0
(cnumpy
ndarray
p1
(I0
tp2
S'b'
p3
tp4
Rp5
(I1
(I4
tp6
cnumpy
dtype
p7
(S'f8'
p8
I0
I1
tp9
Rp10
(I3
S'<'
p11
NNNI-1
I-1
I0
tp12
bI00
S'\xb9JU\xd4\x91*T@{E\x07\x89>\x10p?\xa3O\xc8\x8b\xd8_\xbe?%\xc9s\x00\xf1\x15\xe0?'
p13
tp14
b(lp15
(lp16
cnumpy.core.multiarray
scalar
p17
(g10
S'\x08hJWc>S@'
p18
tp19
Rp20
ag17
(g10
S'j-`Q\xc0\x16U@'
p21
tp22
Rp23
aa(lp24
g17
(g10
S'\x86#7\xa1+\xe4k?'
p25
tp26
Rp27
ag17
(g10
S'3\xf9rAg.r?'
p28
tp29
Rp30
aa(lp31
g17
(g10
S'o\x11Rn\x8e\x99\xb8?'
p32
tp33
Rp34
ag17
(g10
S'\xecF\x9fT\x11\x13\xc2?'
p35
tp36
Rp37
aa(lp38
g17
(g10
S'\x98=g6\x00\x15\xe0?'
p39
tp40
Rp41
ag17
(g10
S'\xb2T\x80\xca\xe1\x16\xe0?'
p42
tp43
Rp44
aatp45
.