(cnumpy.core.multiarray
_reconstruct
p0
(cnumpy
ndarray
p1
(I0
tp2
S'b'
p3
tp4
Rp5
(I1
(I4
tp6
cnumpy
dtype
p7
(S'f8'
p8
I0
I1
tp9
Rp10
(I3
S'<'
p11
NNNI-1
I-1
I0
tp12
bI00
S'\xf4\x1aiLY\xb8U@\x00\xeb\xdf\x07vqk?\xae\x81\xaep\x8d\t\xbb?^_\x002\xe1\x0b\xe0?'
p13
tp14
b(lp15
(lp16
cnumpy.core.multiarray
scalar
p17
(g10
S'\xc5\x9ah3\xed<U@'
p18
tp19
Rp20
ag17
(g10
S'#\x9bie\xc53V@'
p21
tp22
Rp23
aa(lp24
g17
(g10
S'\x01Z\xe63\x1alk?'
p25
tp26
Rp27
ag17
(g10
S'\xff{\xd9\xdb\xd1vk?'
p28
tp29
Rp30
aa(lp31
g17
(g10
S'z$-\xb9\xf7\x1f\xb6?'
p32
tp33
Rp34
ag17
(g10
S'\xe2\xde/(#\xf3\xbf?'
p35
tp36
Rp37
aa(lp38
g17
(g10
S'|~\xe0XW\x0b\xe0?'
p39
tp40
Rp41
ag17
(g10
S'@@ \x0bk\x0c\xe0?'
p42
tp43
Rp44
aatp45
.