(cnumpy.core.multiarray
_reconstruct
p0
(cnumpy
ndarray
p1
(I0
tp2
S'b'
p3
tp4
Rp5
(I1
(I4
tp6
cnumpy
dtype
p7
(S'f8'
p8
I0
I1
tp9
Rp10
(I3
S'<'
p11
NNNI-1
I-1
I0
tp12
bI00
S'\x16\xd9\x82\x80i\xecT@\xe24\xf8lG\xa0g?A\x96\xa9\nb0\xc2?\xc0\x9f\x14\r\xf3[\xe0?'
p13
tp14
b(lp15
(lp16
cnumpy.core.multiarray
scalar
p17
(g10
S'\t\xbe_\x9aCnT@'
p18
tp19
Rp20
ag17
(g10
S'#\xf4\xa5f\x8fjU@'
p21
tp22
Rp23
aa(lp24
g17
(g10
S'\x85$\xce&~\xdef?'
p25
tp26
Rp27
ag17
(g10
S'?E"\xb3\x10bh?'
p28
tp29
Rp30
aa(lp31
g17
(g10
S'\xe4B\xb4ex\n\xbd?'
p32
tp33
Rp34
ag17
(g10
S'\x10\x0by\xe2\x87\xdb\xc5?'
p35
tp36
Rp37
aa(lp38
g17
(g10
S'\xd7+\x01HU[\xe0?'
p39
tp40
Rp41
ag17
(g10
S'\xa9\x13(\xd2\x90\\\xe0?'
p42
tp43
Rp44
aatp45
.