(cnumpy.core.multiarray
_reconstruct
p0
(cnumpy
ndarray
p1
(I0
tp2
S'b'
p3
tp4
Rp5
(I1
(I4
tp6
cnumpy
dtype
p7
(S'f8'
p8
I0
I1
tp9
Rp10
(I3
S'<'
p11
NNNI-1
I-1
I0
tp12
bI00
S'\xaa\x16yxOxX@\xd6\xc8Tu\xd8fz?V\x93a\xe9Gm\xd4?r:\x03\xb3\xa6\xb5\xe0?'
p13
tp14
b(lp15
(lp16
cnumpy.core.multiarray
scalar
p17
(g10
S'\xd6\xd51)\xb5\xa1V@'
p18
tp19
Rp20
ag17
(g10
S'~W\xc0\xc7\xe9NZ@'
p21
tp22
Rp23
aa(lp24
g17
(g10
S'=\x8e\xb2\x17+hu?'
p25
tp26
Rp27
ag17
(g10
S'o\x03\xf7\xd2\x85e\x7f?'
p28
tp29
Rp30
aa(lp31
g17
(g10
S'\x12\x033e\x8bL\xc3?'
p32
tp33
Rp34
ag17
(g10
S'#\xa5) J4\xdf?'
p35
tp36
Rp37
aa(lp38
g17
(g10
S'\t_P<\xd2\xb4\xe0?'
p39
tp40
Rp41
ag17
(g10
S'\xdb\x15\xb6){\xb6\xe0?'
p42
tp43
Rp44
aatp45
.