(cnumpy.core.multiarray
_reconstruct
p0
(cnumpy
ndarray
p1
(I0
tp2
S'b'
p3
tp4
Rp5
(I1
(I4
tp6
cnumpy
dtype
p7
(S'f8'
p8
I0
I1
tp9
Rp10
(I3
S'<'
p11
NNNI-1
I-1
I0
tp12
bI00
S'\xe0.L?^\x82Q@TubB>\x9e{?\x801~l\xe4\x91\xc6?FS\xcd\xcd|\xb2\xe0?'
p13
tp14
b(lp15
(lp16
cnumpy.core.multiarray
scalar
p17
(g10
S'\xf9\xe1=#2\x8cP@'
p18
tp19
Rp20
ag17
(g10
S'\xc7{Z[\x8axR@'
p21
tp22
Rp23
aa(lp24
g17
(g10
S'}0\x8eD\xcd\xe7w?'
p25
tp26
Rp27
ag17
(g10
S'+\xba6@\xafT\x7f?'
p28
tp29
Rp30
aa(lp31
g17
(g10
S'-?\xaf2\x9dU\xc0?'
p32
tp33
Rp34
ag17
(g10
S'\xd3#M\xa6+\xce\xcc?'
p35
tp36
Rp37
aa(lp38
g17
(g10
S'`\x0e\x0eR\xad\xb1\xe0?'
p39
tp40
Rp41
ag17
(g10
S',\x98\x8cIL\xb3\xe0?'
p42
tp43
Rp44
aatp45
.