(cnumpy.core.multiarray
_reconstruct
p0
(cnumpy
ndarray
p1
(I0
tp2
S'b'
p3
tp4
Rp5
(I1
(I4
tp6
cnumpy
dtype
p7
(S'f8'
p8
I0
I1
tp9
Rp10
(I3
S'<'
p11
NNNI-1
I-1
I0
tp12
bI00
S'\nG\xa6>u\xa1R@3\x15|\xffEVv?u\nx3=\x1a\xc5?\x14\x1f\x94\x06\xf5\x96\xe0?'
p13
tp14
b(lp15
(lp16
cnumpy.core.multiarray
scalar
p17
(g10
S'g8\xd5mP\xa5Q@'
p18
tp19
Rp20
ag17
(g10
S'\xadUw\x0f\x9a\x9dS@'
p21
tp22
Rp23
aa(lp24
g17
(g10
S'.\xe8\x13\xbc#As?'
p25
tp26
Rp27
ag17
(g10
S'8B\xe4Bhky?'
p28
tp29
Rp30
aa(lp31
g17
(g10
S'*\xad|\xd8Ze\xbf?'
p32
tp33
Rp34
ag17
(g10
S'U\xbe\xb1\xfa\xcc\x81\xca?'
p35
tp36
Rp37
aa(lp38
g17
(g10
S'\xd2\xc1km\x14\x96\xe0?'
p39
tp40
Rp41
ag17
(g10
S'V|\xbc\x9f\xd5\x97\xe0?'
p42
tp43
Rp44
aatp45
.