(cnumpy.core.multiarray
_reconstruct
p0
(cnumpy
ndarray
p1
(I0
tp2
S'b'
p3
tp4
Rp5
(I1
(I4
tp6
cnumpy
dtype
p7
(S'f8'
p8
I0
I1
tp9
Rp10
(I3
S'<'
p11
NNNI-1
I-1
I0
tp12
bI00
S"\xd1n\x8f\xa9\xec`T@\x14hB'1BE?\xf2\xf5\xe4~#\xfc\xb5?\xb6\xf8\x88\x04\t\x81\xe0?"
p13
tp14
b(lp15
(lp16
cnumpy.core.multiarray
scalar
p17
(g10
S'6\xad6h\xb5\xb2S@'
p18
tp19
Rp20
ag17
(g10
S'l0\xe8\xea#\x0fU@'
p21
tp22
Rp23
aa(lp24
g17
(g10
S'\xaa\x9f\xe1++\xd0@?'
p25
tp26
Rp27
ag17
(g10
S'~0\xa3"7\xb4I?'
p28
tp29
Rp30
aa(lp31
g17
(g10
S'\xdb\x9aL*\xf2\x9d\xb3?'
p32
tp33
Rp34
ag17
(g10
S'\tQ}\xd3TZ\xb8?'
p35
tp36
Rp37
aa(lp38
g17
(g10
S'-\xce\x17\x14:~\xe0?'
p39
tp40
Rp41
ag17
(g10
S'?#\xfa\xf4\xd7\x83\xe0?'
p42
tp43
Rp44
aatp45
.