(cnumpy.core.multiarray
_reconstruct
p0
(cnumpy
ndarray
p1
(I0
tp2
S'b'
p3
tp4
Rp5
(I1
(I4
tp6
cnumpy
dtype
p7
(S'f8'
p8
I0
I1
tp9
Rp10
(I3
S'<'
p11
NNNI-1
I-1
I0
tp12
bI00
S'S\x92\xfaI[\xfaj@Q\xd6\xc37^tU?jy\xa8\xf6;@\x15@Lw nK\xbc\xe0?'
p13
tp14
b(lp15
(lp16
cnumpy.core.multiarray
scalar
p17
(g10
S'h\xcc\xc9\xba\xa3\x18^@'
p18
tp19
Rp20
ag17
(g10
S'9\x1fH[2ts@'
p21
tp22
Rp23
aa(lp24
g17
(g10
S'\xba\xef\x9ai\xacQa\xbf'
p25
tp26
Rp27
ag17
(g10
S'\x05c\xafP\x05cs?'
p28
tp29
Rp30
aa(lp31
g17
(g10
S'oe\x999Wc\x12@'
p32
tp33
Rp34
ag17
(g10
S'e\x8d\xb7\xb3 \x1d\x18@'
p35
tp36
Rp37
aa(lp38
g17
(g10
S'\x94W\xf7M\xcf\xb0\xe0?'
p39
tp40
Rp41
ag17
(g10
S'\x04\x97I\x8e\xc7\xc7\xe0?'
p42
tp43
Rp44
aatp45
.