(cnumpy.core.multiarray
_reconstruct
p0
(cnumpy
ndarray
p1
(I0
tp2
S'b'
p3
tp4
Rp5
(I1
(I4
tp6
cnumpy
dtype
p7
(S'f8'
p8
I0
I1
tp9
Rp10
(I3
S'<'
p11
NNNI-1
I-1
I0
tp12
bI00
S'K\x05\x95\xd3\x88]]@v\x85@EJ\xbf\x82?v0\xd7\\\xc9L*@x&gF#\xc1\xe0?'
p13
tp14
b(lp15
(lp16
cnumpy.core.multiarray
scalar
p17
(g10
S'0iT\xd3\xee\xa7Q@'
p18
tp19
Rp20
ag17
(g10
S'\xb3\xd0\xeai\x91\x89d@'
p21
tp22
Rp23
aa(lp24
g17
(g10
S'PS8;@\xe2@\xbf'
p25
tp26
Rp27
ag17
(g10
S'\x10H\x1aG\\F\x93?'
p28
tp29
Rp30
aa(lp31
g17
(g10
S'v0\xd7\\\xc9L*@'
p32
tp33
Rp34
ag17
(g10
S'v0\xd7\\\xc9L*@'
p35
tp36
Rp37
aa(lp38
g17
(g10
S'\xd0@2\xa6c\xbd\xe0?'
p39
tp40
Rp41
ag17
(g10
S' \x0c\x9c\xe6\xe2\xc4\xe0?'
p42
tp43
Rp44
aatp45
.