(cnumpy.core.multiarray
_reconstruct
p0
(cnumpy
ndarray
p1
(I0
tp2
S'b'
p3
tp4
Rp5
(I1
(I4
tp6
cnumpy
dtype
p7
(S'f8'
p8
I0
I1
tp9
Rp10
(I3
S'<'
p11
NNNI-1
I-1
I0
tp12
bI00
S'\x89\x19\x17410s@;<\x16\x8b\xdd\xad\xfb>\x15 \xf6L\x899\x02@K,\xeb\\\xfa\x9e\xe0?'
p13
tp14
b(lp15
(lp16
cnumpy.core.multiarray
scalar
p17
(g10
S'\x9e/T\x15f\xedf@'
p18
tp19
Rp20
ag17
(g10
S'C\x1b\x84]\xaf\xe9z@'
p21
tp22
Rp23
aa(lp24
g17
(g10
S'\xed\xc9k\x02WqH\xbf'
p25
tp26
Rp27
ag17
(g10
S'\xb1-\x1d\xdb4,J?'
p28
tp29
Rp30
aa(lp31
g17
(g10
S'R\xf9$\x89\xab(P\xc0'
p32
tp33
Rp34
ag17
(g10
S'T[\xf4\x1dDLQ@'
p35
tp36
Rp37
aa(lp38
g17
(g10
S'K\xc6,\xcf\xc4\xe2\xdf?'
p39
tp40
Rp41
ag17
(g10
S'p\xf5?R\x92L\xe1?'
p42
tp43
Rp44
aatp45
.