(cnumpy.core.multiarray
_reconstruct
p0
(cnumpy
ndarray
p1
(I0
tp2
S'b'
p3
tp4
Rp5
(I1
(I4
tp6
cnumpy
dtype
p7
(S'f8'
p8
I0
I1
tp9
Rp10
(I3
S'<'
p11
NNNI-1
I-1
I0
tp12
bI00
S"\n\x15\xb8'SBg@3\xa8\xca\xf4K\xdeg?5\xfa\xace\xa94\x05@\xc72\xd67]\x07\xe1?"
p13
tp14
b(lp15
(lp16
cnumpy.core.multiarray
scalar
p17
(g10
S'5;N\x9d\xd3\xbfX@'
p18
tp19
Rp20
ag17
(g10
S'=\x86d@^\x12q@'
p21
tp22
Rp23
aa(lp24
g17
(g10
S'\xc9\xd0+\xbf\xd5Ue\xbf'
p25
tp26
Rp27
ag17
(g10
S'LH0j\x9bD\x81?'
p28
tp29
Rp30
aa(lp31
g17
(g10
S'\x96\x91\xde\xfd^*S\xc0'
p32
tp33
Rp34
ag17
(g10
S':a9\x94\xa9}T@'
p35
tp36
Rp37
aa(lp38
g17
(g10
S'Q\xba\x1c X\x00\xe1?'
p39
tp40
Rp41
ag17
(g10
S'=\xab\x8fOb\x0e\xe1?'
p42
tp43
Rp44
aatp45
.