(cnumpy.core.multiarray
_reconstruct
p1
(cnumpy
ndarray
p2
(I0
tS'b'
tRp3
(I1
(I3
tcnumpy
dtype
p4
(S'f8'
I0
I1
tRp5
(I3
S'<'
NNNI-1
I-1
I0
tbI00
S'\xf7\nQ)H\xacX@{\x97\x9bn\xa71\x83?\x9d[\xa5o\n\x91\xe0?'
tb(lp6
(lp7
cnumpy.core.multiarray
scalar
p8
(g5
S'\xa4vv\xa0p\xbeP@'
tRp9
ag8
(g5
S'\xa5\xcf\x15\xd9\x0fM`@'
tRp10
aa(lp11
g8
(g5
S"\xb8j'$fIj?"
tRp12
ag8
(g5
S'HT-T\xf5\xd0\x8f?'
tRp13
aa(lp14
g8
(g5
S'2x\x99nI\x8f\xe0?'
tRp15
ag8
(g5
S'\x08?\xb1p\xcb\x92\xe0?'
tRp16
aat.