(cnumpy.core.multiarray
_reconstruct
p0
(cnumpy
ndarray
p1
(I0
tp2
S'b'
p3
tp4
Rp5
(I1
(I4
tp6
cnumpy
dtype
p7
(S'f8'
p8
I0
I1
tp9
Rp10
(I3
S'<'
p11
NNNI-1
I-1
I0
tp12
bI00
S'\xbeS\x0f\xf4\xb5\xa9g@*X:C\x84d[?\x9f;\x95\xef,"\x03@F\x03\xcd\x97K\xe1\xe0?'
p13
tp14
b(lp15
(lp16
cnumpy.core.multiarray
scalar
p17
(g10
S'\x8dF\xd0ZB\x8cc@'
p18
tp19
Rp20
ag17
(g10
S'\xef`N\x8d)\xc7k@'
p21
tp22
Rp23
aa(lp24
g17
(g10
S'\x97\xaez\x15,Z[?'
p25
tp26
Rp27
ag17
(g10
S'\xbd\x01\xfap\xdcn[?'
p28
tp29
Rp30
aa(lp31
g17
(g10
S'\xf8@N\xb03\xc4I\xc0'
p32
tp33
Rp34
ag17
(g10
S'l\xe8@Ny(L@'
p35
tp36
Rp37
aa(lp38
g17
(g10
S'\xf5Oz\x16\x1c\xde\xe0?'
p39
tp40
Rp41
ag17
(g10
S'\x97\xb6\x1f\x19{\xe4\xe0?'
p42
tp43
Rp44
aatp45
.