(cnumpy.core.multiarray
_reconstruct
p0
(cnumpy
ndarray
p1
(I0
tp2
S'b'
p3
tp4
Rp5
(I1
(I4
tp6
cnumpy
dtype
p7
(S'f8'
p8
I0
I1
tp9
Rp10
(I3
S'<'
p11
NNNI-1
I-1
I0
tp12
bI00
S'i\xa6\tU\xa2\xf1i@xO_g\xf7|5?]\x8f\xd8uWs\xef?\xe4\x163\x7fo\x10\xe1?'
p13
tp14
b(lp15
(lp16
cnumpy.core.multiarray
scalar
p17
(g10
S'4\xf0dqb\x17`@'
p18
tp19
Rp20
ag17
(g10
S'O.W\x1c\xf1\xe5q@'
p21
tp22
Rp23
aa(lp24
g17
(g10
S'/\xa5y\xd0\xab\xdeX\xbf'
p25
tp26
Rp27
ag17
(g10
S'v\xa6\x14\xc2\x93\xcea?'
p28
tp29
Rp30
aa(lp31
g17
(g10
S'@Nv\xeex\x1a\x19\xc0'
p32
tp33
Rp34
ag17
(g10
S'\x0c9\xf6e\xa7{ @'
p35
tp36
Rp37
aa(lp38
g17
(g10
S'\x83L\x8d]\xd4\xea\xe0?'
p39
tp40
Rp41
ag17
(g10
S'E\xe1\xd8\xa0\n6\xe1?'
p42
tp43
Rp44
aatp45
.