(cnumpy.core.multiarray
_reconstruct
p0
(cnumpy
ndarray
p1
(I0
tp2
S'b'
p3
tp4
Rp5
(I1
(I4
tp6
cnumpy
dtype
p7
(S'f8'
p8
I0
I1
tp9
Rp10
(I3
S'<'
p11
NNNI-1
I-1
I0
tp12
bI00
S')\xfc@\xab\x80\x89m@\xe3@\x986*b\xd6>\xe9\xd4\xb00\xdf\x02\x14@\x0b`?xF\x96\xe0?'
p13
tp14
b(lp15
(lp16
cnumpy.core.multiarray
scalar
p17
(g10
S'\xe0\xca)#yK\\@'
p18
tp19
Rp20
ag17
(g10
S'q\x89vb\xa2vv@'
p21
tp22
Rp23
aa(lp24
g17
(g10
S'\x1f\xa8^M/gC\xbf'
p25
tp26
Rp27
ag17
(g10
S'#\t9\xf6\xb7\xc0C?'
p28
tp29
Rp30
aa(lp31
g17
(g10
S'_\x94\x15\x19s\x96{\xc0'
p32
tp33
Rp34
ag17
(g10
S'\x07\x1b\x9b\x12\x8a6|@'
p35
tp36
Rp37
aa(lp38
g17
(g10
S'\xe4\xfd@\x04C\x08\xda?'
p39
tp40
Rp41
ag17
(g10
S'$A^nk(\xe4?'
p42
tp43
Rp44
aatp45
.