(cnumpy.core.multiarray
_reconstruct
p0
(cnumpy
ndarray
p1
(I0
tp2
S'b'
p3
tp4
Rp5
(I1
(I4
tp6
cnumpy
dtype
p7
(S'f8'
p8
I0
I1
tp9
Rp10
(I3
S'<'
p11
NNNI-1
I-1
I0
tp12
bI00
S'\xd3!\x0e\xc6\x1a\x17h@i(E\xc0:\xe7\x1c?-\x92^\xac\xe8 \xb88.\x95\xd7\x93c\xf5\xe0?'
p13
tp14
b(lp15
(lp16
cnumpy.core.multiarray
scalar
p17
(g10
S'XF}b\x18\xf2d@'
p18
tp19
Rp20
ag17
(g10
S'N\xfd\x9e)\x1d<k@'
p21
tp22
Rp23
aa(lp24
g17
(g10
S'=\x9b\\@\xefV\x1c?'
p25
tp26
Rp27
ag17
(g10
S'\x95\xb5-@\x86w\x1d?'
p28
tp29
Rp30
aa(lp31
g17
(g10
S'(\xf5\xc9k qd\xbf'
p32
tp33
Rp34
ag17
(g10
S'(\xf5\xc9k qd?'
p35
tp36
Rp37
aa(lp38
g17
(g10
S'Wm\xb9L~\xef\xe0?'
p39
tp40
Rp41
ag17
(g10
S'\x05\xbd\xf5\xdaH\xfb\xe0?'
p42
tp43
Rp44
aatp45
.