(cnumpy.core.multiarray
_reconstruct
p0
(cnumpy
ndarray
p1
(I0
tp2
S'b'
p3
tp4
Rp5
(I1
(I4
tp6
cnumpy
dtype
p7
(S'f8'
p8
I0
I1
tp9
Rp10
(I3
S'<'
p11
NNNI-1
I-1
I0
tp12
bI00
S'\x18U\xe6\xf4\xb44e@\x87\x9c;\xa8\xd5-c?\xee{Ar,\xae1@A\x07\x9e\x85/\xbc\xe0?'
p13
tp14
b(lp15
(lp16
cnumpy.core.multiarray
scalar
p17
(g10
S'r\xc4\xcdI\x0c\x9e[@'
p18
tp19
Rp20
ag17
(g10
S'\xf7\xc7\xe5\xc4c\x9al@'
p21
tp22
Rp23
aa(lp24
g17
(g10
S'n?\x14\x12@)\\\xbf'
p25
tp26
Rp27
ag17
(g10
S'b\xac\xc0\xac%8z?'
p28
tp29
Rp30
aa(lp31
g17
(g10
S'\xee{Ar,\xae1@'
p32
tp33
Rp34
ag17
(g10
S'\xee{Ar,\xae1@'
p35
tp36
Rp37
aa(lp38
g17
(g10
S'#\xe1\x10\xee\x9a\xb3\xe0?'
p39
tp40
Rp41
ag17
(g10
S'_-+\x1d\xc4\xc4\xe0?'
p42
tp43
Rp44
aatp45
.