(cnumpy.core.multiarray
_reconstruct
p0
(cnumpy
ndarray
p1
(I0
tp2
S'b'
p3
tp4
Rp5
(I1
(I4
tp6
cnumpy
dtype
p7
(S'f8'
p8
I0
I1
tp9
Rp10
(I3
S'<'
p11
NNNI-1
I-1
I0
tp12
bI00
S'\x7f1+:\xeb\xa1[@\x1d\xb5H\xea0l\x91?\xe0-\xd1\x8fR\x81\x10@\xca.*\x8d\x83:\xe1?'
p13
tp14
b(lp15
(lp16
cnumpy.core.multiarray
scalar
p17
(g10
S'$Y$K\xb6\xbfH@'
p18
tp19
Rp20
ag17
(g10
S'6\x1bb\xa7\xfdqe@'
p21
tp22
Rp23
aa(lp24
g17
(g10
S'\xf0\x9a\t\xb6e\x9es\xbf'
p25
tp26
Rp27
ag17
(g10
S'{\xe8\t\xa1\xfd\xdf\xa3?'
p28
tp29
Rp30
aa(lp31
g17
(g10
S'V\xb4\xed;;(e\xc0'
p32
tp33
Rp34
ag17
(g10
S'4\xc7\xeadP0f@'
p35
tp36
Rp37
aa(lp38
g17
(g10
S'x\xee\x07\xf5\xc96\xe1?'
p39
tp40
Rp41
ag17
(g10
S'\x1coL%=>\xe1?'
p42
tp43
Rp44
aatp45
.