(cnumpy.core.multiarray
_reconstruct
p0
(cnumpy
ndarray
p1
(I0
tp2
S'b'
p3
tp4
Rp5
(I1
(I4
tp6
cnumpy
dtype
p7
(S'f8'
p8
I0
I1
tp9
Rp10
(I3
S'<'
p11
NNNI-1
I-1
I0
tp12
bI00
S'\xdb\xc4rUZ\xcfj@[\xde\x9c#\x8d\xfa7?&ezz\x99\xe1.@wbw\t\xdf\xad\xe0?'
p13
tp14
b(lp15
(lp16
cnumpy.core.multiarray
scalar
p17
(g10
S'*\xcaIS\x16\xcfa@'
p18
tp19
Rp20
ag17
(g10
S'\xc6\xdf\xcd+\xcf\xe7q@'
p21
tp22
Rp23
aa(lp24
g17
(g10
S'-\x8f\xa3ha\xb6V\xbf'
p25
tp26
Rp27
ag17
(g10
S'-\xff8\xfd\xd3Ya?'
p28
tp29
Rp30
aa(lp31
g17
(g10
S'&ezz\x99\xe1.@'
p32
tp33
Rp34
ag17
(g10
S'&ezz\x99\xe1.@'
p35
tp36
Rp37
aa(lp38
g17
(g10
S'Q\xf7{\xeew\x8e\xe0?'
p39
tp40
Rp41
ag17
(g10
S'\x9d\xcdr$F\xcd\xe0?'
p42
tp43
Rp44
aatp45
.