(cnumpy.core.multiarray
_reconstruct
p0
(cnumpy
ndarray
p1
(I0
tp2
S'b'
p3
tp4
Rp5
(I1
(I4
tp6
cnumpy
dtype
p7
(S'f8'
p8
I0
I1
tp9
Rp10
(I3
S'<'
p11
NNNI-1
I-1
I0
tp12
bI00
S'|\x8c|k(Ac@\x7f\xd95\r\xaeY[?*\x897/Qn)@2\xbbQ\xf4\xae\xb1\xe0?'
p13
tp14
b(lp15
(lp16
cnumpy.core.multiarray
scalar
p17
(g10
S'\x18M\xa4\xbe\xb3\x86Z@'
p18
tp19
Rp20
ag17
(g10
S'l\xf2\xa6\xf7\xf6>i@'
p21
tp22
Rp23
aa(lp24
g17
(g10
S'\x91H\xab\xd1\x16\xc0V\xbf'
p25
tp26
Rp27
ag17
(g10
S'\xe4\xbe\x05\xbb\xdc\\s?'
p28
tp29
Rp30
aa(lp31
g17
(g10
S'*\x897/Qn)@'
p32
tp33
Rp34
ag17
(g10
S'*\x897/Qn)@'
p35
tp36
Rp37
aa(lp38
g17
(g10
S'JM\x8a\xf6d\xa6\xe0?'
p39
tp40
Rp41
ag17
(g10
S'\x1a)\x19\xf2\xf8\xbc\xe0?'
p42
tp43
Rp44
aatp45
.