(cnumpy.core.multiarray
_reconstruct
p0
(cnumpy
ndarray
p1
(I0
tp2
S'b'
p3
tp4
Rp5
(I1
(I4
tp6
cnumpy
dtype
p7
(S'f8'
p8
I0
I1
tp9
Rp10
(I3
S'<'
p11
NNNI-1
I-1
I0
tp12
bI00
S'N@rc\xfd\xedf@m<p>.@i?\x84\x92.\xed\x06v+@\x83hNV\xe9\x1f\xe1?'
p13
tp14
b(lp15
(lp16
cnumpy.core.multiarray
scalar
p17
(g10
S'\xd9\tc}\xdb\xc1X@'
p18
tp19
Rp20
ag17
(g10
S'\xd8}\x19\x84\x86\xbdp@'
p21
tp22
Rp23
aa(lp24
g17
(g10
S'_\xdd\xab\x9cW\x81i\xbf'
p25
tp26
Rp27
ag17
(g10
S'\x8e\x15c\x06m\x00\x83?'
p28
tp29
Rp30
aa(lp31
g17
(g10
S"'\xb4+\xed\x06v+@"
p32
tp33
Rp34
ag17
(g10
S'\xe1p1\xed\x06v+@'
p35
tp36
Rp37
aa(lp38
g17
(g10
S'6\xf2$2\xdb\x17\xe1?'
p39
tp40
Rp41
ag17
(g10
S"\xd0\xdewz\xf7'\xe1?"
p42
tp43
Rp44
aatp45
.