(cnumpy.core.multiarray
_reconstruct
p0
(cnumpy
ndarray
p1
(I0
tp2
S'b'
p3
tp4
Rp5
(I1
(I4
tp6
cnumpy
dtype
p7
(S'f8'
p8
I0
I1
tp9
Rp10
(I3
S'<'
p11
NNNI-1
I-1
I0
tp12
bI00
S'\xf3\xfd\xc5b+\xf1g@g:\xb2kep\xf3>\x17\r\x96 \xfau\x17@\x82rK[\xf8\xc9\xe0?'
p13
tp14
b(lp15
(lp16
cnumpy.core.multiarray
scalar
p17
(g10
S'\xf7V\xc2\xbe;9^@'
p18
tp19
Rp20
ag17
(g10
S'5h\x15s\xdcbp@'
p21
tp22
Rp23
aa(lp24
g17
(g10
S'QH\x9eI\xca\x1dF\xbf'
p25
tp26
Rp27
ag17
(g10
S'\xf7kY\xa0\xd0TG?'
p28
tp29
Rp30
aa(lp31
g17
(g10
S'n\xda\x8aB\xa0\xb6\x8e\xc0'
p32
tp33
Rp34
ag17
(g10
S'\xa22\r+x\x14\x8f@'
p35
tp36
Rp37
aa(lp38
g17
(g10
S'1\x0e\x1b\xe1i\xc1\xde?'
p39
tp40
Rp41
ag17
(g10
S'\xec]\t\xc6;3\xe2?'
p42
tp43
Rp44
aatp45
.