(cnumpy.core.multiarray
_reconstruct
p0
(cnumpy
ndarray
p1
(I0
tp2
S'b'
p3
tp4
Rp5
(I1
(I4
tp6
cnumpy
dtype
p7
(S'f8'
p8
I0
I1
tp9
Rp10
(I3
S'<'
p11
NNNI-1
I-1
I0
tp12
bI00
S'\x86_\x0e,>\x17j@{\xffu\xae\xbc\x0c\x06?\xde{\x86%x\xed/@\x19\xcfUe[\xb8\xe0?'
p13
tp14
b(lp15
(lp16
cnumpy.core.multiarray
scalar
p17
(g10
S'P0\x05\xb1\x91\xedc@'
p18
tp19
Rp20
ag17
(g10
S'^\xc7\x8bSu p@'
p21
tp22
Rp23
aa(lp24
g17
(g10
S'\x0e\x8f|\xa6\xb4]B\xbf'
p25
tp26
Rp27
ag17
(g10
S'\xfeNK<L\x1fE?'
p28
tp29
Rp30
aa(lp31
g17
(g10
S'\xde{\x86%x\xed/@'
p32
tp33
Rp34
ag17
(g10
S'\xde{\x86%x\xed/@'
p35
tp36
Rp37
aa(lp38
g17
(g10
S'\xde)5\x93\x81=\xe0?'
p39
tp40
Rp41
ag17
(g10
S'Ttv753\xe1?'
p42
tp43
Rp44
aatp45
.