(cnumpy.core.multiarray
_reconstruct
p0
(cnumpy
ndarray
p1
(I0
tp2
S'b'
p3
tp4
Rp5
(I1
(I4
tp6
cnumpy
dtype
p7
(S'f8'
p8
I0
I1
tp9
Rp10
(I3
S'<'
p11
NNNI-1
I-1
I0
tp12
bI00
S"\x82;,hB\xb5f@\xb8/F\xb3\xb6]M?8'X|\xb1}\x04@\xf5\xb9+\x89Q\x1e\xe1?"
p13
tp14
b(lp15
(lp16
cnumpy.core.multiarray
scalar
p17
(g10
S'\xf8\x10\x90\x8d\xa1\tc@'
p18
tp19
Rp20
ag17
(g10
S'\x0cf\xc8B\xe3`j@'
p21
tp22
Rp23
aa(lp24
g17
(g10
S'CM23\xa7SM?'
p25
tp26
Rp27
ag17
(g10
S'-\x12Z3\xc6gM?'
p28
tp29
Rp30
aa(lp31
g17
(g10
S'b\xce\xf3\xe9\n\xbdX\xc0'
p32
tp33
Rp34
ag17
(g10
S'\xd6P\xb9\x01\xe6\x04Z@'
p35
tp36
Rp37
aa(lp38
g17
(g10
S'\xb9[}\xafz\x1a\xe1?'
p39
tp40
Rp41
ag17
(g10
S'1\x18\xdab("\xe1?'
p42
tp43
Rp44
aatp45
.