(cnumpy.core.multiarray
_reconstruct
p0
(cnumpy
ndarray
p1
(I0
tp2
S'b'
p3
tp4
Rp5
(I1
(I4
tp6
cnumpy
dtype
p7
(S'f8'
p8
I0
I1
tp9
Rp10
(I3
S'<'
p11
NNNI-1
I-1
I0
tp12
bI00
S'3\xab\x14\xb1\x177h@q\x14\xc6\t(y\xed>!Uv\xed\xe1\xe0\x11@e~aHC\xc0\xe0?'
p13
tp14
b(lp15
(lp16
cnumpy.core.multiarray
scalar
p17
(g10
S'\xc1\xf3\xad\xb7\\M_@'
p18
tp19
Rp20
ag17
(g10
S'C.)\x83\xc0cp@'
p21
tp22
Rp23
aa(lp24
g17
(g10
S'\x18\x10Bp\xac\x11C\xbf'
p25
tp26
Rp27
ag17
(g10
S'\xbc@\x90\xb0u\xfdC?'
p28
tp29
Rp30
aa(lp31
g17
(g10
S'\x12\xc3\xdcr\x1b\xd3r\xc0'
p32
tp33
Rp34
ag17
(g10
S'\xbcuH\x82"bs@'
p35
tp36
Rp37
aa(lp38
g17
(g10
S'\x01_\x9eMuM\xde?'
p39
tp40
Rp41
ag17
(g10
S'J\xcd\xf3\xe9\xcbY\xe2?'
p42
tp43
Rp44
aatp45
.