(cnumpy.core.multiarray
_reconstruct
p0
(cnumpy
ndarray
p1
(I0
tp2
S'b'
p3
tp4
Rp5
(I1
(I4
tp6
cnumpy
dtype
p7
(S'f8'
p8
I0
I1
tp9
Rp10
(I3
S'<'
p11
NNNI-1
I-1
I0
tp12
bI00
S'1t\xebwy\xe1d@\xe7e\xbd\x12\xd0\xf8N?\x80W\x05\xb5{\xc7g<\x8eQ)`)\xa0\xe0?'
p13
tp14
b(lp15
(lp16
cnumpy.core.multiarray
scalar
p17
(g10
S'\xfe\x1cC\x99\x11Bb@'
p18
tp19
Rp20
ag17
(g10
S'd\xcb\x93V\xe1\x80g@'
p21
tp22
Rp23
aa(lp24
g17
(g10
S'\xadR4\xf7\x1b\x82N?'
p25
tp26
Rp27
ag17
(g10
S'!yF.\x84oO?'
p28
tp29
Rp30
aa(lp31
g17
(g10
S'\x07f\xccW\x8a)~\xbf'
p32
tp33
Rp34
ag17
(g10
S'\x1ff\xccW\x8a)~?'
p35
tp36
Rp37
aa(lp38
g17
(g10
S'H_\x18\x1f\xcd\x9c\xe0?'
p39
tp40
Rp41
ag17
(g10
S'\xd4C:\xa1\x85\xa3\xe0?'
p42
tp43
Rp44
aatp45
.