(cnumpy.core.multiarray
_reconstruct
p0
(cnumpy
ndarray
p1
(I0
tp2
S'b'
p3
tp4
Rp5
(I1
(I4
tp6
cnumpy
dtype
p7
(S'f8'
p8
I0
I1
tp9
Rp10
(I3
S'<'
p11
NNNI-1
I-1
I0
tp12
bI00
S'\r]-\xd0\xd3\xf4a@q\xdd$;\xf1"j?\x9e\xf92CA\xdeC@\x01\xa0\x19q:\xcb\xe0?'
p13
tp14
b(lp15
(lp16
cnumpy.core.multiarray
scalar
p17
(g10
S'\x1bC\x1d!\x8b\x82X@'
p18
tp19
Rp20
ag17
(g10
S'\x8c\x18\xcc\x0fb\xa8g@'
p21
tp22
Rp23
aa(lp24
g17
(g10
S'>c\x97\t\xad\tS\xbf'
p25
tp26
Rp27
ag17
(g10
S'@\xb6\x8a}\\\xe5~?'
p28
tp29
Rp30
aa(lp31
g17
(g10
S'\x9e\xf92CA\xdeC@'
p32
tp33
Rp34
ag17
(g10
S'\x9e\xf92CA\xdeC@'
p35
tp36
Rp37
aa(lp38
g17
(g10
S'\xae\xee\xc9\xd50\xc4\xe0?'
p39
tp40
Rp41
ag17
(g10
S'TQi\x0cD\xd2\xe0?'
p42
tp43
Rp44
aatp45
.