(cnumpy.core.multiarray
_reconstruct
p0
(cnumpy
ndarray
p1
(I0
tp2
S'b'
p3
tp4
Rp5
(I1
(I4
tp6
cnumpy
dtype
p7
(S'f8'
p8
I0
I1
tp9
Rp10
(I3
S'<'
p11
NNNI-1
I-1
I0
tp12
bI00
S'\xe3O\xa6s\x99kn@\xdf\x02%\xf6ps\xf4>#C\xfe\xf4}$\x08@\xdcCS\x88r\xd9\xe0?'
p13
tp14
b(lp15
(lp16
cnumpy.core.multiarray
scalar
p17
(g10
S'.F:F\x10*b@'
p18
tp19
Rp20
ag17
(g10
S'\xcc,\x89P\x91Vu@'
p21
tp22
Rp23
aa(lp24
g17
(g10
S'f\xf4D\x02\xe5\xebI\xbf'
p25
tp26
Rp27
ag17
(g10
S'\x94D\xa7\x11\x1c3K?'
p28
tp29
Rp30
aa(lp31
g17
(g10
S'\xa8\xe4u:\x88!_\xc0'
p32
tp33
Rp34
ag17
(g10
S'm\xe4\xe2\x0c\xe8Q`@'
p35
tp36
Rp37
aa(lp38
g17
(g10
S'\x01#^"\xc8>\xdf?'
p39
tp40
Rp41
ag17
(g10
S'7vw\xff\x80\x13\xe2?'
p42
tp43
Rp44
aatp45
.