(cnumpy.core.multiarray
_reconstruct
p0
(cnumpy
ndarray
p1
(I0
tp2
S'b'
p3
tp4
Rp5
(I1
(I4
tp6
cnumpy
dtype
p7
(S'f8'
p8
I0
I1
tp9
Rp10
(I3
S'<'
p11
NNNI-1
I-1
I0
tp12
bI00
S'\xec\x8c\x90\x0b<}d@J\xcb\xe1=\x90\xc7y?w!{Y\xe3\xd0\xf2?t\x96\xf0s\xa8\xe5\xe0?'
p13
tp14
b(lp15
(lp16
cnumpy.core.multiarray
scalar
p17
(g10
S"\xfeZ'*\xa5gV@"
p18
tp19
Rp20
ag17
(g10
S'Yl\r\x82\xa5\xc6m@'
p21
tp22
Rp23
aa(lp24
g17
(g10
S'\\\\\xce@\xb8?g\xbf'
p25
tp26
Rp27
ag17
(g10
S'ab\x15N~\x97\x8f?'
p28
tp29
Rp30
aa(lp31
g17
(g10
S';\x1c\xc6`b\xa0+\xc0'
p32
tp33
Rp34
ag17
(g10
S'Lr\x92\x9bM*0@'
p35
tp36
Rp37
aa(lp38
g17
(g10
S'*\x14\xea3\xd9\xe0\xe0?'
p39
tp40
Rp41
ag17
(g10
S'\xbe\x18\xf7\xb3w\xea\xe0?'
p42
tp43
Rp44
aatp45
.