(cnumpy.core.multiarray
_reconstruct
p0
(cnumpy
ndarray
p1
(I0
tp2
S'b'
p3
tp4
Rp5
(I1
(I4
tp6
cnumpy
dtype
p7
(S'f8'
p8
I0
I1
tp9
Rp10
(I3
S'<'
p11
NNNI-1
I-1
I0
tp12
bI00
S'\x9dn,\xda{:c@\xf1I\xa0\xbcvTV?\xebq4\xfe\xc9\xdc\x12@B\x00 \xd5W\x01\xe1?'
p13
tp14
b(lp15
(lp16
cnumpy.core.multiarray
scalar
p17
(g10
S'\xcc\x82\xce\xf1@+Z@'
p18
tp19
Rp20
ag17
(g10
S'\xd4\x9bq;W_i@'
p21
tp22
Rp23
aa(lp24
g17
(g10
S'\xd9\xc1\xfb}kfX\xbf'
p25
tp26
Rp27
ag17
(g10
S'o\x15\xcf=\xd6Cq?'
p28
tp29
Rp30
aa(lp31
g17
(g10
S'\xf22m\xca7\xdas\xc0'
p32
tp33
Rp34
ag17
(g10
S'\x82\xd6^\x1a\x1eqt@'
p35
tp36
Rp37
aa(lp38
g17
(g10
S'w[`m\xd4\xf3\xe0?'
p39
tp40
Rp41
ag17
(g10
S'\r\xa5\xdf<\xdb\x0e\xe1?'
p42
tp43
Rp44
aatp45
.