(cnumpy.core.multiarray
_reconstruct
p0
(cnumpy
ndarray
p1
(I0
tp2
S'b'
p3
tp4
Rp5
(I1
(I4
tp6
cnumpy
dtype
p7
(S'f8'
p8
I0
I1
tp9
Rp10
(I3
S'<'
p11
NNNI-1
I-1
I0
tp12
bI00
S'ra\xbas\xb6\rc@\xa9>\x07\x96Lsu?%\x99\x05\xbb8~9@\xd6\xf3\x16(\xe4\xa1\xe0?'
p13
tp14
b(lp15
(lp16
cnumpy.core.multiarray
scalar
p17
(g10
S'\xba\xfb\xccT\x97$X@'
p18
tp19
Rp20
ag17
(g10
S'\x07E\x0e=!\tj@'
p21
tp22
Rp23
aa(lp24
g17
(g10
S'`\xfd\xbf\xcfM\x8cW\xbf'
p25
tp26
Rp27
ag17
(g10
S'U>\xffO\xd6d\x88?'
p28
tp29
Rp30
aa(lp31
g17
(g10
S'%\x99\x05\xbb8~9@'
p32
tp33
Rp34
ag17
(g10
S'%\x99\x05\xbb8~9@'
p35
tp36
Rp37
aa(lp38
g17
(g10
S'?\xdcb\xe6\xd4\x9c\xe0?'
p39
tp40
Rp41
ag17
(g10
S'm\x0b\xcbi\xf3\xa6\xe0?'
p42
tp43
Rp44
aatp45
.