(cnumpy.core.multiarray
_reconstruct
p0
(cnumpy
ndarray
p1
(I0
tp2
S'b'
p3
tp4
Rp5
(I1
(I4
tp6
cnumpy
dtype
p7
(S'f8'
p8
I0
I1
tp9
Rp10
(I3
S'<'
p11
NNNI-1
I-1
I0
tp12
bI00
S'\x11\xe7\x884gEi@\xbe\x90h&x$,?}\xbbj\xd6\xfe=\x13@b9\xdf(\xf4\xa7\xe0?'
p13
tp14
b(lp15
(lp16
cnumpy.core.multiarray
scalar
p17
(g10
S'\x14\xba5\xf0q\x15a@'
p18
tp19
Rp20
ag17
(g10
S'\x07\nn<\xae\xbap@'
p21
tp22
Rp23
aa(lp24
g17
(g10
S'yz\xf0-0iS\xbf'
p25
tp26
Rp27
ag17
(g10
S'\xa9\x9e\x8a7NrZ?'
p28
tp29
Rp30
aa(lp31
g17
(g10
S'\xc8o\xf2jk\x8cy\xc0'
p32
tp33
Rp34
ag17
(g10
S'\xa4\xc5\xa5a[&z@'
p35
tp36
Rp37
aa(lp38
g17
(g10
S'\x82\x83\xc1\x16fv\xe0?'
p39
tp40
Rp41
ag17
(g10
S'B\xef\xfc:\x82\xd9\xe0?'
p42
tp43
Rp44
aatp45
.