(cnumpy.core.multiarray
_reconstruct
p0
(cnumpy
ndarray
p1
(I0
tp2
S'b'
p3
tp4
Rp5
(I1
(I4
tp6
cnumpy
dtype
p7
(S'f8'
p8
I0
I1
tp9
Rp10
(I3
S'<'
p11
NNNI-1
I-1
I0
tp12
bI00
S'7\x0e\xf4\xd6\xb3\xe2f@\x18\xae\t\xd1\x1d\x83.?^\xba.m\xa5\xfe*@\xc1\xc6\xe2|\xc6\xa6\xe0?'
p13
tp14
b(lp15
(lp16
cnumpy.core.multiarray
scalar
p17
(g10
S'\xf03OlV\xba`@'
p18
tp19
Rp20
ag17
(g10
S'~\xe8\x98A\x11\x0bm@'
p21
tp22
Rp23
aa(lp24
g17
(g10
S'\x06,o"\xc7eO\xbf'
p25
tp26
Rp27
ag17
(g10
S'\x89\x01z\x05\xabSW?'
p28
tp29
Rp30
aa(lp31
g17
(g10
S'^\xba.m\xa5\xfe*@'
p32
tp33
Rp34
ag17
(g10
S'^\xba.m\xa5\xfe*@'
p35
tp36
Rp37
aa(lp38
g17
(g10
S'YR\x7f\xdfP|\xe0?'
p39
tp40
Rp41
ag17
(g10
S');F\x1a<\xd1\xe0?'
p42
tp43
Rp44
aatp45
.