(cnumpy.core.multiarray
_reconstruct
p0
(cnumpy
ndarray
p1
(I0
tp2
S'b'
p3
tp4
Rp5
(I1
(I4
tp6
cnumpy
dtype
p7
(S'f8'
p8
I0
I1
tp9
Rp10
(I3
S'<'
p11
NNNI-1
I-1
I0
tp12
bI00
S'\\U\x1c\xe5n\\b@\x91\xa0Q\xf6ub7?;\xa6[X\x95\x04\xb3?J\x9b=#n\xfc\xe0?'
p13
tp14
b(lp15
(lp16
cnumpy.core.multiarray
scalar
p17
(g10
S'x\x1e\xff?\xfe\x15`@'
p18
tp19
Rp20
ag17
(g10
S'@\x8c9\x8a\xdf\xa2d@'
p21
tp22
Rp23
aa(lp24
g17
(g10
S'*J\x13\x82mv&?'
p25
tp26
Rp27
ag17
(g10
S'\x06\xce\xcc\x95\xda\xc4A?'
p28
tp29
Rp30
aa(lp31
g17
(g10
S'\x88\xcf\xc30o\\\x92?'
p32
tp33
Rp34
ag17
(g10
S'J,Cr\x07\xb9\xc0?'
p35
tp36
Rp37
aa(lp38
g17
(g10
S']\xbfC\x8a\x93\xf5\xe0?'
p39
tp40
Rp41
ag17
(g10
S'7w7\xbcH\x03\xe1?'
p42
tp43
Rp44
aatp45
.