(cnumpy.core.multiarray
_reconstruct
p0
(cnumpy
ndarray
p1
(I0
tp2
S'b'
p3
tp4
Rp5
(I1
(I4
tp6
cnumpy
dtype
p7
(S'f8'
p8
I0
I1
tp9
Rp10
(I3
S'<'
p11
NNNI-1
I-1
I0
tp12
bI00
S'\r)\xd2\xe0K6g@\x96ld\x84Ls\x16?\x06j\x9e\xb4FJ5@~\x12\xccFt\xcc\xe0?'
p13
tp14
b(lp15
(lp16
cnumpy.core.multiarray
scalar
p17
(g10
S'\xb2\xbeb\xf3IK`@'
p18
tp19
Rp20
ag17
(g10
S'h\x93A\xceM!n@'
p21
tp22
Rp23
aa(lp24
g17
(g10
S'\nj\x81O\xfd8L\xbf'
p25
tp26
Rp27
ag17
(g10
S'\x98BM8\xe8\xeaP?'
p28
tp29
Rp30
aa(lp31
g17
(g10
S'\x06j\x9e\xb4FJ5@'
p32
tp33
Rp34
ag17
(g10
S'\x06j\x9e\xb4FJ5@'
p35
tp36
Rp37
aa(lp38
g17
(g10
S'\x87\xd4\xc6o\xc1g\xe0?'
p39
tp40
Rp41
ag17
(g10
S"uP\xd1\x1d'1\xe1?"
p42
tp43
Rp44
aatp45
.