(cnumpy.core.multiarray
_reconstruct
p0
(cnumpy
ndarray
p1
(I0
tp2
S'b'
p3
tp4
Rp5
(I1
(I4
tp6
cnumpy
dtype
p7
(S'f8'
p8
I0
I1
tp9
Rp10
(I3
S'<'
p11
NNNI-1
I-1
I0
tp12
bI00
S'@\xe1\xf7=\xb1da@#\xd3\xa2Yq\xbdV?zp\xc4\xbf\xa9?\xf1?L\xc0l\xc4~\xb8\xe0?'
p13
tp14
b(lp15
(lp16
cnumpy.core.multiarray
scalar
p17
(g10
S'\xe0\n%\xe7\x83\xb3Y@'
p18
tp19
Rp20
ag17
(g10
S'\x10=]\x88\xa0\xefe@'
p21
tp22
Rp23
aa(lp24
g17
(g10
S"\xea\x82]'w\xceN\xbf"
p25
tp26
Rp27
ag17
(g10
S'\xde3z#\x0fqn?'
p28
tp29
Rp30
aa(lp31
g17
(g10
S'2`\xcf\xa5\x8b\x85\x1d\xc0'
p32
tp33
Rp34
ag17
(g10
S'7\xcc\xd8B\xb0\x12#@'
p35
tp36
Rp37
aa(lp38
g17
(g10
S'Z%\xac"e\xac\xe0?'
p39
tp40
Rp41
ag17
(g10
S'>[-f\x98\xc4\xe0?'
p42
tp43
Rp44
aatp45
.