(cnumpy.core.multiarray
_reconstruct
p0
(cnumpy
ndarray
p1
(I0
tp2
S'b'
p3
tp4
Rp5
(I1
(I4
tp6
cnumpy
dtype
p7
(S'f8'
p8
I0
I1
tp9
Rp10
(I3
S'<'
p11
NNNI-1
I-1
I0
tp12
bI00
S'5x\\\x1b\x18 R@\xe7\x00\t\xd6\xdaa{?\xa8=,@S\xf3\xb2?\x01\xdc\xbb!\xb2\xc5\xe0?'
p13
tp14
b(lp15
(lp16
cnumpy.core.multiarray
scalar
p17
(g10
S'\x12\x97\x90\x00N=Q@'
p18
tp19
Rp20
ag17
(g10
S'XY(6\xe2\x02S@'
p21
tp22
Rp23
aa(lp24
g17
(g10
S'\x11;!R8a{?'
p25
tp26
Rp27
ag17
(g10
S'\xbd\xc6\xf0Y}b{?'
p28
tp29
Rp30
aa(lp31
g17
(g10
S"\xec\x8e'l\xa4l\xac?"
p32
tp33
Rp34
ag17
(g10
S'\xda\xb3DJT\xb0\xb7?'
p35
tp36
Rp37
aa(lp38
g17
(g10
S',EVA!\xc4\xe0?'
p39
tp40
Rp41
ag17
(g10
S'\xd6r!\x02C\xc7\xe0?'
p42
tp43
Rp44
aatp45
.