(cnumpy.core.multiarray
_reconstruct
p0
(cnumpy
ndarray
p1
(I0
tp2
S'b'
p3
tp4
Rp5
(I1
(I4
tp6
cnumpy
dtype
p7
(S'f8'
p8
I0
I1
tp9
Rp10
(I3
S'<'
p11
NNNI-1
I-1
I0
tp12
bI00
S'h\x84\xae\x0fnm`@ly|=HA\x81?h\x90\x95\xa0#O8@\xcb\xb1Ug \xe8\xe0?'
p13
tp14
b(lp15
(lp16
cnumpy.core.multiarray
scalar
p17
(g10
S'<\x19\xcf\x0fCkW@'
p18
tp19
Rp20
ag17
(g10
S'2|u\x97:%e@'
p21
tp22
Rp23
aa(lp24
g17
(g10
S'.\xb1\xa2\xc05\x9fe?'
p25
tp26
Rp27
ag17
(g10
S'\x8cF\xd0\n\xc3\x1a\x8d?'
p28
tp29
Rp30
aa(lp31
g17
(g10
S'h\x90\x95\xa0#O8@'
p32
tp33
Rp34
ag17
(g10
S'h\x90\x95\xa0#O8@'
p35
tp36
Rp37
aa(lp38
g17
(g10
S'\x7f5P;6\xe6\xe0?'
p39
tp40
Rp41
ag17
(g10
S'\x17.[\x93\n\xea\xe0?'
p42
tp43
Rp44
aatp45
.