(cnumpy.core.multiarray
_reconstruct
p0
(cnumpy
ndarray
p1
(I0
tp2
S'b'
p3
tp4
Rp5
(I1
(I4
tp6
cnumpy
dtype
p7
(S'f8'
p8
I0
I1
tp9
Rp10
(I3
S'<'
p11
NNNI-1
I-1
I0
tp12
bI00
S'\xd5w\x02\xad4cd@\xb7c\xf5{\xf7\x84`?0\x9bM\x96p";@\xe6\x98\xaf\xf6\xad\xfa\xe0?'
p13
tp14
b(lp15
(lp16
cnumpy.core.multiarray
scalar
p17
(g10
S'\xdc(\xad\xf91\xfd^@'
p18
tp19
Rp20
ag17
(g10
S'<[.]\xd0Gi@'
p21
tp22
Rp23
aa(lp24
g17
(g10
S'\xc0oJD4i\x06?'
p25
tp26
Rp27
ag17
(g10
S'\xd8\xcel\x13%Xp?'
p28
tp29
Rp30
aa(lp31
g17
(g10
S'0\x9bM\x96p";@'
p32
tp33
Rp34
ag17
(g10
S'0\x9bM\x96p";@'
p35
tp36
Rp37
aa(lp38
g17
(g10
S'm\x1a\xce\xf4V\xf6\xe0?'
p39
tp40
Rp41
ag17
(g10
S'_\x17\x91\xf8\x04\xff\xe0?'
p42
tp43
Rp44
aatp45
.