(cnumpy.core.multiarray
_reconstruct
p0
(cnumpy
ndarray
p1
(I0
tp2
S'b'
p3
tp4
Rp5
(I1
(I4
tp6
cnumpy
dtype
p7
(S'f8'
p8
I0
I1
tp9
Rp10
(I3
S'<'
p11
NNNI-1
I-1
I0
tp12
bI00
S'\x00\xb1\x9d/B\xd8\\@\x97BdH-k\x88?>4\x8e\xf2i:f@D\xd5\x90\x82\xa0\xc5\xe0?'
p13
tp14
b(lp15
(lp16
cnumpy.core.multiarray
scalar
p17
(g10
S'"\x19\x95x%kT@'
p18
tp19
Rp20
ag17
(g10
S'o$Ss\xaf\xa2b@'
p21
tp22
Rp23
aa(lp24
g17
(g10
S'F4\x98\x93\x82\xeeq?'
p25
tp26
Rp27
ag17
(g10
S'\x865~\xa3\x8c\xef\x93?'
p28
tp29
Rp30
aa(lp31
g17
(g10
S'>4\x8e\xf2i:f@'
p32
tp33
Rp34
ag17
(g10
S'>4\x8e\xf2i:f@'
p35
tp36
Rp37
aa(lp38
g17
(g10
S'&\xbd\x9bl\xf4\xc3\xe0?'
p39
tp40
Rp41
ag17
(g10
S'b\xed\x85\x98L\xc7\xe0?'
p42
tp43
Rp44
aatp45
.