(cnumpy.core.multiarray
_reconstruct
p0
(cnumpy
ndarray
p1
(I0
tp2
S'b'
p3
tp4
Rp5
(I1
(I4
tp6
cnumpy
dtype
p7
(S'f8'
p8
I0
I1
tp9
Rp10
(I3
S'<'
p11
NNNI-1
I-1
I0
tp12
bI00
S'\x0b!\xba\xb5\xf6Jg@\x98~\x9dp\xec%F?\xdf\xd6\x13\xbcLp2@v4I\xa0k\x03\xe1?'
p13
tp14
b(lp15
(lp16
cnumpy.core.multiarray
scalar
p17
(g10
S'KSQ\x1a\xf1\x13b@'
p18
tp19
Rp20
ag17
(g10
S'\xcb\xee"Q\xfc\x81l@'
p21
tp22
Rp23
aa(lp24
g17
(g10
S'\xe0\x93.y~\xd29\xbf'
p25
tp26
Rp27
ag17
(g10
S'\x90#\xe9\x0e\x8c\x9a\\?'
p28
tp29
Rp30
aa(lp31
g17
(g10
S'[F\x12\xbcLp2@'
p32
tp33
Rp34
ag17
(g10
S'cg\x15\xbcLp2@'
p35
tp36
Rp37
aa(lp38
g17
(g10
S'\xa6D\xda\x80o\xfa\xe0?'
p39
tp40
Rp41
ag17
(g10
S'F$\xb8\xbfg\x0c\xe1?'
p42
tp43
Rp44
aatp45
.