(cnumpy.core.multiarray
_reconstruct
p0
(cnumpy
ndarray
p1
(I0
tp2
S'b'
p3
tp4
Rp5
(I1
(I4
tp6
cnumpy
dtype
p7
(S'f8'
p8
I0
I1
tp9
Rp10
(I3
S'<'
p11
NNNI-1
I-1
I0
tp12
bI00
S'\x16&\n\x19j\xfd[@xnQ\x88U8\x8f?:J\xf0\x9d\x1f\xf8\x11@\x8ajVR\xe0 \xe1?'
p13
tp14
b(lp15
(lp16
cnumpy.core.multiarray
scalar
p17
(g10
S'\xd8[\xe2\x81\xf1\x9fR@'
p18
tp19
Rp20
ag17
(g10
S'*\xf8\x18Xq\xadb@'
p21
tp22
Rp23
aa(lp24
g17
(g10
S'lI-\x16$\xffs?'
p25
tp26
Rp27
ag17
(g10
S'\x1d\x1c\xc6\x82\x8c8\x9a?'
p28
tp29
Rp30
aa(lp31
g17
(g10
S'%\xb8w\x83\xcb\x7fg\xc0'
p32
tp33
Rp34
ag17
(g10
S'\xc9\xbcV}M\x9fh@'
p35
tp36
Rp37
aa(lp38
g17
(g10
S'\xf0_\x8bZO\x1f\xe1?'
p39
tp40
Rp41
ag17
(g10
S'$u!Jq"\xe1?'
p42
tp43
Rp44
aatp45
.