(cnumpy.core.multiarray
_reconstruct
p0
(cnumpy
ndarray
p1
(I0
tp2
S'b'
p3
tp4
Rp5
(I1
(I4
tp6
cnumpy
dtype
p7
(S'f8'
p8
I0
I1
tp9
Rp10
(I3
S'<'
p11
NNNI-1
I-1
I0
tp12
bI00
S'\n\xb27\xb8\x0e\xdde@\x15\xe6#o|od?$\xf2Ius\x86`@oDf\xf2\x92\xb6\xe0?'
p13
tp14
b(lp15
(lp16
cnumpy.core.multiarray
scalar
p17
(g10
S'\xe8s|\x84\xbc\xa4`@'
p18
tp19
Rp20
ag17
(g10
S',\xf0\xf2\xeb`\x15k@'
p21
tp22
Rp23
aa(lp24
g17
(g10
S'\x18[\xcc`<m2?'
p25
tp26
Rp27
ag17
(g10
S'd \x17\xa9\xa8Hs?'
p28
tp29
Rp30
aa(lp31
g17
(g10
S'$\xf2Ius\x86`@'
p32
tp33
Rp34
ag17
(g10
S'$\xf2Ius\x86`@'
p35
tp36
Rp37
aa(lp38
g17
(g10
S'2\xab\xbf\xf0(\xb3\xe0?'
p39
tp40
Rp41
ag17
(g10
S'\xac\xdd\x0c\xf4\xfc\xb9\xe0?'
p42
tp43
Rp44
aatp45
.