(cnumpy.core.multiarray
_reconstruct
p0
(cnumpy
ndarray
p1
(I0
tp2
S'b'
p3
tp4
Rp5
(I1
(I4
tp6
cnumpy
dtype
p7
(S'f8'
p8
I0
I1
tp9
Rp10
(I3
S'<'
p11
NNNI-1
I-1
I0
tp12
bI00
S'A\xb8\xaa\xe9Z\x91c@\xf2O\xac\xdd\x11\xf3n?j\x9d\x0c/\xb0QY@\xbdc+\xab6\xce\xe0?'
p13
tp14
b(lp15
(lp16
cnumpy.core.multiarray
scalar
p17
(g10
S'\xba\xa4\\\xa8<\xbd\\@'
p18
tp19
Rp20
ag17
(g10
S"%\x1e'\x7f\x17\xc4h@"
p21
tp22
Rp23
aa(lp24
g17
(g10
S'h\x8e\xa1+#~D?'
p25
tp26
Rp27
ag17
(g10
S'%\x1e8xMc|?'
p28
tp29
Rp30
aa(lp31
g17
(g10
S'j\x9d\x0c/\xb0QY@'
p32
tp33
Rp34
ag17
(g10
S'j\x9d\x0c/\xb0QY@'
p35
tp36
Rp37
aa(lp38
g17
(g10
S'\x06<c\x0fB\xcb\xe0?'
p39
tp40
Rp41
ag17
(g10
S't\x8b\xf3F+\xd1\xe0?'
p42
tp43
Rp44
aatp45
.