(cnumpy.core.multiarray
_reconstruct
p0
(cnumpy
ndarray
p1
(I0
tp2
S'b'
p3
tp4
Rp5
(I1
(I4
tp6
cnumpy
dtype
p7
(S'f8'
p8
I0
I1
tp9
Rp10
(I3
S'<'
p11
NNNI-1
I-1
I0
tp12
bI00
S"h'\xb3A\r\xd1h@Z\x06\x11\xd8\x92\xfa^?KqAQ9\x93K@\xbc\x88\xd5$\x82t\xe0?"
p13
tp14
b(lp15
(lp16
cnumpy.core.multiarray
scalar
p17
(g10
S'j\xd2q!\x0c\xddb@'
p18
tp19
Rp20
ag17
(g10
S'f|\xf4a\x0e\xc5n@'
p21
tp22
Rp23
aa(lp24
g17
(g10
S'\x80\x87\xbaS\xc27\xef\xbe'
p25
tp26
Rp27
ag17
(g10
S'\xe2\xc0d\x9a\xca\x19o?'
p28
tp29
Rp30
aa(lp31
g17
(g10
S'KqAQ9\x93K@'
p32
tp33
Rp34
ag17
(g10
S'KqAQ9\x93K@'
p35
tp36
Rp37
aa(lp38
g17
(g10
S'Z$\x01\xc7\x9bp\xe0?'
p39
tp40
Rp41
ag17
(g10
S'\x1e\xed\xa9\x82hx\xe0?'
p42
tp43
Rp44
aatp45
.