(cnumpy.core.multiarray
_reconstruct
p0
(cnumpy
ndarray
p1
(I0
tp2
S'b'
p3
tp4
Rp5
(I1
(I4
tp6
cnumpy
dtype
p7
(S'f8'
p8
I0
I1
tp9
Rp10
(I3
S'<'
p11
NNNI-1
I-1
I0
tp12
bI00
S'\xf1\x88\xf3i\xda\xc6_@d&\xc0_-\xb5\x8e?0\xa8\xbf @(.@l\xb1\xf6w\x8b\xc2\xe0?'
p13
tp14
b(lp15
(lp16
cnumpy.core.multiarray
scalar
p17
(g10
S'\xa9g\x16]\x0f\xa4T@'
p18
tp19
Rp20
ag17
(g10
S'\x1cUh\xbb\xd2te@'
p21
tp22
Rp23
aa(lp24
g17
(g10
S'`YF8\xe6}q?'
p25
tp26
Rp27
ag17
(g10
S'\x0c\x90\xae\xd1\xb3U\x9a?'
p28
tp29
Rp30
aa(lp31
g17
(g10
S'0\xa8\xbf @(.@'
p32
tp33
Rp34
ag17
(g10
S'0\xa8\xbf @(.@'
p35
tp36
Rp37
aa(lp38
g17
(g10
S'\xe2$:u\n\xc1\xe0?'
p39
tp40
Rp41
ag17
(g10
S'\xf6=\xb3z\x0c\xc4\xe0?'
p42
tp43
Rp44
aatp45
.