(cnumpy.core.multiarray
_reconstruct
p0
(cnumpy
ndarray
p1
(I0
tp2
S'b'
p3
tp4
Rp5
(I1
(I4
tp6
cnumpy
dtype
p7
(S'f8'
p8
I0
I1
tp9
Rp10
(I3
S'<'
p11
NNNI-1
I-1
I0
tp12
bI00
S'\x1fQ\xa6Ru\xe4g@\xea\r<V\xa7eX?\xe0\xdd\xdf\x13,\xa7\xa4?H\x04}$\x98\xcd\xe0?'
p13
tp14
b(lp15
(lp16
cnumpy.core.multiarray
scalar
p17
(g10
S'\x86\xaf\xdeCq\rc@'
p18
tp19
Rp20
ag17
(g10
S'\xb8\xf2may\xbbl@'
p21
tp22
Rp23
aa(lp24
g17
(g10
S'\xdc\x8b%hp?4?'
p25
tp26
Rp27
ag17
(g10
S'n\\7I\xb9\xdde?'
p28
tp29
Rp30
aa(lp31
g17
(g10
S'\n\xca[1\x8b\x04\x8e?'
p32
tp33
Rp34
ag17
(g10
S'\x9fd\xb4\xad\x9a\xe6\xb0?'
p35
tp36
Rp37
aa(lp38
g17
(g10
S'.\x99\x7f:&\xca\xe0?'
p39
tp40
Rp41
ag17
(g10
S'boz\x0e\n\xd1\xe0?'
p42
tp43
Rp44
aatp45
.