(cnumpy.core.multiarray
_reconstruct
p0
(cnumpy
ndarray
p1
(I0
tp2
S'b'
p3
tp4
Rp5
(I1
(I4
tp6
cnumpy
dtype
p7
(S'f8'
p8
I0
I1
tp9
Rp10
(I3
S'<'
p11
NNNI-1
I-1
I0
tp12
bI00
S'\xce"\x05\x11\xb8\xf8d@x\xec\xd2E\xe6\xc2]?]\x00#\x05Vm)@\xaep\x04\x815\xf8\xe0?'
p13
tp14
b(lp15
(lp16
cnumpy.core.multiarray
scalar
p17
(g10
S'\xb8ak\x8bN.`@'
p18
tp19
Rp20
ag17
(g10
S'\xe4\xe3\x9e\x96!\xc3i@'
p21
tp22
Rp23
aa(lp24
g17
(g10
S"\xe0x2'5\xe0\x05?"
p25
tp26
Rp27
ag17
(g10
S'\x94"6qekm?'
p28
tp29
Rp30
aa(lp31
g17
(g10
S']\x00#\x05Vm)@'
p32
tp33
Rp34
ag17
(g10
S']\x00#\x05Vm)@'
p35
tp36
Rp37
aa(lp38
g17
(g10
S'T\xd2W<\xd0\xf3\xe0?'
p39
tp40
Rp41
ag17
(g10
S'\x08\x0f\xb1\xc5\x9a\xfc\xe0?'
p42
tp43
Rp44
aatp45
.