(cnumpy.core.multiarray
_reconstruct
p0
(cnumpy
ndarray
p1
(I0
tp2
S'b'
p3
tp4
Rp5
(I1
(I4
tp6
cnumpy
dtype
p7
(S'f8'
p8
I0
I1
tp9
Rp10
(I3
S'<'
p11
NNNI-1
I-1
I0
tp12
bI00
S'\x98\xea\xc5L\x15;d@\xf98\x00\xa8\x18\xb1d?]\x04\xef,bYc@\xee1=7c\xb4\xe0?'
p13
tp14
b(lp15
(lp16
cnumpy.core.multiarray
scalar
p17
(g10
S'\x10(M"\xc8P_@'
p18
tp19
Rp20
ag17
(g10
S'(Ae\x88\xc6\xcdh@'
p21
tp22
Rp23
aa(lp24
g17
(g10
S'\x08Cz\x99\xf0=;?'
p25
tp26
Rp27
ag17
(g10
S'\xc8\x94h\x9e9\xfdr?'
p28
tp29
Rp30
aa(lp31
g17
(g10
S']\x04\xef,bYc@'
p32
tp33
Rp34
ag17
(g10
S']\x04\xef,bYc@'
p35
tp36
Rp37
aa(lp38
g17
(g10
S'\xc4m\xd7(\xee\xb0\xe0?'
p39
tp40
Rp41
ag17
(g10
S'\x18\xf6\xa2E\xd8\xb7\xe0?'
p42
tp43
Rp44
aatp45
.