(cnumpy.core.multiarray
_reconstruct
p0
(cnumpy
ndarray
p1
(I0
tp2
S'b'
p3
tp4
Rp5
(I1
(I4
tp6
cnumpy
dtype
p7
(S'f8'
p8
I0
I1
tp9
Rp10
(I3
S'<'
p11
NNNI-1
I-1
I0
tp12
bI00
S'U\xefli\x97\x01[@\x93A]k<\xaa\x91?\x0bQ\xbf\x89e\xbd\t@\xf5\xa1\xc5WM8\xe1?'
p13
tp14
b(lp15
(lp16
cnumpy.core.multiarray
scalar
p17
(g10
S'\x16\x8e+\xd9|vQ@'
p18
tp19
Rp20
ag17
(g10
S'J(\xd7\xfcXFb@'
p21
tp22
Rp23
aa(lp24
g17
(g10
S'xf9a\xca\x83u?'
p25
tp26
Rp27
ag17
(g10
S'\x88)l>\x86\xf3\x9d?'
p28
tp29
Rp30
aa(lp31
g17
(g10
S'\xc4i\xe23o\x9dQ\xc0'
p32
tp33
Rp34
ag17
(g10
S'\xd4^~\x8cE9S@'
p35
tp36
Rp37
aa(lp38
g17
(g10
S'\x1e\xbd\x0bN\xc56\xe1?'
p39
tp40
Rp41
ag17
(g10
S'\xcc\x86\x7fa\xd59\xe1?'
p42
tp43
Rp44
aatp45
.