(cnumpy.core.multiarray
_reconstruct
p0
(cnumpy
ndarray
p1
(I0
tp2
S'b'
p3
tp4
Rp5
(I1
(I4
tp6
cnumpy
dtype
p7
(S'f8'
p8
I0
I1
tp9
Rp10
(I3
S'<'
p11
NNNI-1
I-1
I0
tp12
bI00
S'\xba[6\xc3OYb@\x9a\xa4\xd7\x9bhfe?\x0c\xbe\x06\xf1\x83u\x07@w\x9a&n\xd4\xc8\xe0?'
p13
tp14
b(lp15
(lp16
cnumpy.core.multiarray
scalar
p17
(g10
S'\xf6\x079p:\x97\\@'
p18
tp19
Rp20
ag17
(g10
S'y3PN\x02gf@'
p21
tp22
Rp23
aa(lp24
g17
(g10
S'\xbc#\x13:2\xc7@?'
p25
tp26
Rp27
ag17
(g10
S'"@\x95T\x82Ms?'
p28
tp29
Rp30
aa(lp31
g17
(g10
S'\xc2,\x172\x02\xb6P\xc0'
p32
tp33
Rp34
ag17
(g10
S"\xa2\x98'qZ-R@"
p35
tp36
Rp37
aa(lp38
g17
(g10
S'\xd3#\x9b\x08=\xc5\xe0?'
p39
tp40
Rp41
ag17
(g10
S'\x1b\x11\xb2\xd3k\xcc\xe0?'
p42
tp43
Rp44
aatp45
.