(cnumpy.core.multiarray
_reconstruct
p0
(cnumpy
ndarray
p1
(I0
tp2
S'b'
p3
tp4
Rp5
(I1
(I4
tp6
cnumpy
dtype
p7
(S'f8'
p8
I0
I1
tp9
Rp10
(I3
S'<'
p11
NNNI-1
I-1
I0
tp12
bI00
S"\xc7V\xa7G\x01'd@wAv\xe2vg|?$8\xdc@\xe7\x98c@\xe7\x95e\x0cx\xab\xe0?"
p13
tp14
b(lp15
(lp16
cnumpy.core.multiarray
scalar
p17
(g10
S'\xcc\xf4WfRt[@'
p18
tp19
Rp20
ag17
(g10
S'(\xb3"\\\xd9\x93j@'
p21
tp22
Rp23
aa(lp24
g17
(g10
S'\x84\xbai\xe3!\x9cU?'
p25
tp26
Rp27
ag17
(g10
S'&\n\t\xa6\xf2\xb3\x89?'
p28
tp29
Rp30
aa(lp31
g17
(g10
S'$8\xdc@\xe7\x98c@'
p32
tp33
Rp34
ag17
(g10
S'$8\xdc@\xe7\x98c@'
p35
tp36
Rp37
aa(lp38
g17
(g10
S'!\xd7N\x10e\xa9\xe0?'
p39
tp40
Rp41
ag17
(g10
S'\xadT|\x08\x8b\xad\xe0?'
p42
tp43
Rp44
aatp45
.