(cnumpy.core.multiarray
_reconstruct
p0
(cnumpy
ndarray
p1
(I0
tp2
S'b'
p3
tp4
Rp5
(I1
(I4
tp6
cnumpy
dtype
p7
(S'f8'
p8
I0
I1
tp9
Rp10
(I3
S'<'
p11
NNNI-1
I-1
I0
tp12
bI00
S"v\r\xb4]\xba\x8ch@4\x9f\x07\x9a\x01Yb?\xa6+>\xd2GGY@'\xa5\xc2F\xfd\xca\xe0?"
p13
tp14
b(lp15
(lp16
cnumpy.core.multiarray
scalar
p17
(g10
S'J\x94\n z\xf6a@'
p18
tp19
Rp20
ag17
(g10
S'\xa2\x86]\x9b\xfa"o@'
p21
tp22
Rp23
aa(lp24
g17
(g10
S'\x80\x82\xa8\xfa7n\x1a\xbf'
p25
tp26
Rp27
ag17
(g10
S'>A\xf2y\xba\xc2r?'
p28
tp29
Rp30
aa(lp31
g17
(g10
S'\xa6+>\xd2GGY@'
p32
tp33
Rp34
ag17
(g10
S'\xa6+>\xd2GGY@'
p35
tp36
Rp37
aa(lp38
g17
(g10
S'\xcb\xab\x07|B\xc7\xe0?'
p39
tp40
Rp41
ag17
(g10
S'\x83\x9e}\x11\xb8\xce\xe0?'
p42
tp43
Rp44
aatp45
.