(cnumpy.core.multiarray
_reconstruct
p0
(cnumpy
ndarray
p1
(I0
tp2
S'b'
p3
tp4
Rp5
(I1
(I4
tp6
cnumpy
dtype
p7
(S'f8'
p8
I0
I1
tp9
Rp10
(I3
S'<'
p11
NNNI-1
I-1
I0
tp12
bI00
S'\x14M\x8aA\xb8\x81g@.f\xde\t\x9exi?r\xa2\xd2\xfb\x00\xeeA@\x7f\x90\xdfIG\xda\xe0?'
p13
tp14
b(lp15
(lp16
cnumpy.core.multiarray
scalar
p17
(g10
S'Q\x169\x1f>\xbd`@'
p18
tp19
Rp20
ag17
(g10
S'\xd7\x83\xdbc2Fn@'
p21
tp22
Rp23
aa(lp24
g17
(g10
S'`\xf7M#q\x17\x13?'
p25
tp26
Rp27
ag17
(g10
S'P.QE@,y?'
p28
tp29
Rp30
aa(lp31
g17
(g10
S'3\xde\xd1\xfb\x00\xeeA@'
p32
tp33
Rp34
ag17
(g10
S'\xb1f\xd3\xfb\x00\xeeA@'
p35
tp36
Rp37
aa(lp38
g17
(g10
S'ia\xff\x19#\xd7\xe0?'
p39
tp40
Rp41
ag17
(g10
S'\x95\xbf\xbfyk\xdd\xe0?'
p42
tp43
Rp44
aatp45
.