(cnumpy.core.multiarray
_reconstruct
p0
(cnumpy
ndarray
p1
(I0
tp2
S'b'
p3
tp4
Rp5
(I1
(I4
tp6
cnumpy
dtype
p7
(S'f8'
p8
I0
I1
tp9
Rp10
(I3
S'<'
p11
NNNI-1
I-1
I0
tp12
bI00
S'1\x8bZX\x13\xfee@C4gT\x8dZh?|\xfaNM\x89\x1c3@_<Jln\xd9\xe0?'
p13
tp14
b(lp15
(lp16
cnumpy.core.multiarray
scalar
p17
(g10
S'\t\xc3+\x88[\x9ac@'
p18
tp19
Rp20
ag17
(g10
S'YS\x89(\xcbah@'
p21
tp22
Rp23
aa(lp24
g17
(g10
S'(\x9d\n\xab\x1fog?'
p25
tp26
Rp27
ag17
(g10
S'^\xcb\xc3\xfd\xfaEi?'
p28
tp29
Rp30
aa(lp31
g17
(g10
S'|\xfaNM\x89\x1c3@'
p32
tp33
Rp34
ag17
(g10
S'|\xfaNM\x89\x1c3@'
p35
tp36
Rp37
aa(lp38
g17
(g10
S'i@\xbfR\x17\xd8\xe0?'
p39
tp40
Rp41
ag17
(g10
S'U8\xd5\x85\xc5\xda\xe0?'
p42
tp43
Rp44
aatp45
.