(cnumpy.core.multiarray
_reconstruct
p0
(cnumpy
ndarray
p1
(I0
tp2
S'b'
p3
tp4
Rp5
(I1
(I4
tp6
cnumpy
dtype
p7
(S'f8'
p8
I0
I1
tp9
Rp10
(I3
S'<'
p11
NNNI-1
I-1
I0
tp12
bI00
S'Ys\xb8\xeb2Gf@\xba\xe8\xe7\xc8\xfe\xd7o?<\xfdP\x9e2\xb1b@\xb1\xa4\xa6\xb7Bc\xe0?'
p13
tp14
b(lp15
(lp16
cnumpy.core.multiarray
scalar
p17
(g10
S"\xf4u'\xe0\x1bg`@"
p18
tp19
Rp20
ag17
(g10
S"\xbepI\xf7I'l@"
p21
tp22
Rp23
aa(lp24
g17
(g10
S'<Z\x8f\xd1\x11\xf8F?'
p25
tp26
Rp27
ag17
(g10
S'r\xfd\xb5\x8e\xfc\xf8|?'
p28
tp29
Rp30
aa(lp31
g17
(g10
S'G\xe9P\x9e2\xb1b@'
p32
tp33
Rp34
ag17
(g10
S'1\x11Q\x9e2\xb1b@'
p35
tp36
Rp37
aa(lp38
g17
(g10
S'#\xaf \xfb\xac`\xe0?'
p39
tp40
Rp41
ag17
(g10
S'?\x9a,t\xd8e\xe0?'
p42
tp43
Rp44
aatp45
.