(cnumpy.core.multiarray
_reconstruct
p0
(cnumpy
ndarray
p1
(I0
tp2
S'b'
p3
tp4
Rp5
(I1
(I4
tp6
cnumpy
dtype
p7
(S'f8'
p8
I0
I1
tp9
Rp10
(I3
S'<'
p11
NNNI-1
I-1
I0
tp12
bI00
S'U\xef\x8f\xde\xb1,k@\x1eX\xa9\x1b\x9e\xa0L?\x98\x93\x8e(\x92z\xc1?R`\xf1\xe8\x91l\xe0?'
p13
tp14
b(lp15
(lp16
cnumpy.core.multiarray
scalar
p17
(g10
S'0\tf\xb5\t\xb2g@'
p18
tp19
Rp20
ag17
(g10
S'z\xd5\xb9\x07Z\xa7n@'
p21
tp22
Rp23
aa(lp24
g17
(g10
S'RG\xff\x18Z\xf4J?'
p25
tp26
Rp27
ag17
(g10
S'\xeahS\x1e\xe2LN?'
p28
tp29
Rp30
aa(lp31
g17
(g10
S'@$yx\x94Ha\xbf'
p32
tp33
Rp34
ag17
(g10
S'\xe0\x85\x7fQ#\x9d\xd1?'
p35
tp36
Rp37
aa(lp38
g17
(g10
S'\xecXq\x99tj\xe0?'
p39
tp40
Rp41
ag17
(g10
S'\xb8gq8\xafn\xe0?'
p42
tp43
Rp44
aatp45
.