(cnumpy.core.multiarray
_reconstruct
p0
(cnumpy
ndarray
p1
(I0
tp2
S'b'
p3
tp4
Rp5
(I1
(I4
tp6
cnumpy
dtype
p7
(S'f8'
p8
I0
I1
tp9
Rp10
(I3
S'<'
p11
NNNI-1
I-1
I0
tp12
bI00
S'.\xd4\x03y\xb7\xb7h@f@hK&\xe2F?LBtZ<\x85O@\x0eP\xdb\x10\xef\xb7\xe0?'
p13
tp14
b(lp15
(lp16
cnumpy.core.multiarray
scalar
p17
(g10
S'\x87\xc0H\xbdZ\x85c@'
p18
tp19
Rp20
ag17
(g10
S'\xd5\xe7\xbe4\x14\xeam@'
p21
tp22
Rp23
aa(lp24
g17
(g10
S'\x94\x9c\xd0\\\xca\x145\xbf'
p25
tp26
Rp27
ag17
(g10
S"\x8bg\x9c\xe2X'\\?"
p28
tp29
Rp30
aa(lp31
g17
(g10
S'LBtZ<\x85O@'
p32
tp33
Rp34
ag17
(g10
S'LBtZ<\x85O@'
p35
tp36
Rp37
aa(lp38
g17
(g10
S'U\xd0&\x0f\x0b\xb0\xe0?'
p39
tp40
Rp41
ag17
(g10
S'\xc7\xcf\x8f\x12\xd3\xbf\xe0?'
p42
tp43
Rp44
aatp45
.