(cnumpy.core.multiarray
_reconstruct
p0
(cnumpy
ndarray
p1
(I0
tp2
S'b'
p3
tp4
Rp5
(I1
(I4
tp6
cnumpy
dtype
p7
(S'f8'
p8
I0
I1
tp9
Rp10
(I3
S'<'
p11
NNNI-1
I-1
I0
tp12
bI00
S"H-ROo\xcff@\xa4o,-\x84\x0c]?\xfc\x05\xb8Q\x84'\xb9?\xbf\xd9\xd33\xd8\xe7\xe0?"
p13
tp14
b(lp15
(lp16
cnumpy.core.multiarray
scalar
p17
(g10
S'\xd6-\xf259\x1cd@'
p18
tp19
Rp20
ag17
(g10
S'\xba,\xb2h\xa5\x82i@'
p21
tp22
Rp23
aa(lp24
g17
(g10
S'\xfbi@S.w\\?'
p25
tp26
Rp27
ag17
(g10
S'Mu\x18\x07\xda\xa1]?'
p28
tp29
Rp30
aa(lp31
g17
(g10
S'\xd0 \x87\x81:\xafu?'
p32
tp33
Rp34
ag17
(g10
S'\xf6\xcc\xab}\nz\xc8?'
p35
tp36
Rp37
aa(lp38
g17
(g10
S'a\xd9y)#\xe6\xe0?'
p39
tp40
Rp41
ag17
(g10
S'\x1d\xda->\x8d\xe9\xe0?'
p42
tp43
Rp44
aatp45
.