(cnumpy.core.multiarray
_reconstruct
p0
(cnumpy
ndarray
p1
(I0
tp2
S'b'
p3
tp4
Rp5
(I1
(I4
tp6
cnumpy
dtype
p7
(S'f8'
p8
I0
I1
tp9
Rp10
(I3
S'<'
p11
NNNI-1
I-1
I0
tp12
bI00
S'>\xbe{o8\xe7l@\x89\xda\x83\xc2\xb0\x14`?\x00l:\x12F#i>0Qf\x9f\xe7\xd6\xe0?'
p13
tp14
b(lp15
(lp16
cnumpy.core.multiarray
scalar
p17
(g10
S'x*) \x1b\xfch@'
p18
tp19
Rp20
ag17
(g10
S'\x02)g\xdf*ip@'
p21
tp22
Rp23
aa(lp24
g17
(g10
S'B\xaf\x8a\x16\x12\xe7_?'
p25
tp26
Rp27
ag17
(g10
S'q]\xc2y\xd85`?'
p28
tp29
Rp30
aa(lp31
g17
(g10
S"Z'W\xbaA\x1d\x83\xbf"
p32
tp33
Rp34
ag17
(g10
S'x0\xfaKN\x1d\x83?'
p35
tp36
Rp37
aa(lp38
g17
(g10
S'\x11\x04\xc2\x8bg\xd5\xe0?'
p39
tp40
Rp41
ag17
(g10
S'O\x9e\n\xb3g\xd8\xe0?'
p42
tp43
Rp44
aatp45
.