(cnumpy.core.multiarray
_reconstruct
p0
(cnumpy
ndarray
p1
(I0
tp2
S'b'
p3
tp4
Rp5
(I1
(I4
tp6
cnumpy
dtype
p7
(S'f8'
p8
I0
I1
tp9
Rp10
(I3
S'<'
p11
NNNI-1
I-1
I0
tp12
bI00
S'*\xf0\x95\xbea\xb3d@7\x06zst\xbfk?\xe4Z*>E9d@\xc6\xe5\x93eq\xcd\xe0?'
p13
tp14
b(lp15
(lp16
cnumpy.core.multiarray
scalar
p17
(g10
S'd\x82\x1a\x14\xd2\xdc^@'
p18
tp19
Rp20
ag17
(g10
S'"\x9f\x1esZ\xf8i@'
p21
tp22
Rp23
aa(lp24
g17
(g10
S'\xa4\xf8\xe3L)dB?'
p25
tp26
Rp27
ag17
(g10
S'"\x87\xddI\xefry?'
p28
tp29
Rp30
aa(lp31
g17
(g10
S'\xe4Z*>E9d@'
p32
tp33
Rp34
ag17
(g10
S'\xe4Z*>E9d@'
p35
tp36
Rp37
aa(lp38
g17
(g10
S'\x08K\x8d\xc0\x80\xca\xe0?'
p39
tp40
Rp41
ag17
(g10
S'\x84\x80\x9a\nb\xd0\xe0?'
p42
tp43
Rp44
aatp45
.