(cnumpy.core.multiarray
_reconstruct
p0
(cnumpy
ndarray
p1
(I0
tp2
S'b'
p3
tp4
Rp5
(I1
(I4
tp6
cnumpy
dtype
p7
(S'f8'
p8
I0
I1
tp9
Rp10
(I3
S'<'
p11
NNNI-1
I-1
I0
tp12
bI00
S'd\xf4\xb1R\xd0Lg@G\xc6\x83\x19Y\xbb9?\xbf*p\x80"}\x94?))\xc5\x88B|\xe0?'
p13
tp14
b(lp15
(lp16
cnumpy.core.multiarray
scalar
p17
(g10
S'\xd21D\xc9\xc7ie@'
p18
tp19
Rp20
ag17
(g10
S'\xf6\xb6\x1f\xdc\xd8/i@'
p21
tp22
Rp23
aa(lp24
g17
(g10
S'\xe4\x9d2\xec\xeaF9?'
p25
tp26
Rp27
ag17
(g10
S'\xaa\xee\xd4F\xc7/:?'
p28
tp29
Rp30
aa(lp31
g17
(g10
S'4A\x1f\x95\xec\xfd\x84?'
p32
tp33
Rp34
ag17
(g10
S'\xe4\xb4P\xb6N{\x9e?'
p35
tp36
Rp37
aa(lp38
g17
(g10
S"\xb5F'L-z\xe0?"
p39
tp40
Rp41
ag17
(g10
S'\x9d\x0bc\xc5W~\xe0?'
p42
tp43
Rp44
aatp45
.