(cnumpy.core.multiarray
_reconstruct
p0
(cnumpy
ndarray
p1
(I0
tp2
S'b'
p3
tp4
Rp5
(I1
(I4
tp6
cnumpy
dtype
p7
(S'f8'
p8
I0
I1
tp9
Rp10
(I3
S'<'
p11
NNNI-1
I-1
I0
tp12
bI00
S'\x15\xb4\r\xf5\x1d\x13e@lD\xebn#\xfap?-<\x04g>\xa6d@\xcf\xc3~\xf5H\xd5\xe0?'
p13
tp14
b(lp15
(lp16
cnumpy.core.multiarray
scalar
p17
(g10
S'\xae\x1btOi\xc2]@'
p18
tp19
Rp20
ag17
(g10
S'SZaB\x07Ek@'
p21
tp22
Rp23
aa(lp24
g17
(g10
S'h\x10\xd65\xd7e=?'
p25
tp26
Rp27
ag17
(g10
S'\xe9\x93<\xb5\xf4\x0e\x80?'
p28
tp29
Rp30
aa(lp31
g17
(g10
S'-<\x04g>\xa6d@'
p32
tp33
Rp34
ag17
(g10
S'-<\x04g>\xa6d@'
p35
tp36
Rp37
aa(lp38
g17
(g10
S'\xcc\xd6\xb2\xf5{\xd2\xe0?'
p39
tp40
Rp41
ag17
(g10
S'\xd2\xb0J\xf5\x15\xd8\xe0?'
p42
tp43
Rp44
aatp45
.