(cnumpy.core.multiarray
_reconstruct
p0
(cnumpy
ndarray
p1
(I0
tp2
S'b'
p3
tp4
Rp5
(I1
(I4
tp6
cnumpy
dtype
p7
(S'f8'
p8
I0
I1
tp9
Rp10
(I3
S'<'
p11
NNNI-1
I-1
I0
tp12
bI00
S'\x9a<\x14\x982\xf2m@\x89?\x8f\xc2\x0b\xb4=?F>\xb0S$W\x03@\xdc\x00+<\xc9\xf9\xe0?'
p13
tp14
b(lp15
(lp16
cnumpy.core.multiarray
scalar
p17
(g10
S'6u\x0e\xe7|\x9aa@'
p18
tp19
Rp20
ag17
(g10
S'\xff\x01\x8d$\xf4$u@'
p21
tp22
Rp23
aa(lp24
g17
(g10
S'\x08+ \xfb0jR\xbf'
p25
tp26
Rp27
ag17
(g10
S'f\xe53n\x1b\xa2`?'
p28
tp29
Rp30
aa(lp31
g17
(g10
S'M\x96\x9a\x16eEU\xc0'
p32
tp33
Rp34
ag17
(g10
S'1\x9a\xd5[\xd7zV@'
p35
tp36
Rp37
aa(lp38
g17
(g10
S'\x1b\x15\xdaR%\xe9\xe0?'
p39
tp40
Rp41
ag17
(g10
S'\x9d\xec{%m\n\xe1?'
p42
tp43
Rp44
aatp45
.