(cnumpy.core.multiarray
_reconstruct
p0
(cnumpy
ndarray
p1
(I0
tp2
S'b'
p3
tp4
Rp5
(I1
(I4
tp6
cnumpy
dtype
p7
(S'f8'
p8
I0
I1
tp9
Rp10
(I3
S'<'
p11
NNNI-1
I-1
I0
tp12
bI00
S'\xce[+,9\xfcV@\xc6\xc4s00h\x92?\x94qa\x86\xf5\xe9+@lF\xc5\xc2\\\xb6\xe0?'
p13
tp14
b(lp15
(lp16
cnumpy.core.multiarray
scalar
p17
(g10
S'\x97\xef~\x0f\x06\xfaL@'
p18
tp19
Rp20
ag17
(g10
S'\xd0?\x97Po{_@'
p21
tp22
Rp23
aa(lp24
g17
(g10
S'&5N\xb8+\x02p?'
p25
tp26
Rp27
ag17
(g10
S'!\xfei\xb9\xeag\xa0?'
p28
tp29
Rp30
aa(lp31
g17
(g10
S'\x94qa\x86\xf5\xe9+@'
p32
tp33
Rp34
ag17
(g10
S'\x94qa\x86\xf5\xe9+@'
p35
tp36
Rp37
aa(lp38
g17
(g10
S'8AP9\x0e\xb4\xe0?'
p39
tp40
Rp41
ag17
(g10
S'\xa0K:L\xab\xb8\xe0?'
p42
tp43
Rp44
aatp45
.