(cnumpy.core.multiarray
_reconstruct
p0
(cnumpy
ndarray
p1
(I0
tp2
S'b'
p3
tp4
Rp5
(I1
(I4
tp6
cnumpy
dtype
p7
(S'f8'
p8
I0
I1
tp9
Rp10
(I3
S'<'
p11
NNNI-1
I-1
I0
tp12
bI00
S"k=\x0e\xf1N1h@6\x0b'\xf3\xecX\xf7>\\\x9b~=\xed\xc4\xf9?;\x8d<&\x1f\x7f\xe0?"
p13
tp14
b(lp15
(lp16
cnumpy.core.multiarray
scalar
p17
(g10
S'\xae~\xf9P_Gc@'
p18
tp19
Rp20
ag17
(g10
S'(\xfc"\x91>\x1bm@'
p21
tp22
Rp23
aa(lp24
g17
(g10
S'\x03\xaatP\xb7h.\xbf'
p25
tp26
Rp27
ag17
(g10
S'h6\x9fFy\x1f2?'
p28
tp29
Rp30
aa(lp31
g17
(g10
S'\xfe\xa7-\xbfZ\xd9/\xc0'
p32
tp33
Rp34
ag17
(g10
S'k\xa7F\x07K%3@'
p35
tp36
Rp37
aa(lp38
g17
(g10
S'c<\xa5\xd7p\x14\xe0?'
p39
tp40
Rp41
ag17
(g10
S'\x13\xde\xd3t\xcd\xe9\xe0?'
p42
tp43
Rp44
aatp45
.