(cnumpy.core.multiarray
_reconstruct
p0
(cnumpy
ndarray
p1
(I0
tp2
S'b'
p3
tp4
Rp5
(I1
(I4
tp6
cnumpy
dtype
p7
(S'f8'
p8
I0
I1
tp9
Rp10
(I3
S'<'
p11
NNNI-1
I-1
I0
tp12
bI00
S'-C:X[\xb5m@\x14\xb6\xea\nR\xcbr?<AD\x9d5\xca\x10@\xd6%B\xbc]\xa2\xe0?'
p13
tp14
b(lp15
(lp16
cnumpy.core.multiarray
scalar
p17
(g10
S'/\xbbl\xa3<$]@'
p18
tp19
Rp20
ag17
(g10
S'a\x14_/Llv@'
p21
tp22
Rp23
aa(lp24
g17
(g10
S'\x08=\x93\xef\x10\x87e\xbf'
p25
tp26
Rp27
ag17
(g10
S'V\x85\xcfF\x16-\x88?'
p28
tp29
Rp30
aa(lp31
g17
(g10
S'$\x88\xba\xaf1\xd9q\xc0'
p32
tp33
Rp34
ag17
(g10
S'.\xaa\xa4\\\x83_r@'
p35
tp36
Rp37
aa(lp38
g17
(g10
S'<N\xa4\xeb\xde\x9e\xe0?'
p39
tp40
Rp41
ag17
(g10
S'p\xfd\xdf\x8c\xdc\xa5\xe0?'
p42
tp43
Rp44
aatp45
.