(cnumpy.core.multiarray
_reconstruct
p0
(cnumpy
ndarray
p1
(I0
tp2
S'b'
p3
tp4
Rp5
(I1
(I4
tp6
cnumpy
dtype
p7
(S'f8'
p8
I0
I1
tp9
Rp10
(I3
S'<'
p11
NNNI-1
I-1
I0
tp12
bI00
S'&\x14\x96\xa2-CS@U\x18a*\x1bms?\x7fG\xec#\xd8\x1aw?\xad^}Qus\xe0?'
p13
tp14
b(lp15
(lp16
cnumpy.core.multiarray
scalar
p17
(g10
S'\x99T\xe0\xab2vR@'
p18
tp19
Rp20
ag17
(g10
S'\xb3\xd3K\x99(\x10T@'
p21
tp22
Rp23
aa(lp24
g17
(g10
S'\x05A\x04\xf9\xc6\x85q?'
p25
tp26
Rp27
ag17
(g10
S'\xa5\xef\xbd[oTu?'
p28
tp29
Rp30
aa(lp31
g17
(g10
S'\xfe\xa6\xb8\xbbe\xa5e?'
p32
tp33
Rp34
ag17
(g10
S'\xc0\x1d\xfe\xb4~\xb1\x81?'
p35
tp36
Rp37
aa(lp38
g17
(g10
S'7U=D\xbar\xe0?'
p39
tp40
Rp41
ag17
(g10
S'#h\xbd^0t\xe0?'
p42
tp43
Rp44
aatp45
.