(cnumpy.core.multiarray
_reconstruct
p0
(cnumpy
ndarray
p1
(I0
tp2
S'b'
p3
tp4
Rp5
(I1
(I4
tp6
cnumpy
dtype
p7
(S'f8'
p8
I0
I1
tp9
Rp10
(I3
S'<'
p11
NNNI-1
I-1
I0
tp12
bI00
S'\xf8\xc0&\n8\xaaa@\xb16\xa6;Vzt?]LK\\#\x94\xa7?\xec\x84\xc5<\xa8\xc0\xe0?'
p13
tp14
b(lp15
(lp16
cnumpy.core.multiarray
scalar
p17
(g10
S'\x1e\x19dw"\r`@'
p18
tp19
Rp20
ag17
(g10
S'\xd2h\xe9\x9cMGc@'
p21
tp22
Rp23
aa(lp24
g17
(g10
S'\xfe\xc24\x1a\x02to?'
p25
tp26
Rp27
ag17
(g10
S'\xe3\x0b2j\xab:y?'
p28
tp29
Rp30
aa(lp31
g17
(g10
S'\x8b4\xc9\x0c\x8f|\x9e?'
p32
tp33
Rp34
ag17
(g10
S't\xfe12\xff\xe9\xaf?'
p35
tp36
Rp37
aa(lp38
g17
(g10
S'\x8f\xf0!\xd1\xd3\xbf\xe0?'
p39
tp40
Rp41
ag17
(g10
S'I\x19i\xa8|\xc1\xe0?'
p42
tp43
Rp44
aatp45
.