(cnumpy.core.multiarray
_reconstruct
p0
(cnumpy
ndarray
p1
(I0
tp2
S'b'
p3
tp4
Rp5
(I1
(I4
tp6
cnumpy
dtype
p7
(S'f8'
p8
I0
I1
tp9
Rp10
(I3
S'<'
p11
NNNI-1
I-1
I0
tp12
bI00
S"A\xa10h\xef*Z@2\x05\xa7\xab\x86'z?2\xf7\xb89\xbef\x93?X5~c\xc6\x9d\xe0?"
p13
tp14
b(lp15
(lp16
cnumpy.core.multiarray
scalar
p17
(g10
S'3#3#\xb5fX@'
p18
tp19
Rp20
ag17
(g10
S'O\x1f.\xad)\xef[@'
p21
tp22
Rp23
aa(lp24
g17
(g10
S'2T?\x99\x97%v?'
p25
tp26
Rp27
ag17
(g10
S'2\xb6\x0e\xbeu)~?'
p28
tp29
Rp30
aa(lp31
g17
(g10
S'YvP\xcfud\x92?'
p32
tp33
Rp34
ag17
(g10
S'\x0bx!\xa4\x06i\x94?'
p35
tp36
Rp37
aa(lp38
g17
(g10
S'\x0c\x84\xe3;\x1f\x9d\xe0?'
p39
tp40
Rp41
ag17
(g10
S'\xa4\xe6\x18\x8bm\x9e\xe0?'
p42
tp43
Rp44
aatp45
.