(cnumpy.core.multiarray
_reconstruct
p0
(cnumpy
ndarray
p1
(I0
tp2
S'b'
p3
tp4
Rp5
(I1
(I4
tp6
cnumpy
dtype
p7
(S'f8'
p8
I0
I1
tp9
Rp10
(I3
S'<'
p11
NNNI-1
I-1
I0
tp12
bI00
S'H\x17\xde\x89\xdcba@$:\xa2\x04%\x16u?\x00\xc0\x13\xfft\xa5\xb9=\xa1"E[/\xa0\xe0?'
p13
tp14
b(lp15
(lp16
cnumpy.core.multiarray
scalar
p17
(g10
S'Z\xdbT\xe89\x16`@'
p18
tp19
Rp20
ag17
(g10
S'6Sg+\x7f\xafb@'
p21
tp22
Rp23
aa(lp24
g17
(g10
S'XQ\xf7~\x18dq?'
p25
tp26
Rp27
ag17
(g10
S'\xf0"M\x8a1\xc8x?'
p28
tp29
Rp30
aa(lp31
g17
(g10
S'\x8a\xcf\x11Mv\x98s\xbf'
p32
tp33
Rp34
ag17
(g10
S'*~FPv\x98s?'
p35
tp36
Rp37
aa(lp38
g17
(g10
S'@\x04F\xdbo\x9f\xe0?'
p39
tp40
Rp41
ag17
(g10
S'\x02AD\xdb\xee\xa0\xe0?'
p42
tp43
Rp44
aatp45
.