(cnumpy.core.multiarray
_reconstruct
p0
(cnumpy
ndarray
p1
(I0
tp2
S'b'
p3
tp4
Rp5
(I1
(I4
tp6
cnumpy
dtype
p7
(S'f8'
p8
I0
I1
tp9
Rp10
(I3
S'<'
p11
NNNI-1
I-1
I0
tp12
bI00
S'g>i\xc5\x19\xc4P@\xe3\xcd\\&8\x96`?A\xb9\xb7\xc6\x16\x96\x85?\xb6\x95\xab*%\x90\xe0?'
p13
tp14
b(lp15
(lp16
cnumpy.core.multiarray
scalar
p17
(g10
S'yU^T\xd3JP@'
p18
tp19
Rp20
ag17
(g10
S"U't6`=Q@"
p21
tp22
Rp23
aa(lp24
g17
(g10
S'\xba\x03\x07V5L^?'
p25
tp26
Rp27
ag17
(g10
S'\xe9\x19\xb6\xa1U\x06b?'
p28
tp29
Rp30
aa(lp31
g17
(g10
S'8J\x0e.\x9b\x01\x82?'
p32
tp33
Rp34
ag17
(g10
S'J(a_\x92*\x89?'
p35
tp36
Rp37
aa(lp38
g17
(g10
S'\xbc\x95\xfb\x01\x1d\x8f\xe0?'
p39
tp40
Rp41
ag17
(g10
S'\xb0\x95[S-\x91\xe0?'
p42
tp43
Rp44
aatp45
.