(cnumpy.core.multiarray
_reconstruct
p0
(cnumpy
ndarray
p1
(I0
tp2
S'b'
p3
tp4
Rp5
(I1
(I4
tp6
cnumpy
dtype
p7
(S'f8'
p8
I0
I1
tp9
Rp10
(I3
S'<'
p11
NNNI-1
I-1
I0
tp12
bI00
S'\x8d\x11\xa6H\xb5"R@ \x94G\xf7y)r?\xe21\x19\t@?\x97?m\x18\xb3?\xa5>\xe0?'
p13
tp14
b(lp15
(lp16
cnumpy.core.multiarray
scalar
p17
(g10
S'o\x06R\xd2YjQ@'
p18
tp19
Rp20
ag17
(g10
S'\xab\x1c\xfa\xbe\x10\xdbR@'
p21
tp22
Rp23
aa(lp24
g17
(g10
S"\xa4\xca\xb2\xe5'Vp?"
p25
tp26
Rp27
ag17
(g10
S'\x9c]\xdc\x08\xcc\xfcs?'
p28
tp29
Rp30
aa(lp31
g17
(g10
S'f]:\xcd6\xe7\x92?'
p32
tp33
Rp34
ag17
(g10
S'^\x06\xf8DI\x97\x9b?'
p35
tp36
Rp37
aa(lp38
g17
(g10
S'\x91\xb7<;\xdb=\xe0?'
p39
tp40
Rp41
ag17
(g10
S'Iy)Do?\xe0?'
p42
tp43
Rp44
aatp45
.