(cnumpy.core.multiarray
_reconstruct
p0
(cnumpy
ndarray
p1
(I0
tp2
S'b'
p3
tp4
Rp5
(I1
(I4
tp6
cnumpy
dtype
p7
(S'f8'
p8
I0
I1
tp9
Rp10
(I3
S'<'
p11
NNNI-1
I-1
I0
tp12
bI00
S'\xa8@_oF\xf2Q@x\xc91\x03\xeemy?\x1a\xd7\x17\xed\x01\xfb\x9d?FO\xc0\x02\x129\xe0?'
p13
tp14
b(lp15
(lp16
cnumpy.core.multiarray
scalar
p17
(g10
S';<|\x056!Q@'
p18
tp19
Rp20
ag17
(g10
S'\x15EB\xd9V\xc3R@'
p21
tp22
Rp23
aa(lp24
g17
(g10
S'\x98\xa8\x15\xb4\x1a\xbav?'
p25
tp26
Rp27
ag17
(g10
S'X\xeaMR\xc1!|?'
p28
tp29
Rp30
aa(lp31
g17
(g10
S'\x1c\xc5\xce\x11C\xab\x97?'
p32
tp33
Rp34
ag17
(g10
S'\x8ct0d`%\xa2?'
p35
tp36
Rp37
aa(lp38
g17
(g10
S'9#\xc4\xf6[8\xe0?'
p39
tp40
Rp41
ag17
(g10
S'S{\xbc\x0e\xc89\xe0?'
p42
tp43
Rp44
aatp45
.