(cnumpy.core.multiarray
_reconstruct
p0
(cnumpy
ndarray
p1
(I0
tp2
S'b'
p3
tp4
Rp5
(I1
(I4
tp6
cnumpy
dtype
p7
(S'f8'
p8
I0
I1
tp9
Rp10
(I3
S'<'
p11
NNNI-1
I-1
I0
tp12
bI00
S'\x80\xb8z\x9f\x12\xcaU@(\xce@s?\xefj?\x12\rX}d\x02\x8c?\x04\xf2\xd1\xb2Pa\xe0?'
p13
tp14
b(lp15
(lp16
cnumpy.core.multiarray
scalar
p17
(g10
S'\x90\x8a\xd2\x06T\xe0T@'
p18
tp19
Rp20
ag17
(g10
S'p\xe6"8\xd1\xb3V@'
p21
tp22
Rp23
aa(lp24
g17
(g10
S' b\xa3\x970\xe7g?'
p25
tp26
Rp27
ag17
(g10
S'0:\xdeNN\xf7m?'
p28
tp29
Rp30
aa(lp31
g17
(g10
S'~\x0e\\wFJ\x85?'
p32
tp33
Rp34
ag17
(g10
S'\xd3\x05\xaaAA]\x91?'
p35
tp36
Rp37
aa(lp38
g17
(g10
S'6\xa9\x98\xcev`\xe0?'
p39
tp40
Rp41
ag17
(g10
S'\xd2:\x0b\x97*b\xe0?'
p42
tp43
Rp44
aatp45
.