(cnumpy.core.multiarray
_reconstruct
p0
(cnumpy
ndarray
p1
(I0
tp2
S'b'
p3
tp4
Rp5
(I1
(I4
tp6
cnumpy
dtype
p7
(S'f8'
p8
I0
I1
tp9
Rp10
(I3
S'<'
p11
NNNI-1
I-1
I0
tp12
bI00
S'\xd1\xb3X|Q\x9fT@G\x02\xad\x19E\xb0o?\x85?l\x1b\x94?\x8c?\x93H\x1b\xe5+l\xe0?'
p13
tp14
b(lp15
(lp16
cnumpy.core.multiarray
scalar
p17
(g10
S'HH\xf4\xd5\xf5\xc2S@'
p18
tp19
Rp20
ag17
(g10
S'Z\x1f\xbd"\xad{U@'
p21
tp22
Rp23
aa(lp24
g17
(g10
S'\x9e\xf8y\\^Nl?'
p25
tp26
Rp27
ag17
(g10
S'\xf8\x05p\xeb\x15\x89q?'
p28
tp29
Rp30
aa(lp31
g17
(g10
S'\x92B6Fc"\x85?'
p32
tp33
Rp34
ag17
(g10
S'<\x1eQxb\xae\x91?'
p35
tp36
Rp37
aa(lp38
g17
(g10
S'\xba\xc2\xa5L`k\xe0?'
p39
tp40
Rp41
ag17
(g10
S'l\xce\x90}\xf7l\xe0?'
p42
tp43
Rp44
aatp45
.