(cnumpy.core.multiarray
_reconstruct
p0
(cnumpy
ndarray
p1
(I0
tp2
S'b'
p3
tp4
Rp5
(I1
(I4
tp6
cnumpy
dtype
p7
(S'f8'
p8
I0
I1
tp9
Rp10
(I3
S'<'
p11
NNNI-1
I-1
I0
tp12
bI00
S"%\xa9%\x90\x0e%R@<\x1f\xcf\x13|'t?FdgZ\x19^\x8b?\xd3\xfb\x9c\xdfu.\xe1?"
p13
tp14
b(lp15
(lp16
cnumpy.core.multiarray
scalar
p17
(g10
S'\xa8\x1e\xd6\xd0YQQ@'
p18
tp19
Rp20
ag17
(g10
S'\xa23uO\xc3\xf8R@'
p21
tp22
Rp23
aa(lp24
g17
(g10
S'\xcf\x05v[\xf4\xf2q?'
p25
tp26
Rp27
ag17
(g10
S'\xa98(\xcc\x03\\v?'
p28
tp29
Rp30
aa(lp31
g17
(g10
S'd=\x8e\x92\xdd\x19\x83?'
p32
tp33
Rp34
ag17
(g10
S'\x94E \x91*\xd1\x91?'
p35
tp36
Rp37
aa(lp38
g17
(g10
S'(q14\xac-\xe1?'
p39
tp40
Rp41
ag17
(g10
S'~\x86\x08\x8b?/\xe1?'
p42
tp43
Rp44
aatp45
.