(cnumpy.core.multiarray
_reconstruct
p0
(cnumpy
ndarray
p1
(I0
tp2
S'b'
p3
tp4
Rp5
(I1
(I4
tp6
cnumpy
dtype
p7
(S'f8'
p8
I0
I1
tp9
Rp10
(I3
S'<'
p11
NNNI-1
I-1
I0
tp12
bI00
S'\x88g\x04\xb9_\x06T@\x1cq\x81Y=wv?\x00pZ$\r{\xa0=\xbe\xdepO\xdc\xa8\xe0?'
p13
tp14
b(lp15
(lp16
cnumpy.core.multiarray
scalar
p17
(g10
S'Fa\x8c\xc45\x17S@'
p18
tp19
Rp20
ag17
(g10
S'\xcam|\xad\x89\xf5T@'
p21
tp22
Rp23
aa(lp24
g17
(g10
S'eG\n\x813\x0ct?'
p25
tp26
Rp27
ag17
(g10
S'\xd3\x9a\xf81G\xe2x?'
p28
tp29
Rp30
aa(lp31
g17
(g10
S'\xae\xfd\xa5\xe3\r\x88i\xbf'
p32
tp33
Rp34
ag17
(g10
S'R_\xb5\xe5\r\x88i?'
p35
tp36
Rp37
aa(lp38
g17
(g10
S' i[\x8f\x18\xa8\xe0?'
p39
tp40
Rp41
ag17
(g10
S'\\T\x86\x0f\xa0\xa9\xe0?'
p42
tp43
Rp44
aatp45
.