(cnumpy.core.multiarray
_reconstruct
p0
(cnumpy
ndarray
p1
(I0
tp2
S'b'
p3
tp4
Rp5
(I1
(I4
tp6
cnumpy
dtype
p7
(S'f8'
p8
I0
I1
tp9
Rp10
(I3
S'<'
p11
NNNI-1
I-1
I0
tp12
bI00
S'6\xafP\x8a\x06\x8fS@ZDuK\xc2"u?\xe0\xcb\xdd\xc9\x864\x90?\xd2Mu6\xe87\xe0?'
p13
tp14
b(lp15
(lp16
cnumpy.core.multiarray
scalar
p17
(g10
S'v:\xc3\xa4\xe4\xb4R@'
p18
tp19
Rp20
ag17
(g10
S'\xf6#\xdeo(iT@'
p21
tp22
Rp23
aa(lp24
g17
(g10
S'\xa8\xb8x\x93\xda\xefr?'
p25
tp26
Rp27
ag17
(g10
S'\x0c\xd0q\x03\xaaUw?'
p28
tp29
Rp30
aa(lp31
g17
(g10
S'l\xd7\x0f<\x8b\xe5\x87?'
p32
tp33
Rp34
ag17
(g10
S'\n\xac\xb3\xf5Gv\x94?'
p35
tp36
Rp37
aa(lp38
g17
(g10
S'|O\x82M07\xe0?'
p39
tp40
Rp41
ag17
(g10
S'(Lh\x1f\xa08\xe0?'
p42
tp43
Rp44
aatp45
.