(cnumpy.core.multiarray
_reconstruct
p0
(cnumpy
ndarray
p1
(I0
tp2
S'b'
p3
tp4
Rp5
(I1
(I4
tp6
cnumpy
dtype
p7
(S'f8'
p8
I0
I1
tp9
Rp10
(I3
S'<'
p11
NNNI-1
I-1
I0
tp12
bI00
S'Q[)F\xe3\xe8S@\x12\x96\xa8yM\x04G?\xf02a\xf0\x06^\x95?\xd3,\x0c^^\xa0\xe0?'
p13
tp14
b(lp15
(lp16
cnumpy.core.multiarray
scalar
p17
(g10
S"#'\xc6S\xcf\x86S@"
p18
tp19
Rp20
ag17
(g10
S'\x7f\x8f\x8c8\xf7JT@'
p21
tp22
Rp23
aa(lp24
g17
(g10
S'[\xf0($\xd6\xe6E?'
p25
tp26
Rp27
ag17
(g10
S'\xc9;(\xcf\xc4!H?'
p28
tp29
Rp30
aa(lp31
g17
(g10
S'\xd6\x04k\xdf\xd6\x9d\x93?'
p32
tp33
Rp34
ag17
(g10
S'\naW\x017\x1e\x97?'
p35
tp36
Rp37
aa(lp38
g17
(g10
S'F7\xe2\xf5U\x9f\xe0?'
p39
tp40
Rp41
ag17
(g10
S'`"6\xc6f\xa1\xe0?'
p42
tp43
Rp44
aatp45
.