(cnumpy.core.multiarray
_reconstruct
p0
(cnumpy
ndarray
p1
(I0
tp2
S'b'
p3
tp4
Rp5
(I1
(I4
tp6
cnumpy
dtype
p7
(S'f8'
p8
I0
I1
tp9
Rp10
(I3
S'<'
p11
NNNI-1
I-1
I0
tp12
bI00
S'\xf9\xd4\\#d\xa1R@\xbfy\xa3\x10\xdb6y?O\xcb\xa8\x80\xb1>]?\x038My\x93d\xe0?'
p13
tp14
b(lp15
(lp16
cnumpy.core.multiarray
scalar
p17
(g10
S'J\xc8k\x1e\xc9\xd2Q@'
p18
tp19
Rp20
ag17
(g10
S'\xa8\xe1M(\xffoS@'
p21
tp22
Rp23
aa(lp24
g17
(g10
S'\x80a\xfe|\xee\xd1v?'
p25
tp26
Rp27
ag17
(g10
S'\xfe\x91H\xa4\xc7\x9b{?'
p28
tp29
Rp30
aa(lp31
g17
(g10
S'\x9dc\xb5\x91J\\V\xbf'
p32
tp33
Rp34
ag17
(g10
S'\x8f\xbe\xc1dk6t?'
p35
tp36
Rp37
aa(lp38
g17
(g10
S'"\te2\xebc\xe0?'
p39
tp40
Rp41
ag17
(g10
S'\xe4f5\xc0;e\xe0?'
p42
tp43
Rp44
aatp45
.