(cnumpy.core.multiarray
_reconstruct
p0
(cnumpy
ndarray
p1
(I0
tp2
S'b'
p3
tp4
Rp5
(I1
(I4
tp6
cnumpy
dtype
p7
(S'f8'
p8
I0
I1
tp9
Rp10
(I3
S'<'
p11
NNNI-1
I-1
I0
tp12
bI00
S',\t\x07\x00\x9c\xd7Y@\xba\xebr\x837ss?\ty\x04\x1b\xd4P\x91?\x14=8f/\x9c\xe0?'
p13
tp14
b(lp15
(lp16
cnumpy.core.multiarray
scalar
p17
(g10
S'\xa0~\x9b=\xfbOX@'
p18
tp19
Rp20
ag17
(g10
S'\xb8\x93r\xc2<_[@'
p21
tp22
Rp23
aa(lp24
g17
(g10
S'@\x90\x8en`\xa1p?'
p25
tp26
Rp27
ag17
(g10
S'4GW\x98\x0eEv?'
p28
tp29
Rp30
aa(lp31
g17
(g10
S'\xac\x81\xdbC\xe7\x12\x87?'
p32
tp33
Rp34
ag17
(g10
S'<1\x1b\x944\x18\x97?'
p35
tp36
Rp37
aa(lp38
g17
(g10
S'\xcc\x12`Bk\x9b\xe0?'
p39
tp40
Rp41
ag17
(g10
S'\\g\x10\x8a\xf3\x9c\xe0?'
p42
tp43
Rp44
aatp45
.