(cnumpy.core.multiarray
_reconstruct
p0
(cnumpy
ndarray
p1
(I0
tp2
S'b'
p3
tp4
Rp5
(I1
(I4
tp6
cnumpy
dtype
p7
(S'f8'
p8
I0
I1
tp9
Rp10
(I3
S'<'
p11
NNNI-1
I-1
I0
tp12
bI00
S'\xbc\x1c8i\xcc\x1cS@}(\xd8\x997\x87s?\xb5\xb0?\x85\n\xbe\x84?I\xban<\xf2\x15\xe0?'
p13
tp14
b(lp15
(lp16
cnumpy.core.multiarray
scalar
p17
(g10
S'H,\\\x02V\\R@'
p18
tp19
Rp20
ag17
(g10
S'0\r\x14\xd0B\xddS@'
p21
tp22
Rp23
aa(lp24
g17
(g10
S'\x9a~\xb3\xee5\xb0q?'
p25
tp26
Rp27
ag17
(g10
S'`\xd2\xfcD9^u?'
p28
tp29
Rp30
aa(lp31
g17
(g10
S'v\xf4e\xad\xe7q|?'
p32
tp33
Rp34
ag17
(g10
S'/g\xcc3!C\x8b?'
p35
tp36
Rp37
aa(lp38
g17
(g10
S'n\xd8\x0b\x92<\x15\xe0?'
p39
tp40
Rp41
ag17
(g10
S'$\x9c\xd1\xe6\xa7\x16\xe0?'
p42
tp43
Rp44
aatp45
.