(cnumpy.core.multiarray
_reconstruct
p0
(cnumpy
ndarray
p1
(I0
tp2
S'b'
p3
tp4
Rp5
(I1
(I4
tp6
cnumpy
dtype
p7
(S'f8'
p8
I0
I1
tp9
Rp10
(I3
S'<'
p11
NNNI-1
I-1
I0
tp12
bI00
S'dw>\x04\xa1+U@\xbe\xc8\x01\xf9}Zm?+\x9f\xc0|o\x9ey?\x19\x87m\xa7r\x9c\xe0?'
p13
tp14
b(lp15
(lp16
cnumpy.core.multiarray
scalar
p17
(g10
S'L\xbd\x06\xa0\x8dGT@'
p18
tp19
Rp20
ag17
(g10
S'|1vh\xb4\x0fV@'
p21
tp22
Rp23
aa(lp24
g17
(g10
S'\xe0,G[T9j?'
p25
tp26
Rp27
ag17
(g10
S'N2^\xcb\xd3=p?'
p28
tp29
Rp30
aa(lp31
g17
(g10
S'\x9a\x9f\xce\x9e)wl?'
p32
tp33
Rp34
ag17
(g10
S'D\xf7\x0c\x15\xa5\x80\x82?'
p35
tp36
Rp37
aa(lp38
g17
(g10
S'v\xad5\xd1\xa2\x9b\xe0?'
p39
tp40
Rp41
ag17
(g10
S'\xbc`\xa5}B\x9d\xe0?'
p42
tp43
Rp44
aatp45
.