(cnumpy.core.multiarray
_reconstruct
p0
(cnumpy
ndarray
p1
(I0
tp2
S'b'
p3
tp4
Rp5
(I1
(I4
tp6
cnumpy
dtype
p7
(S'f8'
p8
I0
I1
tp9
Rp10
(I3
S'<'
p11
NNNI-1
I-1
I0
tp12
bI00
S'\x9a~\x1eq>\x7fT@\xe4 B\xda\x9f:t?\xa3\x10p\n\x9a\x8d\x80?\xde\x99\xa90\x0c@\xe0?'
p13
tp14
b(lp15
(lp16
cnumpy.core.multiarray
scalar
p17
(g10
S'N2\xcc\xac\xb8\x99S@'
p18
tp19
Rp20
ag17
(g10
S'\xe6\xcap5\xc4dU@'
p21
tp22
Rp23
aa(lp24
g17
(g10
S'\\\x9dG\xd3\x99$r?'
p25
tp26
Rp27
ag17
(g10
S'l\xa4<\xe1\xa5Pv?'
p28
tp29
Rp30
aa(lp31
g17
(g10
S'\xfcZ!U\xf7%s?'
p32
tp33
Rp34
ag17
(g10
S'\xc8sOj8\x88\x87?'
p35
tp36
Rp37
aa(lp38
g17
(g10
S'\x85\xf0\x1eUV?\xe0?'
p39
tp40
Rp41
ag17
(g10
S'7C4\x0c\xc2@\xe0?'
p42
tp43
Rp44
aatp45
.