(cnumpy.core.multiarray
_reconstruct
p0
(cnumpy
ndarray
p1
(I0
tp2
S'b'
p3
tp4
Rp5
(I1
(I4
tp6
cnumpy
dtype
p7
(S'f8'
p8
I0
I1
tp9
Rp10
(I3
S'<'
p11
NNNI-1
I-1
I0
tp12
bI00
S"l}\xe0e{\x81S@\xa8l\xa5\xd1\x08*s?H\xf5\xc97\xf0\xb4w?\xd6'n\x9c\xbc\x87\xe0?"
p13
tp14
b(lp15
(lp16
cnumpy.core.multiarray
scalar
p17
(g10
S'\x04sL\xea\x93\xadR@'
p18
tp19
Rp20
ag17
(g10
S'\xd4\x87t\xe1bUT@'
p21
tp22
Rp23
aa(lp24
g17
(g10
S'\xc3M\x87AZ=q?'
p25
tp26
Rp27
ag17
(g10
S'\x8d\x8b\xc3a\xb7\x16u?'
p28
tp29
Rp30
aa(lp31
g17
(g10
S'e\xc1\xfa\xcf;_f?'
p32
tp33
Rp34
ag17
(g10
S'\xefD\xcbC!\x1d\x82?'
p35
tp36
Rp37
aa(lp38
g17
(g10
S'zX^.\xff\x86\xe0?'
p39
tp40
Rp41
ag17
(g10
S'2\xf7}\nz\x88\xe0?'
p42
tp43
Rp44
aatp45
.