(cnumpy.core.multiarray
_reconstruct
p0
(cnumpy
ndarray
p1
(I0
tp2
S'b'
p3
tp4
Rp5
(I1
(I4
tp6
cnumpy
dtype
p7
(S'f8'
p8
I0
I1
tp9
Rp10
(I3
S'<'
p11
NNNI-1
I-1
I0
tp12
bI00
S'B\x1e\x1e\xf3\x0b\nV@\x1c\x0e[\xffp\xc6~?G"7\xab\x19r\x93?#\x90\xe1(\xe0\x90\xe0?'
p13
tp14
b(lp15
(lp16
cnumpy.core.multiarray
scalar
p17
(g10
S"'I\xf7\xc3l\\U@"
p18
tp19
Rp20
ag17
(g10
S']\xf3D"\xab\xb7V@'
p21
tp22
Rp23
aa(lp24
g17
(g10
S'f\xee\xd1\x95|\xc3~?'
p25
tp26
Rp27
ag17
(g10
S'\xd2-\xe4he\xc9~?'
p28
tp29
Rp30
aa(lp31
g17
(g10
S'\xf4O7\x92\x03\xf0\x88?'
p32
tp33
Rp34
ag17
(g10
S'\x94\x9cR\x8d1l\x9a?'
p35
tp36
Rp37
aa(lp38
g17
(g10
S'\xdb\xbe\x9d!c\x90\xe0?'
p39
tp40
Rp41
ag17
(g10
S'ka%0]\x91\xe0?'
p42
tp43
Rp44
aatp45
.