(cnumpy.core.multiarray
_reconstruct
p0
(cnumpy
ndarray
p1
(I0
tp2
S'b'
p3
tp4
Rp5
(I1
(I4
tp6
cnumpy
dtype
p7
(S'f8'
p8
I0
I1
tp9
Rp10
(I3
S'<'
p11
NNNI-1
I-1
I0
tp12
bI00
S'\x03\xf4\xc6\xd0\xc0\x8aa@Jd\xa4\xba1,q?\xee\x10\xf8,\x03k\x80?\x19A)*\xac\xbf\xe0?'
p13
tp14
b(lp15
(lp16
cnumpy.core.multiarray
scalar
p17
(g10
S'\xa2g+},C`@'
p18
tp19
Rp20
ag17
(g10
S'd\x80b$U\xd2b@'
p21
tp22
Rp23
aa(lp24
g17
(g10
S'd\x87\x18Gu1l?'
p25
tp26
Rp27
ag17
(g10
S'\xe2\x84\xbc\xd1\xa8?t?'
p28
tp29
Rp30
aa(lp31
g17
(g10
S':|\xa4\x0b\xab\xdde?'
p32
tp33
Rp34
ag17
(g10
S'\xce\x02\x07\x97\x9b^\x8b?'
p35
tp36
Rp37
aa(lp38
g17
(g10
S'\x82_!&\xeb\xbe\xe0?'
p39
tp40
Rp41
ag17
(g10
S'\xb0"1.m\xc0\xe0?'
p42
tp43
Rp44
aatp45
.