(cnumpy.core.multiarray
_reconstruct
p0
(cnumpy
ndarray
p1
(I0
tp2
S'b'
p3
tp4
Rp5
(I1
(I4
tp6
cnumpy
dtype
p7
(S'f8'
p8
I0
I1
tp9
Rp10
(I3
S'<'
p11
NNNI-1
I-1
I0
tp12
bI00
S'\x97\'\xa6\x92\xdeE^@\xe1\x0c\xaa\x80\x9ano?W\x8d\xf1`\xc8"\x93?\x14\xb6q\xd9\xec\xbc\xe0?'
p13
tp14
b(lp15
(lp16
cnumpy.core.multiarray
scalar
p17
(g10
S'\xd9)\xdf\x1eO-]@'
p18
tp19
Rp20
ag17
(g10
S'U%m\x06n^_@'
p21
tp22
Rp23
aa(lp24
g17
(g10
S'\xe9{I\xd17mo?'
p25
tp26
Rp27
ag17
(g10
S'\xd9\x9d\n0\xfdoo?'
p28
tp29
Rp30
aa(lp31
g17
(g10
S'\x1a\xbb\x11\xfd"u\x8a?'
p32
tp33
Rp34
ag17
(g10
S'!=ZC\xff\n\x99?'
p35
tp36
Rp37
aa(lp38
g17
(g10
S'\xf0\xaaN-\\\xbc\xe0?'
p39
tp40
Rp41
ag17
(g10
S'8\xc1\x94\x85}\xbd\xe0?'
p42
tp43
Rp44
aatp45
.