(cnumpy.core.multiarray
_reconstruct
p0
(cnumpy
ndarray
p1
(I0
tp2
S'b'
p3
tp4
Rp5
(I1
(I4
tp6
cnumpy
dtype
p7
(S'f8'
p8
I0
I1
tp9
Rp10
(I3
S'<'
p11
NNNI-1
I-1
I0
tp12
bI00
S'\x0b\x8c\x1e\x99\xdeeS@\x82_ww\x82\x02v?x1\x81\x93\xa8\xday?\xa3\xaf\x8fi\x92t\xe0?'
p13
tp14
b(lp15
(lp16
cnumpy.core.multiarray
scalar
p17
(g10
S'C\xd6\xec\xbe\xf0\x8cR@'
p18
tp19
Rp20
ag17
(g10
S'\xd3APs\xcc>T@'
p21
tp22
Rp23
aa(lp24
g17
(g10
S'\xf9K<\xf0X\xcds?'
p25
tp26
Rp27
ag17
(g10
S'\x0bs\xb2\xfe\xab7x?'
p28
tp29
Rp30
aa(lp31
g17
(g10
S'E\tf\xcaX+h?'
p32
tp33
Rp34
ag17
(g10
S"'\xaf\xe7`\xd2\xcf\x83?"
p35
tp36
Rp37
aa(lp38
g17
(g10
S'#S\xd1\x0b\xe0s\xe0?'
p39
tp40
Rp41
ag17
(g10
S'#\x0cN\xc7Du\xe0?'
p42
tp43
Rp44
aatp45
.