(cnumpy.core.multiarray
_reconstruct
p0
(cnumpy
ndarray
p1
(I0
tp2
S'b'
p3
tp4
Rp5
(I1
(I4
tp6
cnumpy
dtype
p7
(S'f8'
p8
I0
I1
tp9
Rp10
(I3
S'<'
p11
NNNI-1
I-1
I0
tp12
bI00
S"\xa0\x9fN3\xe4\xa0S@YA\x10f1\x1cy?\xfe \r'U\xdcu?O:\x9cq\xde}\xe0?"
p13
tp14
b(lp15
(lp16
cnumpy.core.multiarray
scalar
p17
(g10
S'\x0b\xbei\xa7\x13\xb1R@'
p18
tp19
Rp20
ag17
(g10
S'5\x813\xbf\xb4\x90T@'
p21
tp22
Rp23
aa(lp24
g17
(g10
S'X+\x95\t\x8frv?'
p25
tp26
Rp27
ag17
(g10
S'ZW\x8b\xc2\xd3\xc5{?'
p28
tp29
Rp30
aa(lp31
g17
(g10
S'\xfe;\xbc\x95\x8f\x97Y?'
p32
tp33
Rp34
ag17
(g10
S'~\x99U4c\xa9\x82?'
p35
tp36
Rp37
aa(lp38
g17
(g10
S'(\xdbV\xb9/}\xe0?'
p39
tp40
Rp41
ag17
(g10
S'v\x99\xe1)\x8d~\xe0?'
p42
tp43
Rp44
aatp45
.