(cnumpy.core.multiarray
_reconstruct
p0
(cnumpy
ndarray
p1
(I0
tp2
S'b'
p3
tp4
Rp5
(I1
(I4
tp6
cnumpy
dtype
p7
(S'f8'
p8
I0
I1
tp9
Rp10
(I3
S'<'
p11
NNNI-1
I-1
I0
tp12
bI00
S'\\>\x04L\x84nE@\x18tw8\xed9x?_&&\xadN\\\x91?\xe5\xb67\xba\x81\xac\xe0?'
p13
tp14
b(lp15
(lp16
cnumpy.core.multiarray
scalar
p17
(g10
S'\xde?\xaelZ\xceD@'
p18
tp19
Rp20
ag17
(g10
S'\xda<Z+\xae\x0eF@'
p21
tp22
Rp23
aa(lp24
g17
(g10
S'\xe2Q\xaf\xd0\xaa\x97v?'
p25
tp26
Rp27
ag17
(g10
S'N\x96?\xa0/\xdcy?'
p28
tp29
Rp30
aa(lp31
g17
(g10
S'\x96v|&z\x9a\x8c?'
p32
tp33
Rp34
ag17
(g10
S's\x11\x0eG`k\x94?'
p35
tp36
Rp37
aa(lp38
g17
(g10
S'\xdfX\xb9\x84\xbc\xab\xe0?'
p39
tp40
Rp41
ag17
(g10
S'\xeb\x14\xb6\xefF\xad\xe0?'
p42
tp43
Rp44
aatp45
.