(cnumpy.core.multiarray
_reconstruct
p0
(cnumpy
ndarray
p1
(I0
tp2
S'b'
p3
tp4
Rp5
(I1
(I4
tp6
cnumpy
dtype
p7
(S'f8'
p8
I0
I1
tp9
Rp10
(I3
S'<'
p11
NNNI-1
I-1
I0
tp12
bI00
S']\xe5oP\x85\xe8R@8\xa2\xba`\xb5h|?\x11q\x99m\xbc\xecx?S\xf7Bd\x8b7\xe0?'
p13
tp14
b(lp15
(lp16
cnumpy.core.multiarray
scalar
p17
(g10
S'\x11\x99Sz\xba\tR@'
p18
tp19
Rp20
ag17
(g10
S'\xa91\x8c&P\xc7S@'
p21
tp22
Rp23
aa(lp24
g17
(g10
S'\x16$\x1b\xce\xcb\x92y?'
p25
tp26
Rp27
ag17
(g10
S'Z Z\xf3\x9e>\x7f?'
p28
tp29
Rp30
aa(lp31
g17
(g10
S'\xc2\x92H0z\xf8a?'
p32
tp33
Rp34
ag17
(g10
S'`L\x87\xe1\x9dn\x84?'
p35
tp36
Rp37
aa(lp38
g17
(g10
S'.K\x1c\xe3\xe86\xe0?'
p39
tp40
Rp41
ag17
(g10
S'x\xa3i\xe5-8\xe0?'
p42
tp43
Rp44
aatp45
.