(cnumpy.core.multiarray
_reconstruct
p0
(cnumpy
ndarray
p1
(I0
tp2
S'b'
p3
tp4
Rp5
(I1
(I4
tp6
cnumpy
dtype
p7
(S'f8'
p8
I0
I1
tp9
Rp10
(I3
S'<'
p11
NNNI-1
I-1
I0
tp12
bI00
S'\xe3\xc3P\x9e\x03\xb0W@&db\n,zY?\xeb\xdeYa\x93\xfe\xa5?c\xd6\xf1$Z\x9f\xe0?'
p13
tp14
b(lp15
(lp16
cnumpy.core.multiarray
scalar
p17
(g10
S'`r5\xfc_$W@'
p18
tp19
Rp20
ag17
(g10
S'f\x15l@\xa7;X@'
p21
tp22
Rp23
aa(lp24
g17
(g10
S'04\x9a\x7f\xe1pY?'
p25
tp26
Rp27
ag17
(g10
S'\x1c\x94*\x95v\x83Y?'
p28
tp29
Rp30
aa(lp31
g17
(g10
S'yf\x0e\x04\x10-\xa3?'
p32
tp33
Rp34
ag17
(g10
S']W\xa5\xbe\x16\xd0\xa8?'
p35
tp36
Rp37
aa(lp38
g17
(g10
S'@\x06\x8c\xf6\xaa\x9e\xe0?'
p39
tp40
Rp41
ag17
(g10
S'\x86\xa6WS\t\xa0\xe0?'
p42
tp43
Rp44
aatp45
.