(cnumpy.core.multiarray
_reconstruct
p0
(cnumpy
ndarray
p1
(I0
tp2
S'b'
p3
tp4
Rp5
(I1
(I4
tp6
cnumpy
dtype
p7
(S'f8'
p8
I0
I1
tp9
Rp10
(I3
S'<'
p11
NNNI-1
I-1
I0
tp12
bI00
S'\x9f\\\xe4*o\xa2R@ON\x90\xf5\xbd\x13x?\x980=\xd8\xb5]\x85?\x81S6S\\\x87\xe0?'
p13
tp14
b(lp15
(lp16
cnumpy.core.multiarray
scalar
p17
(g10
S'\xf2Mg\xc6\x99\xc8Q@'
p18
tp19
Rp20
ag17
(g10
S'Lka\x8fD|S@'
p21
tp22
Rp23
aa(lp24
g17
(g10
S'\xec\xbb\x95\xacy\x92u?'
p25
tp26
Rp27
ag17
(g10
S'\xb2\xe0\x8a>\x02\x95z?'
p28
tp29
Rp30
aa(lp31
g17
(g10
S'rOdM\\Jz?'
p32
tp33
Rp34
ag17
(g10
S'w9\xc8\x89=\x96\x8d?'
p35
tp36
Rp37
aa(lp38
g17
(g10
S')m\x1a\xcf\xa7\x86\xe0?'
p39
tp40
Rp41
ag17
(g10
S'\xd99R\xd7\x10\x88\xe0?'
p42
tp43
Rp44
aatp45
.