(cnumpy.core.multiarray
_reconstruct
p0
(cnumpy
ndarray
p1
(I0
tp2
S'b'
p3
tp4
Rp5
(I1
(I4
tp6
cnumpy
dtype
p7
(S'f8'
p8
I0
I1
tp9
Rp10
(I3
S'<'
p11
NNNI-1
I-1
I0
tp12
bI00
S'V2\xd4\xce\x86iP@\x0f\xbbP&\xb3\xa0z?\xb1h\n?\xeb\x1e\xa1?\xe7\xe2EEg?\xe0?'
p13
tp14
b(lp15
(lp16
cnumpy.core.multiarray
scalar
p17
(g10
S'\xc6\xd7\xf33\xcciO@'
p18
tp19
Rp20
ag17
(g10
S"\xc9x\xae\x83'\x1eQ@"
p21
tp22
Rp23
aa(lp24
g17
(g10
S'\xe1\x0f\x81,\xd3\xf8w?'
p25
tp26
Rp27
ag17
(g10
S'=f  \x93H}?'
p28
tp29
Rp30
aa(lp31
g17
(g10
S'd.\x94_\xbf\xae\x9b?'
p32
tp33
Rp34
ag17
(g10
S'0\xbaJ\xcevf\xa4?'
p35
tp36
Rp37
aa(lp38
g17
(g10
S'\xf4X\xc1\n\xb2>\xe0?'
p39
tp40
Rp41
ag17
(g10
S'\xdal\xca\x7f\x1c@\xe0?'
p42
tp43
Rp44
aatp45
.