(cnumpy.core.multiarray
_reconstruct
p0
(cnumpy
ndarray
p1
(I0
tp2
S'b'
p3
tp4
Rp5
(I1
(I4
tp6
cnumpy
dtype
p7
(S'f8'
p8
I0
I1
tp9
Rp10
(I3
S'<'
p11
NNNI-1
I-1
I0
tp12
bI00
S'\xeef1F\xf4\x98`@\x87\x0e\x0b\xdcS\xafs?\x1f\xb87NoO\x98?"\x04\x96+\xe8\x95\xe0?'
p13
tp14
b(lp15
(lp16
cnumpy.core.multiarray
scalar
p17
(g10
S" \x07'hw\xb0^@"
p18
tp19
Rp20
ag17
(g10
S'LJO\xd8\xac\xd9a@'
p21
tp22
Rp23
aa(lp24
g17
(g10
S'f\xfbr\x9a\x94\xfeo?'
p25
tp26
Rp27
ag17
(g10
S'[\x9f\xdcj]_w?'
p28
tp29
Rp30
aa(lp31
g17
(g10
S'p\x9f\x15\x0fhM\x8f?'
p32
tp33
Rp34
ag17
(g10
S'CPrJ\x15|\xa0?'
p35
tp36
Rp37
aa(lp38
g17
(g10
S'\xb8\t6\xa5&\x95\xe0?'
p39
tp40
Rp41
ag17
(g10
S'\x8c\xfe\xf5\xb1\xa9\x96\xe0?'
p42
tp43
Rp44
aatp45
.