(cnumpy.core.multiarray
_reconstruct
p0
(cnumpy
ndarray
p1
(I0
tp2
S'b'
p3
tp4
Rp5
(I1
(I4
tp6
cnumpy
dtype
p7
(S'f8'
p8
I0
I1
tp9
Rp10
(I3
S'<'
p11
NNNI-1
I-1
I0
tp12
bI00
S'\x8f\xf9\x8f[\xaePS@$\xc7\xb2^RGv?\x00\x00\x80\xde\xf9<"=1\xb6\xf2\xdb+I\xe0?'
p13
tp14
b(lp15
(lp16
cnumpy.core.multiarray
scalar
p17
(g10
S'm\x92>\xecI\x84R@'
p18
tp19
Rp20
ag17
(g10
S'\xb1`\xe1\xca\x12\x1dT@'
p21
tp22
Rp23
aa(lp24
g17
(g10
S'\xb0\xf78qI&t?'
p25
tp26
Rp27
ag17
(g10
S'\x98\x96,L[hx?'
p28
tp29
Rp30
aa(lp31
g17
(g10
S'=\r|c*~f\xbf'
p32
tp33
Rp34
ag17
(g10
S'\xddT~c*~f?'
p35
tp36
Rp37
aa(lp38
g17
(g10
S'R\xc8\xcbJrH\xe0?'
p39
tp40
Rp41
ag17
(g10
S'\x10\xa4\x19m\xe5I\xe0?'
p42
tp43
Rp44
aatp45
.