(cnumpy.core.multiarray
_reconstruct
p0
(cnumpy
ndarray
p1
(I0
tp2
S'b'
p3
tp4
Rp5
(I1
(I4
tp6
cnumpy
dtype
p7
(S'f8'
p8
I0
I1
tp9
Rp10
(I3
S'<'
p11
NNNI-1
I-1
I0
tp12
bI00
S'\x81"\xcbm\x16\x7fP@\x9b\xc1F\xd8\x93\x14|?F\xa9W\xae&\xd6\x97?\x84Y\xb1:\xd3<\xe0?'
p13
tp14
b(lp15
(lp16
cnumpy.core.multiarray
scalar
p17
(g10
S'\t)l<R\x8fO@'
p18
tp19
Rp20
ag17
(g10
S'~0`\xbd\x836Q@'
p21
tp22
Rp23
aa(lp24
g17
(g10
S'\xaaV\x0e0]Ty?'
p25
tp26
Rp27
ag17
(g10
S'\x8c,\x7f\x80\xca\xd4~?'
p28
tp29
Rp30
aa(lp31
g17
(g10
S't"5O\xba[\x92?'
p32
tp33
Rp34
ag17
(g10
S'\x180z\r\x93P\x9d?'
p35
tp36
Rp37
aa(lp38
g17
(g10
S'1wb\xe5#<\xe0?'
p39
tp40
Rp41
ag17
(g10
S'\xd7;\x00\x90\x82=\xe0?'
p42
tp43
Rp44
aatp45
.