(cnumpy.core.multiarray
_reconstruct
p0
(cnumpy
ndarray
p1
(I0
tp2
S'b'
p3
tp4
Rp5
(I1
(I4
tp6
cnumpy
dtype
p7
(S'f8'
p8
I0
I1
tp9
Rp10
(I3
S'<'
p11
NNNI-1
I-1
I0
tp12
bI00
S'\xc0\x91e]\xf8\xadQ@29U;Q\xc6y?]\x06k@\xcd\xeb\x83?\xbcW-\x7f\x1b\x01\xe1?'
p13
tp14
b(lp15
(lp16
cnumpy.core.multiarray
scalar
p17
(g10
S'/\x7f\x8d!\xfd\xd4P@'
p18
tp19
Rp20
ag17
(g10
S'Q\xa4=\x99\xf3\x86R@'
p21
tp22
Rp23
aa(lp24
g17
(g10
S'2\x0c\xa0TU\x02w?'
p25
tp26
Rp27
ag17
(g10
S'2f\n"M\x8a|?'
p28
tp29
Rp30
aa(lp31
g17
(g10
S'\x8bMh\x7f\x07ov?'
p32
tp33
Rp34
ag17
(g10
S'\xf4\xe5!\xc1\x16\xa0\x8c?'
p35
tp36
Rp37
aa(lp38
g17
(g10
S'j\xa5\xf4Cc\x00\xe1?'
p39
tp40
Rp41
ag17
(g10
S'\x0e\nf\xba\xd3\x01\xe1?'
p42
tp43
Rp44
aatp45
.