(cnumpy.core.multiarray
_reconstruct
p0
(cnumpy
ndarray
p1
(I0
tp2
S'b'
p3
tp4
Rp5
(I1
(I4
tp6
cnumpy
dtype
p7
(S'f8'
p8
I0
I1
tp9
Rp10
(I3
S'<'
p11
NNNI-1
I-1
I0
tp12
bI00
S"\xc4(\xd8'I\x92S@y7\t=\xb6Kp?%\xa8f0\xb5P\x8e?\x0b\x16c\xb2\xa3\x1a\xe0?"
p13
tp14
b(lp15
(lp16
cnumpy.core.multiarray
scalar
p17
(g10
S'\x97E\xc4uX\xd1R@'
p18
tp19
Rp20
ag17
(g10
S'\xf1\x0b\xec\xd99ST@'
p21
tp22
Rp23
aa(lp24
g17
(g10
S'\x08\xe7^\x1b\ncm?'
p25
tp26
Rp27
ag17
(g10
S'n\xfbbl\xe7\xe5q?'
p28
tp29
Rp30
aa(lp31
g17
(g10
S'P\xeez\x1e*\x91\x87?'
p32
tp33
Rp34
ag17
(g10
S'\xfd0)! \x88\x92?'
p35
tp36
Rp37
aa(lp38
g17
(g10
S'\xa8C\x87\xdb\xdd\x19\xe0?'
p39
tp40
Rp41
ag17
(g10
S'n\xe8>\x89i\x1b\xe0?'
p42
tp43
Rp44
aatp45
.