(cnumpy.core.multiarray
_reconstruct
p0
(cnumpy
ndarray
p1
(I0
tp2
S'b'
p3
tp4
Rp5
(I1
(I4
tp6
cnumpy
dtype
p7
(S'f8'
p8
I0
I1
tp9
Rp10
(I3
S'<'
p11
NNNI-1
I-1
I0
tp12
bI00
S'\xfeZV\xd397Q@\xab`hS\xc1l~?\x9eibpa\x7f\x93?\xfd\xd8|\x19\xe7\xac\xe0?'
p13
tp14
b(lp15
(lp16
cnumpy.core.multiarray
scalar
p17
(g10
S'\x01\xb3iVLZP@'
p18
tp19
Rp20
ag17
(g10
S"\xfb\x02CP'\x14R@"
p21
tp22
Rp23
aa(lp24
g17
(g10
S'\xf71\x909\x18\x13{?'
p25
tp26
Rp27
ag17
(g10
S'\xafG\xa065\xe3\x80?'
p28
tp29
Rp30
aa(lp31
g17
(g10
S'\xeeu\xa1f\xdb \x8b?'
p32
tp33
Rp34
ag17
(g10
S'E\x18t-Un\x99?'
p35
tp36
Rp37
aa(lp38
g17
(g10
S'\xf1<\x9cc5\xac\xe0?'
p39
tp40
Rp41
ag17
(g10
S'\tu]\xcf\x98\xad\xe0?'
p42
tp43
Rp44
aatp45
.