(cnumpy.core.multiarray
_reconstruct
p0
(cnumpy
ndarray
p1
(I0
tp2
S'b'
p3
tp4
Rp5
(I1
(I4
tp6
cnumpy
dtype
p7
(S'f8'
p8
I0
I1
tp9
Rp10
(I3
S'<'
p11
NNNI-1
I-1
I0
tp12
bI00
S'\r\x8d\xf6}Q\xebD@o\xd1\x05q\x9b\xd0y?\xc18\xd9Y+\xd0z?\xd3\x8fGi2\xbd\xe0?'
p13
tp14
b(lp15
(lp16
cnumpy.core.multiarray
scalar
p17
(g10
S"\x0c\xc9\xfe\xb8'RD@"
p18
tp19
Rp20
ag17
(g10
S'\x0eQ\xeeB{\x84E@'
p21
tp22
Rp23
aa(lp24
g17
(g10
S'\xf5i\xa8a\xf3-x?'
p25
tp26
Rp27
ag17
(g10
S'\xe98c\x80Cs{?'
p28
tp29
Rp30
aa(lp31
g17
(g10
S'\x0b{fy\xe2-q?'
p32
tp33
Rp34
ag17
(g10
S'<\xfb%\x1d:9\x82?'
p35
tp36
Rp37
aa(lp38
g17
(g10
S']2\x93Gu\xbc\xe0?'
p39
tp40
Rp41
ag17
(g10
S'I\xed\xfb\x8a\xef\xbd\xe0?'
p42
tp43
Rp44
aatp45
.