(cnumpy.core.multiarray
_reconstruct
p0
(cnumpy
ndarray
p1
(I0
tp2
S'b'
p3
tp4
Rp5
(I1
(I4
tp6
cnumpy
dtype
p7
(S'f8'
p8
I0
I1
tp9
Rp10
(I3
S'<'
p11
NNNI-1
I-1
I0
tp12
bI00
S'?\xd6\r<skT@\x0c\x9d1\x8d\xa1\xdcq?\xa6T\x11\x8f5\x95\x82?\xd0\xb3\xea\xcf2A\xe0?'
p13
tp14
b(lp15
(lp16
cnumpy.core.multiarray
scalar
p17
(g10
S'\x15\xce\xa57\x97\x93S@'
p18
tp19
Rp20
ag17
(g10
S'i\xdeu@OCU@'
p21
tp22
Rp23
aa(lp24
g17
(g10
S'\xf9\xc3\x19n\xd7\x0fp?'
p25
tp26
Rp27
ag17
(g10
S'\x1fvI\xack\xa9s?'
p28
tp29
Rp30
aa(lp31
g17
(g10
S'\xc2\x0f*\x06;@x?'
p32
tp33
Rp34
ag17
(g10
S'k\xa1\r\x9bM\n\x89?'
p35
tp36
Rp37
aa(lp38
g17
(g10
S'\xfa\xf2\xb5yv@\xe0?'
p39
tp40
Rp41
ag17
(g10
S'\xa6t\x1f&\xefA\xe0?'
p42
tp43
Rp44
aatp45
.