(cnumpy.core.multiarray
_reconstruct
p0
(cnumpy
ndarray
p1
(I0
tp2
S'b'
p3
tp4
Rp5
(I1
(I4
tp6
cnumpy
dtype
p7
(S'f8'
p8
I0
I1
tp9
Rp10
(I3
S'<'
p11
NNNI-1
I-1
I0
tp12
bI00
S'\xe6\x88\x94Je\tU@\n\xf4\xda\x8f]=t?\x99^\x9a\x8a\x19\xb7=?\x18\xa6,\x0f{1\xe0?'
p13
tp14
b(lp15
(lp16
cnumpy.core.multiarray
scalar
p17
(g10
S'i\x1a*N\xc6%T@'
p18
tp19
Rp20
ag17
(g10
S'c\xf7\xfeF\x04\xedU@'
p21
tp22
Rp23
aa(lp24
g17
(g10
S'\x94\xb8Z\xc5\xfaIr?'
p25
tp26
Rp27
ag17
(g10
S'\x80/[Z\xc00v?'
p28
tp29
Rp30
aa(lp31
g17
(g10
S'Q(E\xaa\x08\x7fb\xbf'
p32
tp33
Rp34
ag17
(g10
S'\xf7\xbf\xeb\x0c\xcf\xeci?'
p35
tp36
Rp37
aa(lp38
g17
(g10
S'_HQy\xce0\xe0?'
p39
tp40
Rp41
ag17
(g10
S"\xd1\x03\x08\xa5'2\xe0?"
p42
tp43
Rp44
aatp45
.