(cnumpy.core.multiarray
_reconstruct
p0
(cnumpy
ndarray
p1
(I0
tp2
S'b'
p3
tp4
Rp5
(I1
(I4
tp6
cnumpy
dtype
p7
(S'f8'
p8
I0
I1
tp9
Rp10
(I3
S'<'
p11
NNNI-1
I-1
I0
tp12
bI00
S'\x87J\xff;hp`@\xc2V\x15,Y\tv?SI\x03(\x14~\x95??t\xa8J\x9b\xa3\xe0?'
p13
tp14
b(lp15
(lp16
cnumpy.core.multiarray
scalar
p17
(g10
S'\x11\xe6_\xd4.I^@'
p18
tp19
Rp20
ag17
(g10
S'\x06\xa2\xce\r9\xbca@'
p21
tp22
Rp23
aa(lp24
g17
(g10
S'p\x04\t]C\xe1q?'
p25
tp26
Rp27
ag17
(g10
S'\x14\xa9!\xfbn1z?'
p28
tp29
Rp30
aa(lp31
g17
(g10
S'"\xec\xf4\x8c\x05f\x89?'
p32
tp33
Rp34
ag17
(g10
S'\x95\x1c\x8c\x89%I\x9e?'
p35
tp36
Rp37
aa(lp38
g17
(g10
S'{\xf6``\xe0\xa2\xe0?'
p39
tp40
Rp41
ag17
(g10
S'\x03\xf2\xef4V\xa4\xe0?'
p42
tp43
Rp44
aatp45
.