(cnumpy.core.multiarray
_reconstruct
p0
(cnumpy
ndarray
p1
(I0
tp2
S'b'
p3
tp4
Rp5
(I1
(I4
tp6
cnumpy
dtype
p7
(S'f8'
p8
I0
I1
tp9
Rp10
(I3
S'<'
p11
NNNI-1
I-1
I0
tp12
bI00
S'g\xe5\x87\xd2~\xa7H@T\x9f\xc9E\xd0\xfeq?\x8eP\x16y\x07_\x87?%)w\xd9Hy\xe0?'
p13
tp14
b(lp15
(lp16
cnumpy.core.multiarray
scalar
p17
(g10
S'taql\x1c\xf6G@'
p18
tp19
Rp20
ag17
(g10
S'Zi\x9e8\xe1XI@'
p21
tp22
Rp23
aa(lp24
g17
(g10
S'yR\xccs\xfd\xc0p?'
p25
tp26
Rp27
ag17
(g10
S'/\xec\xc6\x17\xa3<s?'
p28
tp29
Rp30
aa(lp31
g17
(g10
S'-\xb3$\xceM\xb3\x82?'
p32
tp33
Rp34
ag17
(g10
S'\xef\xed\x07$\xc1\n\x8c?'
p35
tp36
Rp37
aa(lp38
g17
(g10
S'\xf07N\xc6xx\xe0?'
p39
tp40
Rp41
ag17
(g10
S'Z\x1a\xa0\xec\x18z\xe0?'
p42
tp43
Rp44
aatp45
.