(cnumpy.core.multiarray
_reconstruct
p0
(cnumpy
ndarray
p1
(I0
tp2
S'b'
p3
tp4
Rp5
(I1
(I4
tp6
cnumpy
dtype
p7
(S'f8'
p8
I0
I1
tp9
Rp10
(I3
S'<'
p11
NNNI-1
I-1
I0
tp12
bI00
S'/A\x1d\x8b\xf7&R@\xc7\xd5k\x1b\xd8{y?^\xa9\\\x11{\x11o?\xb2\xfd\xb1)|[\xe0?'
p13
tp14
b(lp15
(lp16
cnumpy.core.multiarray
scalar
p17
(g10
S'xrgh}`Q@'
p18
tp19
Rp20
ag17
(g10
S'\xe6\x0f\xd3\xadq\xedR@'
p21
tp22
Rp23
aa(lp24
g17
(g10
S'5\xa0\xb7\x1a\xf1\x15w?'
p25
tp26
Rp27
ag17
(g10
S'Y\x0b \x1c\xbf\xe1{?'
p28
tp29
Rp30
aa(lp31
g17
(g10
S'\x94\x0c[\x96\xbc\xf8@?'
p32
tp33
Rp34
ag17
(g10
S'\xccG\x91~c\xf2|?'
p35
tp36
Rp37
aa(lp38
g17
(g10
S'\xa3\xce\xfd.\xd3Z\xe0?'
p39
tp40
Rp41
ag17
(g10
S'\xc1,f$%\\\xe0?'
p42
tp43
Rp44
aatp45
.