(cnumpy.core.multiarray
_reconstruct
p0
(cnumpy
ndarray
p1
(I0
tp2
S'b'
p3
tp4
Rp5
(I1
(I4
tp6
cnumpy
dtype
p7
(S'f8'
p8
I0
I1
tp9
Rp10
(I3
S'<'
p11
NNNI-1
I-1
I0
tp12
bI00
S'!+Q0\x19\x06S@\\A\r"\xa4\x0cv?\xc3[\xe8p8t\x94?\xd2Gg\x19\xc0E\xe0?'
p13
tp14
b(lp15
(lp16
cnumpy.core.multiarray
scalar
p17
(g10
S'k9#Dn-R@'
p18
tp19
Rp20
ag17
(g10
S'\xd7\x1c\x7f\x1c\xc4\xdeS@'
p21
tp22
Rp23
aa(lp24
g17
(g10
S'\x07+\x84?\xa9\xb5s?'
p25
tp26
Rp27
ag17
(g10
S'\xb1W\x96\x04\x9fcx?'
p28
tp29
Rp30
aa(lp31
g17
(g10
S'\xae(\xd1,u6\x8f?'
p32
tp33
Rp34
ag17
(g10
S'/#hK6M\x99?'
p35
tp36
Rp37
aa(lp38
g17
(g10
S'fYQ\xaa\x05E\xe0?'
p39
tp40
Rp41
ag17
(g10
S'>6}\x88zF\xe0?'
p42
tp43
Rp44
aatp45
.