(cnumpy.core.multiarray
_reconstruct
p0
(cnumpy
ndarray
p1
(I0
tp2
S'b'
p3
tp4
Rp5
(I1
(I4
tp6
cnumpy
dtype
p7
(S'f8'
p8
I0
I1
tp9
Rp10
(I3
S'<'
p11
NNNI-1
I-1
I0
tp12
bI00
S'gX\xb2P\xe3kP@CB\x93\xf6\xa3h\x81?%\rT\xc8Vmz?\x06Y,\xbfV\xa9\xe0?'
p13
tp14
b(lp15
(lp16
cnumpy.core.multiarray
scalar
p17
(g10
S'w\x17\x8b?D?O@'
p18
tp19
Rp20
ag17
(g10
S'\x13%\x9f\x81$8Q@'
p21
tp22
Rp23
aa(lp24
g17
(g10
S'\tY\xc1\x96WL\x7f?'
p25
tp26
Rp27
ag17
(g10
S'\x01\xd8\xc5!\x1c+\x83?'
p28
tp29
Rp30
aa(lp31
g17
(g10
S'\xfc6\xbb\xd7A\x0f`?'
p32
tp33
Rp34
ag17
(g10
S'f?eR\x86i\x86?'
p35
tp36
Rp37
aa(lp38
g17
(g10
S'\xc6\x9d\xf3\xe6\xb1\xa8\xe0?'
p39
tp40
Rp41
ag17
(g10
S'F\x14e\x97\xfb\xa9\xe0?'
p42
tp43
Rp44
aatp45
.