(cnumpy.core.multiarray
_reconstruct
p0
(cnumpy
ndarray
p1
(I0
tp2
S'b'
p3
tp4
Rp5
(I1
(I4
tp6
cnumpy
dtype
p7
(S'f8'
p8
I0
I1
tp9
Rp10
(I3
S'<'
p11
NNNI-1
I-1
I0
tp12
bI00
S'k\x85\x94\xb1h,V@\x8dm,\xe6Z\x86f?"_\xc7qx\xeb\x95?s\xfe\xc0o\x03B\xe0?'
p13
tp14
b(lp15
(lp16
cnumpy.core.multiarray
scalar
p17
(g10
S'm\x12)3\x06HU@'
p18
tp19
Rp20
ag17
(g10
S'i\xf8\xff/\xcb\x10W@'
p21
tp22
Rp23
aa(lp24
g17
(g10
S'\xcaQ\x86\xa6\x01\xe0c?'
p25
tp26
Rp27
ag17
(g10
S'P\x89\xd2%\xb4,i?'
p28
tp29
Rp30
aa(lp31
g17
(g10
S'\xe0E|o\x96-\x92?'
p32
tp33
Rp34
ag17
(g10
S'dx\x12tZ\xa9\x99?'
p35
tp36
Rp37
aa(lp38
g17
(g10
S'\r\xce\xed\x96\x15A\xe0?'
p39
tp40
Rp41
ag17
(g10
S'\xd9.\x94H\xf1B\xe0?'
p42
tp43
Rp44
aatp45
.