(cnumpy.core.multiarray
_reconstruct
p0
(cnumpy
ndarray
p1
(I0
tp2
S'b'
p3
tp4
Rp5
(I1
(I4
tp6
cnumpy
dtype
p7
(S'f8'
p8
I0
I1
tp9
Rp10
(I3
S'<'
p11
NNNI-1
I-1
I0
tp12
bI00
S'\xc5\xce\xd540\x1cU@\xa4\xd6$\xf9\xee\ti?\xb3\x12\xb8K\xc7\xb0\xa0?\xf8n"\xeeoh\xe0?'
p13
tp14
b(lp15
(lp16
cnumpy.core.multiarray
scalar
p17
(g10
S'\xd1Yp\x80\x167T@'
p18
tp19
Rp20
ag17
(g10
S'\xb9C;\xe9I\x01V@'
p21
tp22
Rp23
aa(lp24
g17
(g10
S'r~\x1e\xb2g\xf3e?'
p25
tp26
Rp27
ag17
(g10
S'\xd6.+@v l?'
p28
tp29
Rp30
aa(lp31
g17
(g10
S'|x/\x07\x83\x19\x9c?'
p32
tp33
Rp34
ag17
(g10
S'(i\xd8\x13\xcdT\xa3?'
p35
tp36
Rp37
aa(lp38
g17
(g10
S'Tqa\r|g\xe0?'
p39
tp40
Rp41
ag17
(g10
S'\x9cl\xe3\xceci\xe0?'
p42
tp43
Rp44
aatp45
.