(cnumpy.core.multiarray
_reconstruct
p0
(cnumpy
ndarray
p1
(I0
tp2
S'b'
p3
tp4
Rp5
(I1
(I4
tp6
cnumpy
dtype
p7
(S'f8'
p8
I0
I1
tp9
Rp10
(I3
S'<'
p11
NNNI-1
I-1
I0
tp12
bI00
S'\x8e\x1a\x14\xb3\x8fCR@\xc9e\r\x01a%v?\xddz\x19\r\xb5j\xa7?&\xb4\xacPKD\xe0?'
p13
tp14
b(lp15
(lp16
cnumpy.core.multiarray
scalar
p17
(g10
S'm \x89o\x92oQ@'
p18
tp19
Rp20
ag17
(g10
S'\xaf\x14\x9f\xf6\x8c\x17S@'
p21
tp22
Rp23
aa(lp24
g17
(g10
S'A\xc9\xdd\xaaQ\xa8s?'
p25
tp26
Rp27
ag17
(g10
S'Q\x02=Wp\xa2x?'
p28
tp29
Rp30
aa(lp31
g17
(g10
S'M\xbd\xd3\x1a%=\xa3?'
p32
tp33
Rp34
ag17
(g10
S'm8_\xffD\x98\xab?'
p35
tp36
Rp37
aa(lp38
g17
(g10
S'\xdd\xb0\xf3m\x85C\xe0?'
p39
tp40
Rp41
ag17
(g10
S'o\xb7e3\x11E\xe0?'
p42
tp43
Rp44
aatp45
.