(cnumpy.core.multiarray
_reconstruct
p0
(cnumpy
ndarray
p1
(I0
tp2
S'b'
p3
tp4
Rp5
(I1
(I4
tp6
cnumpy
dtype
p7
(S'f8'
p8
I0
I1
tp9
Rp10
(I3
S'<'
p11
NNNI-1
I-1
I0
tp12
bI00
S'[|/F\x8a\x92R@uu1\xc0\xadEr?V?\xa5a\xac\xd7\x9c?tQ\x1aZq\x8d\xe0?'
p13
tp14
b(lp15
(lp16
cnumpy.core.multiarray
scalar
p17
(g10
S'o\xb1\x95\xb0o\xc3Q@'
p18
tp19
Rp20
ag17
(g10
S'GG\xc9\xdb\xa4aS@'
p21
tp22
Rp23
aa(lp24
g17
(g10
S'2p\x93\x17\xc7<p?'
p25
tp26
Rp27
ag17
(g10
S'\xb8z\xcfh\x94Nt?'
p28
tp29
Rp30
aa(lp31
g17
(g10
S'4\xf54=|r\x97?'
p32
tp33
Rp34
ag17
(g10
S'\xbc\xc4\nCn\x1e\xa1?'
p35
tp36
Rp37
aa(lp38
g17
(g10
S'f\xa6\x15\xc3\x9d\x8c\xe0?'
p39
tp40
Rp41
ag17
(g10
S'\x82\xfc\x1e\xf1D\x8e\xe0?'
p42
tp43
Rp44
aatp45
.