(cnumpy.core.multiarray
_reconstruct
p0
(cnumpy
ndarray
p1
(I0
tp2
S'b'
p3
tp4
Rp5
(I1
(I4
tp6
cnumpy
dtype
p7
(S'f8'
p8
I0
I1
tp9
Rp10
(I3
S'<'
p11
NNNI-1
I-1
I0
tp12
bI00
S'U\x9cu\xcfSiR@\x00\x16:\xd4\xde\x8aw?\x8c*\xf2O\xc1ww?\x06Mp\xfd(\x19\xe0?'
p13
tp14
b(lp15
(lp16
cnumpy.core.multiarray
scalar
p17
(g10
S'M\x92K\xb1\x9e\xabQ@'
p18
tp19
Rp20
ag17
(g10
S"]\xa6\x9f\xed\x08'S@"
p21
tp22
Rp23
aa(lp24
g17
(g10
S')\xf5\x01,wgu?'
p25
tp26
Rp27
ag17
(g10
S'\xd76r|F\xaey?'
p28
tp29
Rp30
aa(lp31
g17
(g10
S'\xd1\xe7\xfe\xadkCe?'
p32
tp33
Rp34
ag17
(g10
S'\x98prd\xe6&\x82?'
p35
tp36
Rp37
aa(lp38
g17
(g10
S'\xea\xfaR:\x80\x18\xe0?'
p39
tp40
Rp41
ag17
(g10
S'"\x9f\x8d\xc0\xd1\x19\xe0?'
p42
tp43
Rp44
aatp45
.