(cnumpy.core.multiarray
_reconstruct
p0
(cnumpy
ndarray
p1
(I0
tp2
S'b'
p3
tp4
Rp5
(I1
(I4
tp6
cnumpy
dtype
p7
(S'f8'
p8
I0
I1
tp9
Rp10
(I3
S'<'
p11
NNNI-1
I-1
I0
tp12
bI00
S'\xc9s\xc6\xf6g>R@\xc49\xdak\xd6|f?a\x86\xeb\xd9\xdc\x9cs?\x0cH\x01\xba>\x8a\xe0?'
p13
tp14
b(lp15
(lp16
cnumpy.core.multiarray
scalar
p17
(g10
S';\xae\x1eh\x99\xa8Q@'
p18
tp19
Rp20
ag17
(g10
S'W9n\x856\xd4R@'
p21
tp22
Rp23
aa(lp24
g17
(g10
S'\x0f#&\xf8\xa4\x8bd?'
p25
tp26
Rp27
ag17
(g10
S'yP\x8e\xdf\x07nh?'
p28
tp29
Rp30
aa(lp31
g17
(g10
S'(\xa5]\xbf\x83\x19h?'
p32
tp33
Rp34
ag17
(g10
S'.:(\xd4\xf7,{?'
p35
tp36
Rp37
aa(lp38
g17
(g10
S'\xeb-a\x1aa\x89\xe0?'
p39
tp40
Rp41
ag17
(g10
S'-b\xa1Y\x1c\x8b\xe0?'
p42
tp43
Rp44
aatp45
.