(cnumpy.core.multiarray
_reconstruct
p0
(cnumpy
ndarray
p1
(I0
tp2
S'b'
p3
tp4
Rp5
(I1
(I4
tp6
cnumpy
dtype
p7
(S'f8'
p8
I0
I1
tp9
Rp10
(I3
S'<'
p11
NNNI-1
I-1
I0
tp12
bI00
S'I$\xb5\xd9e\rV@\xa3qB\xb6v_i?\xf0\x9b:Hws\x90?\n\x14z\xd5P\xca\xe0?'
p13
tp14
b(lp15
(lp16
cnumpy.core.multiarray
scalar
p17
(g10
S'\xc0\xceB\xc2\xbf\x0fU@'
p18
tp19
Rp20
ag17
(g10
S"\xd2y'\xf1\x0b\x0bW@"
p21
tp22
Rp23
aa(lp24
g17
(g10
S'T\xa9\x18\xfe\xca9f?'
p25
tp26
Rp27
ag17
(g10
S'\xf29ln"\x85l?'
p28
tp29
Rp30
aa(lp31
g17
(g10
S'\xb0y\xa3\xa2\x02_\x89?'
p32
tp33
Rp34
ag17
(g10
S'\x08{#?m7\x94?'
p35
tp36
Rp37
aa(lp38
g17
(g10
S'ZV\x84\xabe\xc9\xe0?'
p39
tp40
Rp41
ag17
(g10
S'\xba\xd1o\xff;\xcb\xe0?'
p42
tp43
Rp44
aatp45
.