(cnumpy.core.multiarray
_reconstruct
p0
(cnumpy
ndarray
p1
(I0
tp2
S'b'
p3
tp4
Rp5
(I1
(I4
tp6
cnumpy
dtype
p7
(S'f8'
p8
I0
I1
tp9
Rp10
(I3
S'<'
p11
NNNI-1
I-1
I0
tp12
bI00
S'\xb9i\x02W\xc7\rR@C\xe8R\x1dL\xc9Q?\xf5=\xe3oHK\x95?qX|\x89\xe0\xa8\xe0?'
p13
tp14
b(lp15
(lp16
cnumpy.core.multiarray
scalar
p17
(g10
S'\xc7Ot\xfb\x14\x8cQ@'
p18
tp19
Rp20
ag17
(g10
S'\xab\x83\x90\xb2y\x8fR@'
p21
tp22
Rp23
aa(lp24
g17
(g10
S'\xaf5\xb2\xf7\xedpO?'
p25
tp26
Rp27
ag17
(g10
S'\xaf\xb5\xcc>!\xdaS?'
p28
tp29
Rp30
aa(lp31
g17
(g10
S'\x80\xf6ck\x128\x93?'
p32
tp33
Rp34
ag17
(g10
S'j\x85bt~^\x97?'
p35
tp36
Rp37
aa(lp38
g17
(g10
S'\xd5^\xc2\xc5Y\xa7\xe0?'
p39
tp40
Rp41
ag17
(g10
S'\rR6Mg\xaa\xe0?'
p42
tp43
Rp44
aatp45
.