(cnumpy.core.multiarray
_reconstruct
p0
(cnumpy
ndarray
p1
(I0
tp2
S'b'
p3
tp4
Rp5
(I1
(I4
tp6
cnumpy
dtype
p7
(S'f8'
p8
I0
I1
tp9
Rp10
(I3
S'<'
p11
NNNI-1
I-1
I0
tp12
bI00
S'{D\x97\x9cU\xe3T@\x04\xa74\x90Q\ru?\xd9\xf5D\t\xbc\x9b8?\xce\x89\x1bd\xa9b\xe0?'
p13
tp14
b(lp15
(lp16
cnumpy.core.multiarray
scalar
p17
(g10
S'\x1ard\xcaj\xf5S@'
p18
tp19
Rp20
ag17
(g10
S'\xdc\x16\xcan@\xd1U@'
p21
tp22
Rp23
aa(lp24
g17
(g10
S'\x1c\x97\xfd\x06/\xefr?'
p25
tp26
Rp27
ag17
(g10
S'\xec\xb6k\x19t+w?'
p28
tp29
Rp30
aa(lp31
g17
(g10
S'!\r\x9e~^\xa5d\xbf'
p32
tp33
Rp34
ag17
(g10
S'\x97J\xef\x80M\xccj?'
p35
tp36
Rp37
aa(lp38
g17
(g10
S'8\xeeo\x96\xf9a\xe0?'
p39
tp40
Rp41
ag17
(g10
S'd%\xc71Yc\xe0?'
p42
tp43
Rp44
aatp45
.