(cnumpy.core.multiarray
_reconstruct
p0
(cnumpy
ndarray
p1
(I0
tp2
S'b'
p3
tp4
Rp5
(I1
(I4
tp6
cnumpy
dtype
p7
(S'f8'
p8
I0
I1
tp9
Rp10
(I3
S'<'
p11
NNNI-1
I-1
I0
tp12
bI00
S'\x15>\x15\xa6&mQ@\xf1\xa7\xa9\xa5\xc2Q\x81?\x00\n\xf8\x84?\xdbb=\xb2\xb9N\x18\xab>\xe0?'
p13
tp14
b(lp15
(lp16
cnumpy.core.multiarray
scalar
p17
(g10
S'^W"t\xd4\x9fP@'
p18
tp19
Rp20
ag17
(g10
S'\xcc$\x08\xd8x:R@'
p21
tp22
Rp23
aa(lp24
g17
(g10
S'+G*\x91\xc1Y\x7f?'
p25
tp26
Rp27
ag17
(g10
S'M,\xbe\x82\xa4\xf6\x82?'
p28
tp29
Rp30
aa(lp31
g17
(g10
S'\xba\xc9fl\xdb3p\xbf'
p32
tp33
Rp34
ag17
(g10
S'\xfa\xa4yl\xdb3p?'
p35
tp36
Rp37
aa(lp38
g17
(g10
S'\tH\xa4\xd9\x11>\xe0?'
p39
tp40
Rp41
ag17
(g10
S'[+\xf9VD?\xe0?'
p42
tp43
Rp44
aatp45
.