(cnumpy.core.multiarray
_reconstruct
p0
(cnumpy
ndarray
p1
(I0
tp2
S'b'
p3
tp4
Rp5
(I1
(I4
tp6
cnumpy
dtype
p7
(S'f8'
p8
I0
I1
tp9
Rp10
(I3
S'<'
p11
NNNI-1
I-1
I0
tp12
bI00
S't\xd2\xb3\xfdY\x82Q@\r\xe5\xc5\x06\xa7\x19y?S\x0f\xc4<\xfd\x9c\x86?\x8c\x1e\x1a~\xa4x\xe0?'
p13
tp14
b(lp15
(lp16
cnumpy.core.multiarray
scalar
p17
(g10
S'\xc0`/N~\xc1P@'
p18
tp19
Rp20
ag17
(g10
S'(D8\xad5CR@'
p21
tp22
Rp23
aa(lp24
g17
(g10
S'\xa2V\x1e}\xdf\xa8v?'
p25
tp26
Rp27
ag17
(g10
S'xsm\x90n\x8a{?'
p28
tp29
Rp30
aa(lp31
g17
(g10
S'D\xc6o\xc1\xcfE}?'
p32
tp33
Rp34
ag17
(g10
S'\x84;\xd0\x98\x12\x97\x8e?'
p35
tp36
Rp37
aa(lp38
g17
(g10
S'?00V\xf4w\xe0?'
p39
tp40
Rp41
ag17
(g10
S'\xd9\x0c\x04\xa6Ty\xe0?'
p42
tp43
Rp44
aatp45
.