(cnumpy.core.multiarray
_reconstruct
p0
(cnumpy
ndarray
p1
(I0
tp2
S'b'
p3
tp4
Rp5
(I1
(I4
tp6
cnumpy
dtype
p7
(S'f8'
p8
I0
I1
tp9
Rp10
(I3
S'<'
p11
NNNI-1
I-1
I0
tp12
bI00
S'c\x93z~\xa8\xbfT@O\xd0Xa6\x95~?g6\xccW\r>\x85?\xc3\x0fn\x85\xdf\x9b\xe0?'
p13
tp14
b(lp15
(lp16
cnumpy.core.multiarray
scalar
p17
(g10
S'\xfd"\xd0\xa9\x1f\x8fS@'
p18
tp19
Rp20
ag17
(g10
S'\xc9\x03%S1\xf0U@'
p21
tp22
Rp23
aa(lp24
g17
(g10
S'\x08`\xe5\x1a\xb4\xccz?'
p25
tp26
Rp27
ag17
(g10
S'K \xe6S\xdc.\x81?'
p28
tp29
Rp30
aa(lp31
g17
(g10
S"'P\xa3\xaf\xdf\xf5s?"
p32
tp33
Rp34
ag17
(g10
S']b\xe3k\x95@\x90?'
p35
tp36
Rp37
aa(lp38
g17
(g10
S'/\xe6j\xdc5\x9b\xe0?'
p39
tp40
Rp41
ag17
(g10
S'W9q.\x89\x9c\xe0?'
p42
tp43
Rp44
aatp45
.