(cnumpy.core.multiarray
_reconstruct
p0
(cnumpy
ndarray
p1
(I0
tp2
S'b'
p3
tp4
Rp5
(I1
(I4
tp6
cnumpy
dtype
p7
(S'f8'
p8
I0
I1
tp9
Rp10
(I3
S'<'
p11
NNNI-1
I-1
I0
tp12
bI00
S'\x10$k\x15r\x04S@\x0ewUSn\x85v?\x00\xa3\xc7\xd5\xcd\xe1(>g4e\xc09\xda\xe0?'
p13
tp14
b(lp15
(lp16
cnumpy.core.multiarray
scalar
p17
(g10
S'{bw\xb5|%R@'
p18
tp19
Rp20
ag17
(g10
S'\xa5\xe5^ug\xe3S@'
p21
tp22
Rp23
aa(lp24
g17
(g10
S'\xd5\xd0\x87\xf5\xad$t?'
p25
tp26
Rp27
ag17
(g10
S'G\x1d#\xb1.\xe6x?'
p28
tp29
Rp30
aa(lp31
g17
(g10
S'fJ\xee\xf1G\x1ai\xbf'
p32
tp33
Rp34
ag17
(g10
S'\x1e\x05(\x0eK\x1ai?'
p35
tp36
Rp37
aa(lp38
g17
(g10
S'l\x0e\x8dir\xd9\xe0?'
p39
tp40
Rp41
ag17
(g10
S'bZ=\x17\x01\xdb\xe0?'
p42
tp43
Rp44
aatp45
.