(cnumpy.core.multiarray
_reconstruct
p0
(cnumpy
ndarray
p1
(I0
tp2
S'b'
p3
tp4
Rp5
(I1
(I4
tp6
cnumpy
dtype
p7
(S'f8'
p8
I0
I1
tp9
Rp10
(I3
S'<'
p11
NNNI-1
I-1
I0
tp12
bI00
S'7\n}B\xe0[H@j1|g\x00Lw?\x92WE\x8f\x184r?$1P\x87\x1c\x83\xe0?'
p13
tp14
b(lp15
(lp16
cnumpy.core.multiarray
scalar
p17
(g10
S'\x0ckd\xb4,\xa1G@'
p18
tp19
Rp20
ag17
(g10
S'b\xa9\x95\xd0\x93\x16I@'
p21
tp22
Rp23
aa(lp24
g17
(g10
S'\xc3\x90\xcb\x9d8\xbau?'
p25
tp26
Rp27
ag17
(g10
S'\x11\xd2,1\xc8\xddx?'
p28
tp29
Rp30
aa(lp31
g17
(g10
S'9TO`=\xfda?'
p32
tp33
Rp34
ag17
(g10
S'\x08\x05cn\x92i{?'
p35
tp36
Rp37
aa(lp38
g17
(g10
S'\x84$\x0f5b\x82\xe0?'
p39
tp40
Rp41
ag17
(g10
S'\xc4=\x91\xd9\xd6\x83\xe0?'
p42
tp43
Rp44
aatp45
.