(cnumpy.core.multiarray
_reconstruct
p0
(cnumpy
ndarray
p1
(I0
tp2
S'b'
p3
tp4
Rp5
(I1
(I4
tp6
cnumpy
dtype
p7
(S'f8'
p8
I0
I1
tp9
Rp10
(I3
S'<'
p11
NNNI-1
I-1
I0
tp12
bI00
S'\x88\xf9m\xfe\xc0\xa2Q@\x11#Kf.\xd3v?zL\xc1\xba\x8b\x81\x9e?LX\x8bD\x96B\xe0?'
p13
tp14
b(lp15
(lp16
cnumpy.core.multiarray
scalar
p17
(g10
S'\xcb\xb9\xb4%\xd2\xe1P@'
p18
tp19
Rp20
ag17
(g10
S"E9'\xd7\xafcR@"
p21
tp22
Rp23
aa(lp24
g17
(g10
S'7\x0bv|Qzt?'
p25
tp26
Rp27
ag17
(g10
S'\xeb: P\x0b,y?'
p28
tp29
Rp30
aa(lp31
g17
(g10
S'\x1c\xa8\xb6\x10\xdd\xb0\x98?'
p32
tp33
Rp34
ag17
(g10
S'l\xf8e2\x1d)\xa2?'
p35
tp36
Rp37
aa(lp38
g17
(g10
S'\xe7\xa5$\xe4\xd9A\xe0?'
p39
tp40
Rp41
ag17
(g10
S'\xb1\n\xf2\xa4RC\xe0?'
p42
tp43
Rp44
aatp45
.