(cnumpy.core.multiarray
_reconstruct
p0
(cnumpy
ndarray
p1
(I0
tp2
S'b'
p3
tp4
Rp5
(I1
(I4
tp6
cnumpy
dtype
p7
(S'f8'
p8
I0
I1
tp9
Rp10
(I3
S'<'
p11
NNNI-1
I-1
I0
tp12
bI00
S'\xb8\xfa%J~\xcaU@\x0b;\x9b\xd3?1m?\xa6/\x82R\x1fI\x95?\x0cyaj \x8b\xe0?'
p13
tp14
b(lp15
(lp16
cnumpy.core.multiarray
scalar
p17
(g10
S'/\xab\x1a\x81F@U@'
p18
tp19
Rp20
ag17
(g10
S'AJ1\x13\xb6TV@'
p21
tp22
Rp23
aa(lp24
g17
(g10
S'lEP\xbe\xfb,m?'
p25
tp26
Rp27
ag17
(g10
S'\xaa0\xe6\xe8\x835m?'
p28
tp29
Rp30
aa(lp31
g17
(g10
S'#$\n\xf2\x05\x17\x91?'
p32
tp33
Rp34
ag17
(g10
S');\xfa\xb28{\x99?'
p35
tp36
Rp37
aa(lp38
g17
(g10
S'\xbd\x9f\x0f\xfe\x8f\x8a\xe0?'
p39
tp40
Rp41
ag17
(g10
S'[R\xb3\xd6\xb0\x8b\xe0?'
p42
tp43
Rp44
aatp45
.