(cnumpy.core.multiarray
_reconstruct
p0
(cnumpy
ndarray
p1
(I0
tp2
S'b'
p3
tp4
Rp5
(I1
(I4
tp6
cnumpy
dtype
p7
(S'f8'
p8
I0
I1
tp9
Rp10
(I3
S'<'
p11
NNNI-1
I-1
I0
tp12
bI00
S'\x0c\r\xb6Y\xe5?R@$\xffU\xc6\xef6y?\x18\xd7\xd9\xbd\x95\xa5\xf0=5-ge\x8fl\xe0?'
p13
tp14
b(lp15
(lp16
cnumpy.core.multiarray
scalar
p17
(g10
S'\x959F\xe0\xaexQ@'
p18
tp19
Rp20
ag17
(g10
S'\x83\xe0%\xd3\x1b\x07S@'
p21
tp22
Rp23
aa(lp24
g17
(g10
S'\xbf\xc0\x80X\x9c\xcev?'
p25
tp26
Rp27
ag17
(g10
S'\x89=+4C\x9f{?'
p28
tp29
Rp30
aa(lp31
g17
(g10
S')\xefp\xdf\xe8+i\xbf'
p32
tp33
Rp34
ag17
(g10
S'!F\x07"\xe9+i?'
p35
tp36
Rp37
aa(lp38
g17
(g10
S'Jci\xfd\xdbk\xe0?'
p39
tp40
Rp41
ag17
(g10
S' \xf7d\xcdBm\xe0?'
p42
tp43
Rp44
aatp45
.