(cnumpy.core.multiarray
_reconstruct
p0
(cnumpy
ndarray
p1
(I0
tp2
S'b'
p3
tp4
Rp5
(I1
(I4
tp6
cnumpy
dtype
p7
(S'f8'
p8
I0
I1
tp9
Rp10
(I3
S'<'
p11
NNNI-1
I-1
I0
tp12
bI00
S'\xbb\xf4 \x00\x7f\xddQ@\xfe8\xe7K,K{?:\xf7\xc4J\x06\xd9\x95?L\x12\xc0\xb1{m\xe0?'
p13
tp14
b(lp15
(lp16
cnumpy.core.multiarray
scalar
p17
(g10
S'\n\xbe\x10\x9f\xaa\x06Q@'
p18
tp19
Rp20
ag17
(g10
S'l+1aS\xb4R@'
p21
tp22
Rp23
aa(lp24
g17
(g10
S"H'ae\x05dx?"
p25
tp26
Rp27
ag17
(g10
S'\xb4Jm2S2~?'
p28
tp29
Rp30
aa(lp31
g17
(g10
S'\xd0\x0c\xf24\xf35\x90?'
p32
tp33
Rp34
ag17
(g10
S'\xa4\xe1\x97`\x19|\x9b?'
p35
tp36
Rp37
aa(lp38
g17
(g10
S'Q\xf9T\xd9\xcal\xe0?'
p39
tp40
Rp41
ag17
(g10
S'G++\x8a,n\xe0?'
p42
tp43
Rp44
aatp45
.