(cnumpy.core.multiarray
_reconstruct
p0
(cnumpy
ndarray
p1
(I0
tp2
S'b'
p3
tp4
Rp5
(I1
(I4
tp6
cnumpy
dtype
p7
(S'f8'
p8
I0
I1
tp9
Rp10
(I3
S'<'
p11
NNNI-1
I-1
I0
tp12
bI00
S',e\x05Q\x0b+R@\x0fw.5\xf5\xd3y?\x12\xac\xd3R\x88\xdb\x83?\xd4\xa5\x88\xee&4\xe0?'
p13
tp14
b(lp15
(lp16
cnumpy.core.multiarray
scalar
p17
(g10
S'\xd7bn\xcf\xa9bQ@'
p18
tp19
Rp20
ag17
(g10
S'\x81g\x9c\xd2l\xf3R@'
p21
tp22
Rp23
aa(lp24
g17
(g10
S'$\xd0N+\xbdVw?'
p25
tp26
Rp27
ag17
(g10
S'\xfa\x1d\x0e?-Q|?'
p28
tp29
Rp30
aa(lp31
g17
(g10
S'\xb0}l\xfd\xd0\x11x?'
p32
tp33
Rp34
ag17
(g10
S'L\x19\xf1&(\xae\x8b?'
p35
tp36
Rp37
aa(lp38
g17
(g10
S'\xfd>Rx}3\xe0?'
p39
tp40
Rp41
ag17
(g10
S'\xab\x0c\xbfd\xd04\xe0?'
p42
tp43
Rp44
aatp45
.