(cnumpy.core.multiarray
_reconstruct
p0
(cnumpy
ndarray
p1
(I0
tp2
S'b'
p3
tp4
Rp5
(I1
(I4
tp6
cnumpy
dtype
p7
(S'f8'
p8
I0
I1
tp9
Rp10
(I3
S'<'
p11
NNNI-1
I-1
I0
tp12
bI00
S'8uV\xfd$\x1fT@\x00T\xdd9\xd0\xf7s?\xe8\xf0oLN\x02n?\x1e\xcf\x0bt=\xf6\xe0?'
p13
tp14
b(lp15
(lp16
cnumpy.core.multiarray
scalar
p17
(g10
S'+\nID\xeb.S@'
p18
tp19
Rp20
ag17
(g10
S'E\xe0c\xb6^\x0fU@'
p21
tp22
Rp23
aa(lp24
g17
(g10
S'\xb0\x8b\xbcI"\xceq?'
p25
tp26
Rp27
ag17
(g10
S'P\x1c\xfe)~!v?'
p28
tp29
Rp30
aa(lp31
g17
(g10
S'p\xd7\xe5$\xa2=<?'
p32
tp33
Rp34
ag17
(g10
S'q\x93!*t>|?'
p35
tp36
Rp37
aa(lp38
g17
(g10
S'\x84R\xb8\xb8~\xf5\xe0?'
p39
tp40
Rp41
ag17
(g10
S'\xb8K_/\xfc\xf6\xe0?'
p42
tp43
Rp44
aatp45
.