(cnumpy.core.multiarray
_reconstruct
p0
(cnumpy
ndarray
p1
(I0
tp2
S'b'
p3
tp4
Rp5
(I1
(I4
tp6
cnumpy
dtype
p7
(S'f8'
p8
I0
I1
tp9
Rp10
(I3
S'<'
p11
NNNI-1
I-1
I0
tp12
bI00
S'\x1d\xbb\x1a-ALR@\x1e\x00\x0f\xb0\xe5?_??my\n\x16\x8c\x8a?nC\xd5\xcbo\x9b\xe0?'
p13
tp14
b(lp15
(lp16
cnumpy.core.multiarray
scalar
p17
(g10
S'c&\xec9\x13\xbbQ@'
p18
tp19
Rp20
ag17
(g10
S'\xd7OI o\xddR@'
p21
tp22
Rp23
aa(lp24
g17
(g10
S'\xb7R\x97p\xf6/\\?'
p25
tp26
Rp27
ag17
(g10
S"\xc2V\xc3w\xea'a?"
p28
tp29
Rp30
aa(lp31
g17
(g10
S'\xc3R\x82F\xaa^\x86?'
p32
tp33
Rp34
ag17
(g10
S'\xbb\x87p\xce\x81\xb9\x8e?'
p35
tp36
Rp37
aa(lp38
g17
(g10
S'eDw\xc6Z\x9a\xe0?'
p39
tp40
Rp41
ag17
(g10
S'wB3\xd1\x84\x9c\xe0?'
p42
tp43
Rp44
aatp45
.