(cnumpy.core.multiarray
_reconstruct
p0
(cnumpy
ndarray
p1
(I0
tp2
S'b'
p3
tp4
Rp5
(I1
(I4
tp6
cnumpy
dtype
p7
(S'f8'
p8
I0
I1
tp9
Rp10
(I3
S'<'
p11
NNNI-1
I-1
I0
tp12
bI00
S'"\x82!,\xa2\xdfd@\x1a@mw\x0c\xf8j?\xb7Q\x0f\xd2\n\x04\xb3?6A\x117o\xad\xe0?'
p13
tp14
b(lp15
(lp16
cnumpy.core.multiarray
scalar
p17
(g10
S'\xd9\xcb\xbc\x97q\xedb@'
p18
tp19
Rp20
ag17
(g10
S'k8\x86\xc0\xd2\xd1f@'
p21
tp22
Rp23
aa(lp24
g17
(g10
S'\x93\x02\x144\xe0mc?'
p25
tp26
Rp27
ag17
(g10
S'\xd1>c]\x1cAq?'
p28
tp29
Rp30
aa(lp31
g17
(g10
S'fG\xc3ig4\xa9?'
p32
tp33
Rp34
ag17
(g10
S'\xbb\xff<\xef\xe1m\xb9?'
p35
tp36
Rp37
aa(lp38
g17
(g10
S'&\xa1\xc0\x11l\xac\xe0?'
p39
tp40
Rp41
ag17
(g10
S'F\xe1a\\r\xae\xe0?'
p42
tp43
Rp44
aatp45
.