(cnumpy.core.multiarray
_reconstruct
p0
(cnumpy
ndarray
p1
(I0
tp2
S'b'
p3
tp4
Rp5
(I1
(I4
tp6
cnumpy
dtype
p7
(S'f8'
p8
I0
I1
tp9
Rp10
(I3
S'<'
p11
NNNI-1
I-1
I0
tp12
bI00
S'\xf6\xaamq\x95\xe7F@!-\xefm\xe7\xf1s?Y\x82t\x80_\xcd\x90?m\x9f\\o\x95\x9c\xe0?'
p13
tp14
b(lp15
(lp16
cnumpy.core.multiarray
scalar
p17
(g10
S'\xd8Dmd=AF@'
p18
tp19
Rp20
ag17
(g10
S'\x14\x11n~\xed\x8dG@'
p21
tp22
Rp23
aa(lp24
g17
(g10
S'\x17L\xa83\x86\x92r?'
p25
tp26
Rp27
ag17
(g10
S'+\x0e6\xa8HQu?'
p28
tp29
Rp30
aa(lp31
g17
(g10
S'\x18eI\xe6S\x18\x8c?'
p32
tp33
Rp34
ag17
(g10
S'&R\xc4\r\x95\x8e\x93?'
p35
tp36
Rp37
aa(lp38
g17
(g10
S'E\x17n\x87\xc5\x9b\xe0?'
p39
tp40
Rp41
ag17
(g10
S"\x95'KWe\x9d\xe0?"
p42
tp43
Rp44
aatp45
.