(cnumpy.core.multiarray
_reconstruct
p0
(cnumpy
ndarray
p1
(I0
tp2
S'b'
p3
tp4
Rp5
(I1
(I4
tp6
cnumpy
dtype
p7
(S'f8'
p8
I0
I1
tp9
Rp10
(I3
S'<'
p11
NNNI-1
I-1
I0
tp12
bI00
S'\xfe\x19\x0c^\x8c^S@<\xc3\x94\xa0q\xcfu?p\xe0\x83O,\xd7\x90?=\xff\xe5\xa1bf\xe0?'
p13
tp14
b(lp15
(lp16
cnumpy.core.multiarray
scalar
p17
(g10
S'\xc0l:J\xc4yR@'
p18
tp19
Rp20
ag17
(g10
S'<\xc7\xddqTCT@'
p21
tp22
Rp23
aa(lp24
g17
(g10
S'\x152z Gls?'
p25
tp26
Rp27
ag17
(g10
S'cT\xaf \x9c2x?'
p28
tp29
Rp30
aa(lp31
g17
(g10
S'\xda\x81\xc5\xf4/p\x88?'
p32
tp33
Rp34
ag17
(g10
S'\xf3\xff\xa4\xa4@v\x95?'
p35
tp36
Rp37
aa(lp38
g17
(g10
S'<\xd4\xd8\xae\xa4e\xe0?'
p39
tp40
Rp41
ag17
(g10
S'>*\xf3\x94 g\xe0?'
p42
tp43
Rp44
aatp45
.