(cnumpy.core.multiarray
_reconstruct
p0
(cnumpy
ndarray
p1
(I0
tp2
S'b'
p3
tp4
Rp5
(I1
(I4
tp6
cnumpy
dtype
p7
(S'f8'
p8
I0
I1
tp9
Rp10
(I3
S'<'
p11
NNNI-1
I-1
I0
tp12
bI00
S'v\xe6\xcf\xd9\xd8ET@\xb7\x9d\xfe\x9b\xc3dy??>\\\xee\x19\x80\x8b?b\x9d\x89\x1b\xad\xe5\xe0?'
p13
tp14
b(lp15
(lp16
cnumpy.core.multiarray
scalar
p17
(g10
S'\xfar`U\x13,S@'
p18
tp19
Rp20
ag17
(g10
S'\xf2Y?^\x9e_U@'
p21
tp22
Rp23
aa(lp24
g17
(g10
S'*\xf3\x99\xb2cDv?'
p25
tp26
Rp27
ag17
(g10
S'DHc\x85#\x85|?'
p28
tp29
Rp30
aa(lp31
g17
(g10
S'\x06\x98\x0e&g\xd1\x80?'
p32
tp33
Rp34
ag17
(g10
S'<\xf2T[f\x17\x93?'
p35
tp36
Rp37
aa(lp38
g17
(g10
S'LU\xa4,\xf4\xe4\xe0?'
p39
tp40
Rp41
ag17
(g10
S'x\xe5n\nf\xe6\xe0?'
p42
tp43
Rp44
aatp45
.