(cnumpy.core.multiarray
_reconstruct
p0
(cnumpy
ndarray
p1
(I0
tp2
S'b'
p3
tp4
Rp5
(I1
(I4
tp6
cnumpy
dtype
p7
(S'f8'
p8
I0
I1
tp9
Rp10
(I3
S'<'
p11
NNNI-1
I-1
I0
tp12
bI00
S'\xef\xddz;\xce\x93S@\xcbF\x04\xdb1ex?\x00\xd4Y\x11m\xf0\xaa:K\xc4\xd5\xd1\xaa\xa8\xe0?'
p13
tp14
b(lp15
(lp16
cnumpy.core.multiarray
scalar
p17
(g10
S'\x01_L\x06z\x0cS@'
p18
tp19
Rp20
ag17
(g10
S'\xdd\\\xa9p"\x1bT@'
p21
tp22
Rp23
aa(lp24
g17
(g10
S'\x06g\x7f\x87\xdaCx?'
p25
tp26
Rp27
ag17
(g10
S'\x90&\x89.\x89\x86x?'
p28
tp29
Rp30
aa(lp31
g17
(g10
S'H45T\x87\xbdf\xbf'
p32
tp33
Rp34
ag17
(g10
S'H45T\x87\xbdf?'
p35
tp36
Rp37
aa(lp38
g17
(g10
S'jYu\xbb\x1f\xa8\xe0?'
p39
tp40
Rp41
ag17
(g10
S',/6\xe85\xa9\xe0?'
p42
tp43
Rp44
aatp45
.