(cnumpy.core.multiarray
_reconstruct
p0
(cnumpy
ndarray
p1
(I0
tp2
S'b'
p3
tp4
Rp5
(I1
(I4
tp6
cnumpy
dtype
p7
(S'f8'
p8
I0
I1
tp9
Rp10
(I3
S'<'
p11
NNNI-1
I-1
I0
tp12
bI00
S'p\xf7/i\x8c\x9dQ@6n0,\ne{?|\x00\xb0\x90?!|?\xff/\xb4;\xe8t\xe0?'
p13
tp14
b(lp15
(lp16
cnumpy.core.multiarray
scalar
p17
(g10
S'7\x9c\x8d\xe2\xbc\xd4P@'
p18
tp19
Rp20
ag17
(g10
S'\xa9R\xd2\xef[fR@'
p21
tp22
Rp23
aa(lp24
g17
(g10
S'\xfa\r\x94\xd8\x04\xb9x?'
p25
tp26
Rp27
ag17
(g10
S'r\xce\xcc\x7f\x0f\x11~?'
p28
tp29
Rp30
aa(lp31
g17
(g10
S'\x0c/-\xbfhLi?'
p32
tp33
Rp34
ag17
(g10
S'\xb9\xb4\xe4`%\xce\x85?'
p35
tp36
Rp37
aa(lp38
g17
(g10
S'\xe9RG\xa8=t\xe0?'
p39
tp40
Rp41
ag17
(g10
S'\x15\r!\xcf\x92u\xe0?'
p42
tp43
Rp44
aatp45
.