(cnumpy.core.multiarray
_reconstruct
p0
(cnumpy
ndarray
p1
(I0
tp2
S'b'
p3
tp4
Rp5
(I1
(I4
tp6
cnumpy
dtype
p7
(S'f8'
p8
I0
I1
tp9
Rp10
(I3
S'<'
p11
NNNI-1
I-1
I0
tp12
bI00
S'\xe9\xba6\x90\x92\xbfR@a\x97\xd5\n!(x?+\x80\xde:\x1b"\x87?\x10SP\xb1\xb0\x15\xe0?'
p13
tp14
b(lp15
(lp16
cnumpy.core.multiarray
scalar
p17
(g10
S'P\xef^K\xe6\xf3Q@'
p18
tp19
Rp20
ag17
(g10
S'\x82\x86\x0e\xd5>\x8bS@'
p21
tp22
Rp23
aa(lp24
g17
(g10
S';\xd0Q\x1f<\xd1u?'
p25
tp26
Rp27
ag17
(g10
S'\x87^Y\xf6\x05\x7fz?'
p28
tp29
Rp30
aa(lp31
g17
(g10
S'|Z)cq\xa7~?'
p32
tp33
Rp34
ag17
(g10
S'\x18S(\xc4}\xf0\x8e?'
p35
tp36
Rp37
aa(lp38
g17
(g10
S'~Dd\xa6\x05\x15\xe0?'
p39
tp40
Rp41
ag17
(g10
S'\xa2a<\xbc[\x16\xe0?'
p42
tp43
Rp44
aatp45
.