(cnumpy.core.multiarray
_reconstruct
p0
(cnumpy
ndarray
p1
(I0
tp2
S'b'
p3
tp4
Rp5
(I1
(I4
tp6
cnumpy
dtype
p7
(S'f8'
p8
I0
I1
tp9
Rp10
(I3
S'<'
p11
NNNI-1
I-1
I0
tp12
bI00
S'gQG\x1bX&f@Y\x93\xab\x0e($z?\xb4\x12o\xa5=\xd1v?G\xa2IC\x93\xd4\xe0?'
p13
tp14
b(lp15
(lp16
cnumpy.core.multiarray
scalar
p17
(g10
S'\x99\x19H\xde\x05\xb0c@'
p18
tp19
Rp20
ag17
(g10
S'5\x89FX\xaa\x9ch@'
p21
tp22
Rp23
aa(lp24
g17
(g10
S'$I\x9b\x84]\xbbs?'
p25
tp26
Rp27
ag17
(g10
S'\xc7\xee]LyF\x80?'
p28
tp29
Rp30
aa(lp31
g17
(g10
S'\x90e$sm\x03l\xbf'
p32
tp33
Rp34
ag17
(g10
S'\x18,8\x02\x19\xd2\x8d?'
p35
tp36
Rp37
aa(lp38
g17
(g10
S'\x1bP<\xe8\xe7\xd3\xe0?'
p39
tp40
Rp41
ag17
(g10
S's\xf4V\x9e>\xd5\xe0?'
p42
tp43
Rp44
aatp45
.