(cnumpy.core.multiarray
_reconstruct
p0
(cnumpy
ndarray
p1
(I0
tp2
S'b'
p3
tp4
Rp5
(I1
(I4
tp6
cnumpy
dtype
p7
(S'f8'
p8
I0
I1
tp9
Rp10
(I3
S'<'
p11
NNNI-1
I-1
I0
tp12
bI00
S'\xfa\xf2\x0b\x8d\x06\xfaT@\xcfT\xbb\t\x18yr?\xd6I\r\x19u@\x8d?v\x0c-\t\x93\x1f\xe0?'
p13
tp14
b(lp15
(lp16
cnumpy.core.multiarray
scalar
p17
(g10
S'\xacLo\xdc\x84\x13T@'
p18
tp19
Rp20
ag17
(g10
S'H\x99\xa8=\x88\xe0U@'
p21
tp22
Rp23
aa(lp24
g17
(g10
S"!'&\xbf\x02\x85p?"
p25
tp26
Rp27
ag17
(g10
S'}\x82PT-mt?'
p28
tp29
Rp30
aa(lp31
g17
(g10
S'\x1eS\xa1BY\x84\x85?'
p32
tp33
Rp34
ag17
(g10
S'G\xa0\xbcwH~\x92?'
p35
tp36
Rp37
aa(lp38
g17
(g10
S'\xb2M\x8an\xd7\x1e\xe0?'
p39
tp40
Rp41
ag17
(g10
S':\xcb\xcf\xa3N \xe0?'
p42
tp43
Rp44
aatp45
.