(cnumpy.core.multiarray
_reconstruct
p0
(cnumpy
ndarray
p1
(I0
tp2
S'b'
p3
tp4
Rp5
(I1
(I4
tp6
cnumpy
dtype
p7
(S'f8'
p8
I0
I1
tp9
Rp10
(I3
S'<'
p11
NNNI-1
I-1
I0
tp12
bI00
S"\xe0^\xe7\x8d(\xd0R@'f\xd2Xizw?$\xf6\xdbLJ\xe2\x82?\xc1YE\x95\xe2\xb4\xe0?"
p13
tp14
b(lp15
(lp16
cnumpy.core.multiarray
scalar
p17
(g10
S'Q\tb\xac}VR@'
p18
tp19
Rp20
ag17
(g10
S'o\xb4lo\xd3IS@'
p21
tp22
Rp23
aa(lp24
g17
(g10
S'3\x83o\xcc%Hw?'
p25
tp26
Rp27
ag17
(g10
S'\x1bI5\xe5\xac\xacw?'
p28
tp29
Rp30
aa(lp31
g17
(g10
S'\xc5\x9e\x9bT}\xf4v?'
p32
tp33
Rp34
ag17
(g10
S'\xe6\x1cj\xefUJ\x8a?'
p35
tp36
Rp37
aa(lp38
g17
(g10
S'\xd97\xd1\x1e[\xb4\xe0?'
p39
tp40
Rp41
ag17
(g10
S'\xa9{\xb9\x0bj\xb5\xe0?'
p42
tp43
Rp44
aatp45
.