(cnumpy.core.multiarray
_reconstruct
p0
(cnumpy
ndarray
p1
(I0
tp2
S'b'
p3
tp4
Rp5
(I1
(I4
tp6
cnumpy
dtype
p7
(S'f8'
p8
I0
I1
tp9
Rp10
(I3
S'<'
p11
NNNI-1
I-1
I0
tp12
bI00
S'D\xf5"i\xa6\x8fS@*&\x13/\x8b\xccy?\x96P\xdb\xa8\xc8\xf1{?\xb1\xddgd\xd4q\xe0?'
p13
tp14
b(lp15
(lp16
cnumpy.core.multiarray
scalar
p17
(g10
S'\xc2\x96\xcep \xa0R@'
p18
tp19
Rp20
ag17
(g10
S'\xc6Swa,\x7fT@'
p21
tp22
Rp23
aa(lp24
g17
(g10
S'/G\xe3\xbbu\x0fw?'
p25
tp26
Rp27
ag17
(g10
S'%\x05C\xa2\xa0\x89|?'
p28
tp29
Rp30
aa(lp31
g17
(g10
S'$\xbcH\x034ng?'
p32
tp33
Rp34
ag17
(g10
S'\x8d!\t\xa8;\x16\x86?'
p35
tp36
Rp37
aa(lp38
g17
(g10
S"\x95\xa9\x82\xcb'q\xe0?"
p39
tp40
Rp41
ag17
(g10
S'\xcd\x11M\xfd\x80r\xe0?'
p42
tp43
Rp44
aatp45
.