(cnumpy.core.multiarray
_reconstruct
p0
(cnumpy
ndarray
p1
(I0
tp2
S'b'
p3
tp4
Rp5
(I1
(I4
tp6
cnumpy
dtype
p7
(S'f8'
p8
I0
I1
tp9
Rp10
(I3
S'<'
p11
NNNI-1
I-1
I0
tp12
bI00
S"\xc4\x84D\x00\xff8c@_\x1b\x12X]dy?R\xe3\x9ft\x8e\xa4\xa4?d\xe5\xcd\r'\x8b\xe0?"
p13
tp14
b(lp15
(lp16
cnumpy.core.multiarray
scalar
p17
(g10
S'\xbcf7;\xadJa@'
p18
tp19
Rp20
ag17
(g10
S"\xcc\xa2Q\xc5P'e@"
p21
tp22
Rp23
aa(lp24
g17
(g10
S'\xb9q\xe8\x87\xb3Ws?'
p25
tp26
Rp27
ag17
(g10
S'\x05\xc5;(\x07q\x7f?'
p28
tp29
Rp30
aa(lp31
g17
(g10
S'\x9e\xd0\xc8oW\xff\x97?'
p32
tp33
Rp34
ag17
(g10
S'U^[1qI\xad?'
p35
tp36
Rp37
aa(lp38
g17
(g10
S'\x1c\x15T\xe5n\x8a\xe0?'
p39
tp40
Rp41
ag17
(g10
S'\xac\xb5G6\xdf\x8b\xe0?'
p42
tp43
Rp44
aatp45
.