(cnumpy.core.multiarray
_reconstruct
p0
(cnumpy
ndarray
p1
(I0
tp2
S'b'
p3
tp4
Rp5
(I1
(I4
tp6
cnumpy
dtype
p7
(S'f8'
p8
I0
I1
tp9
Rp10
(I3
S'<'
p11
NNNI-1
I-1
I0
tp12
bI00
S'\xa7\xd21\xf5\xb9\xe6I@\xb8\xf1J+6g\x8c?\xaaK`\\|\xf7:@\x1d\x8d\xf1*\xcdO\xe0?'
p13
tp14
b(lp15
(lp16
cnumpy.core.multiarray
scalar
p17
(g10
S'\xc9O\xb4_\xd99E@'
p18
tp19
Rp20
ag17
(g10
S'\x85U\xaf\x8a\x9a\x93N@'
p21
tp22
Rp23
aa(lp24
g17
(g10
S'\xe8\xead\xb4\x0b\xb2\x82?'
p25
tp26
Rp27
ag17
(g10
S'D|\x18Q0\x0e\x93?'
p28
tp29
Rp30
aa(lp31
g17
(g10
S'\xaaK`\\|\xf7:@'
p32
tp33
Rp34
ag17
(g10
S'\xaaK`\\|\xf7:@'
p35
tp36
Rp37
aa(lp38
g17
(g10
S'\xe4\xc5\xae_aN\xe0?'
p39
tp40
Rp41
ag17
(g10
S'VT4\xf68Q\xe0?'
p42
tp43
Rp44
aatp45
.