(cnumpy.core.multiarray
_reconstruct
p0
(cnumpy
ndarray
p1
(I0
tp2
S'b'
p3
tp4
Rp5
(I1
(I4
tp6
cnumpy
dtype
p7
(S'f8'
p8
I0
I1
tp9
Rp10
(I3
S'<'
p11
NNNI-1
I-1
I0
tp12
bI00
S'\xc9\xc7\xdcf\xf3fI@1\xebt\xc5`\xe8\x83?1flh\x84\x9a\xe2?3\xbeKn\x18R\xe0?'
p13
tp14
b(lp15
(lp16
cnumpy.core.multiarray
scalar
p17
(g10
S'\xc5%dw\x80EF@'
p18
tp19
Rp20
ag17
(g10
S'\xcdiUVf\x88L@'
p21
tp22
Rp23
aa(lp24
g17
(g10
S'\xfbR\'\xef"\x13~?'
p25
tp26
Rp27
ag17
(g10
S'\xe4,V\x130\xc7\x88?'
p28
tp29
Rp30
aa(lp31
g17
(g10
S'h\xfc\xad\xecaY\xb5\xbf'
p32
tp33
Rp34
ag17
(g10
S'\xf8E7\x87\x1a\xf0\xf3?'
p35
tp36
Rp37
aa(lp38
g17
(g10
S'>\x8d\xca\n\xd8P\xe0?'
p39
tp40
Rp41
ag17
(g10
S'(\xef\xcc\xd1XS\xe0?'
p42
tp43
Rp44
aatp45
.