(cnumpy.core.multiarray
_reconstruct
p0
(cnumpy
ndarray
p1
(I0
tp2
S'b'
p3
tp4
Rp5
(I1
(I4
tp6
cnumpy
dtype
p7
(S'f8'
p8
I0
I1
tp9
Rp10
(I3
S'<'
p11
NNNI-1
I-1
I0
tp12
bI00
S'8\x86\xcd\xe2:\x13R@\xd6\x17oO\xe9e~?RH\xbaw\xdd\xe28@RV\xb9f\x08?\xe0?'
p13
tp14
b(lp15
(lp16
cnumpy.core.multiarray
scalar
p17
(g10
S'\xfc\xac:\xf1b\x0eL@'
p18
tp19
Rp20
ag17
(g10
S'\xf2\xb5\xfdLD\x1fV@'
p21
tp22
Rp23
aa(lp24
g17
(g10
S'I\x01\xce\x12\xf2\x89o?'
p25
tp26
Rp27
ag17
(g10
S'\x84\x97\xbb\xcal\x83\x86?'
p28
tp29
Rp30
aa(lp31
g17
(g10
S'RH\xbaw\xdd\xe28@'
p32
tp33
Rp34
ag17
(g10
S'RH\xbaw\xdd\xe28@'
p35
tp36
Rp37
aa(lp38
g17
(g10
S'[0\x16\x8d\x02=\xe0?'
p39
tp40
Rp41
ag17
(g10
S'I|\\@\x0eA\xe0?'
p42
tp43
Rp44
aatp45
.