(cnumpy.core.multiarray
_reconstruct
p0
(cnumpy
ndarray
p1
(I0
tp2
S'b'
p3
tp4
Rp5
(I1
(I4
tp6
cnumpy
dtype
p7
(S'f8'
p8
I0
I1
tp9
Rp10
(I3
S'<'
p11
NNNI-1
I-1
I0
tp12
bI00
S'\x1c\x97\xa3W\xb7SJ@\xa5\xb3M\xc6|\x10\x90?-<\xe3\x12c\xc98@(\x19\xda\xd0\xe2K\xe0?'
p13
tp14
b(lp15
(lp16
cnumpy.core.multiarray
scalar
p17
(g10
S'D\x03\xf3~E\xd0C@'
p18
tp19
Rp20
ag17
(g10
S'z\x15*\x98\x94kP@'
p21
tp22
Rp23
aa(lp24
g17
(g10
S'\xa0\x1d Swk\x81?'
p25
tp26
Rp27
ag17
(g10
S'zX\x0b\xe3=k\x97?'
p28
tp29
Rp30
aa(lp31
g17
(g10
S'-<\xe3\x12c\xc98@'
p32
tp33
Rp34
ag17
(g10
S'-<\xe3\x12c\xc98@'
p35
tp36
Rp37
aa(lp38
g17
(g10
S'\xe7\xc6\x89\xb4#J\xe0?'
p39
tp40
Rp41
ag17
(g10
S'ik*\xed\xa1M\xe0?'
p42
tp43
Rp44
aatp45
.