(cnumpy.core.multiarray
_reconstruct
p0
(cnumpy
ndarray
p1
(I0
tp2
S'b'
p3
tp4
Rp5
(I1
(I4
tp6
cnumpy
dtype
p7
(S'f8'
p8
I0
I1
tp9
Rp10
(I3
S'<'
p11
NNNI-1
I-1
I0
tp12
bI00
S'>B")\x86\xeaE@\x1c_]F<\xbb\x95?{7\t\x9fmY\x1a@O\xe0#G\xeaX\xe0?'
p13
tp14
b(lp15
(lp16
cnumpy.core.multiarray
scalar
p17
(g10
S':,\x8e.\x89o@@'
p18
tp19
Rp20
ag17
(g10
S'BX\xb6#\x83eK@'
p21
tp22
Rp23
aa(lp24
g17
(g10
S'\x95P\x9a\xf9\xd5l\x88?'
p25
tp26
Rp27
ag17
(g10
S'\xee\x95\xed\x8f\r@\x9f?'
p28
tp29
Rp30
aa(lp31
g17
(g10
S'#\xc2b\x16\xbb\xccv\xc0'
p32
tp33
Rp34
ag17
(g10
S'\xdf\x0b[\x83\x86\x9fw@'
p35
tp36
Rp37
aa(lp38
g17
(g10
S'P{\x8e9>W\xe0?'
p39
tp40
Rp41
ag17
(g10
S'NE\xb9T\x96Z\xe0?'
p42
tp43
Rp44
aatp45
.