(cnumpy.core.multiarray
_reconstruct
p0
(cnumpy
ndarray
p1
(I0
tp2
S'b'
p3
tp4
Rp5
(I1
(I4
tp6
cnumpy
dtype
p7
(S'f8'
p8
I0
I1
tp9
Rp10
(I3
S'<'
p11
NNNI-1
I-1
I0
tp12
bI00
S'\x1c\xfd_s`YG@\xcdo\x93\xd5\x92c\x95?2\x91\xf1\x12Yx1@tox\xee\x96P\xe0?'
p13
tp14
b(lp15
(lp16
cnumpy.core.multiarray
scalar
p17
(g10
S'@\xc4\x9aJNUA@'
p18
tp19
Rp20
ag17
(g10
S'\xf85%\x9cr]M@'
p21
tp22
Rp23
aa(lp24
g17
(g10
S'O8\xcd\x01\xd2j\x87?'
p25
tp26
Rp27
ag17
(g10
S'rC@\xaa\xbc\x11\x9f?'
p28
tp29
Rp30
aa(lp31
g17
(g10
S'2\x91\xf1\x12Yx1@'
p32
tp33
Rp34
ag17
(g10
S'2\x91\xf1\x12Yx1@'
p35
tp36
Rp37
aa(lp38
g17
(g10
S'\x81\xe3\xae\xbd\xf2N\xe0?'
p39
tp40
Rp41
ag17
(g10
S'g\xfbA\x1f;R\xe0?'
p42
tp43
Rp44
aatp45
.