(cnumpy.core.multiarray
_reconstruct
p0
(cnumpy
ndarray
p1
(I0
tp2
S'b'
p3
tp4
Rp5
(I1
(I4
tp6
cnumpy
dtype
p7
(S'f8'
p8
I0
I1
tp9
Rp10
(I3
S'<'
p11
NNNI-1
I-1
I0
tp12
bI00
S'\xb3\xf55|7oH@.\x0c\x0c\xddk\x84\x91?DP\x91\xb6T\x1c9@U{\x91\xdb_>\xe0?'
p13
tp14
b(lp15
(lp16
cnumpy.core.multiarray
scalar
p17
(g10
S'Py\xcah.\x1aB@'
p18
tp19
Rp20
ag17
(g10
S'\x16r\xa1\x8f@\xc4N@'
p21
tp22
Rp23
aa(lp24
g17
(g10
S'M\xfc0#\xee\x7f\x82?'
p25
tp26
Rp27
ag17
(g10
S'6\x9a\x7f\xa8\xe0\xc8\x99?'
p28
tp29
Rp30
aa(lp31
g17
(g10
S'DP\x91\xb6T\x1c9@'
p32
tp33
Rp34
ag17
(g10
S'DP\x91\xb6T\x1c9@'
p35
tp36
Rp37
aa(lp38
g17
(g10
S'dD\xd9\x17\x86<\xe0?'
p39
tp40
Rp41
ag17
(g10
S'F\xb2I\x9f9@\xe0?'
p42
tp43
Rp44
aatp45
.