(cnumpy.core.multiarray
_reconstruct
p0
(cnumpy
ndarray
p1
(I0
tp2
S'b'
p3
tp4
Rp5
(I1
(I4
tp6
cnumpy
dtype
p7
(S'f8'
p8
I0
I1
tp9
Rp10
(I3
S'<'
p11
NNNI-1
I-1
I0
tp12
bI00
S"/\x06\x15\xcdm\x83\\@\xdb4Yx'P\xdf>\x1f\xf8\xd4v\xec\xab\x81?\x9d\xb5\xf7X\xc1\xe4\xdf?"
p13
tp14
b(lp15
(lp16
cnumpy.core.multiarray
scalar
p17
(g10
S'nU\xc31A\x99[@'
p18
tp19
Rp20
ag17
(g10
S'\xf0\xb6fh\x9am]@'
p21
tp22
Rp23
aa(lp24
g17
(g10
S't&\x03\x9f*)\xdf>'
p25
tp26
Rp27
ag17
(g10
S'BC\xafQ$w\xdf>'
p28
tp29
Rp30
aa(lp31
g17
(g10
S'.\x99\x9fu\\7\x80?'
p32
tp33
Rp34
ag17
(g10
S'\x10W\nx| \x83?'
p35
tp36
Rp37
aa(lp38
g17
(g10
S'O\xca.+o\xde\xdf?'
p39
tp40
Rp41
ag17
(g10
S'\xeb\xa0\xc0\x86\x13\xeb\xdf?'
p42
tp43
Rp44
aatp45
.