(cnumpy.core.multiarray
_reconstruct
p0
(cnumpy
ndarray
p1
(I0
tp2
S'b'
p3
tp4
Rp5
(I1
(I4
tp6
cnumpy
dtype
p7
(S'f8'
p8
I0
I1
tp9
Rp10
(I3
S'<'
p11
NNNI-1
I-1
I0
tp12
bI00
S'Z\xb5l(\x9eYD@j\x84\xee\xf9m:\x9b?N\x93;\x16=\x08\xf4?\x8d\xce*\xf5\xb9H\xe0?'
p13
tp14
b(lp15
(lp16
cnumpy.core.multiarray
scalar
p17
(g10
S'\xb4\xe4\xf1\xb4\xd7a>@'
p18
tp19
Rp20
ag17
(g10
S'Zx`vP\x82I@'
p21
tp22
Rp23
aa(lp24
g17
(g10
S'\x80\x1cU[\xf3w\x8f?'
p25
tp26
Rp27
ag17
(g10
S'J=\x19#q\\\xa3?'
p28
tp29
Rp30
aa(lp31
g17
(g10
S'\xe5\x10m\xf2\x06\x19\n\xc0'
p32
tp33
Rp34
ag17
(g10
S'\x1aRT\x04\xa2\x10\x17@'
p35
tp36
Rp37
aa(lp38
g17
(g10
S';8i\x957G\xe0?'
p39
tp40
Rp41
ag17
(g10
S'\xdfd\xecT<J\xe0?'
p42
tp43
Rp44
aatp45
.