(cnumpy.core.multiarray
_reconstruct
p0
(cnumpy
ndarray
p1
(I0
tp2
S'b'
p3
tp4
Rp5
(I1
(I4
tp6
cnumpy
dtype
p7
(S'f8'
p8
I0
I1
tp9
Rp10
(I3
S'<'
p11
NNNI-1
I-1
I0
tp12
bI00
S'7nc\x93\xdd;H@_"C\x87\xecZ\x92?Y\x97\xb1vE*6@M\xa8\xdev\xcfb\xe0?'
p13
tp14
b(lp15
(lp16
cnumpy.core.multiarray
scalar
p17
(g10
S'6I\xf9\xb5)\xe8B@'
p18
tp19
Rp20
ag17
(g10
S'8\x93\xcdp\x91\x8fM@'
p21
tp22
Rp23
aa(lp24
g17
(g10
S'p{\x18\xc8\x8f#\x86?'
p25
tp26
Rp27
ag17
(g10
S'\x06\x07z*\x11\xa4\x99?'
p28
tp29
Rp30
aa(lp31
g17
(g10
S'p\x93\xb1vE*6@'
p32
tp33
Rp34
ag17
(g10
S'B\x9b\xb1vE*6@'
p35
tp36
Rp37
aa(lp38
g17
(g10
S'>\n\x83&La\xe0?'
p39
tp40
Rp41
ag17
(g10
S'\\F:\xc7Rd\xe0?'
p42
tp43
Rp44
aatp45
.