(cnumpy.core.multiarray
_reconstruct
p0
(cnumpy
ndarray
p1
(I0
tp2
S'b'
p3
tp4
Rp5
(I1
(I4
tp6
cnumpy
dtype
p7
(S'f8'
p8
I0
I1
tp9
Rp10
(I3
S'<'
p11
NNNI-1
I-1
I0
tp12
bI00
S'D\x88\xdet\x14\xdfH@@-\x07\xc9rt\x8d?\xe94\xf4\x12X\xc4\xe0?Lw\x1a9\x9aG\xe0?'
p13
tp14
b(lp15
(lp16
cnumpy.core.multiarray
scalar
p17
(g10
S'4{m\xec\x82vD@'
p18
tp19
Rp20
ag17
(g10
S'T\x95O\xfd\xa5GM@'
p21
tp22
Rp23
aa(lp24
g17
(g10
S'u\xbb\x1b\x9e\x01\xd8\x83?'
p25
tp26
Rp27
ag17
(g10
S'\x86O\xf9\xf9q\x88\x93?'
p28
tp29
Rp30
aa(lp31
g17
(g10
S'hXH\xbaOI\xcd\xbf'
p32
tp33
Rp34
ag17
(g10
S'\xf6?=\n\x82m\xf4?'
p35
tp36
Rp37
aa(lp38
g17
(g10
S'F\xc4A\x887F\xe0?'
p39
tp40
Rp41
ag17
(g10
S'R*\xf3\xe9\xfcH\xe0?'
p42
tp43
Rp44
aatp45
.