(cnumpy.core.multiarray
_reconstruct
p0
(cnumpy
ndarray
p1
(I0
tp2
S'b'
p3
tp4
Rp5
(I1
(I4
tp6
cnumpy
dtype
p7
(S'f8'
p8
I0
I1
tp9
Rp10
(I3
S'<'
p11
NNNI-1
I-1
I0
tp12
bI00
S'!h\x02\xeefPK@\x0e1?P?\x0c\x84?\x0eO4\x84{\xfe:@\xca\xe4\xbc\xd11[\xe0?'
p13
tp14
b(lp15
(lp16
cnumpy.core.multiarray
scalar
p17
(g10
S'kJ\x8d\xba\xf5AG@'
p18
tp19
Rp20
ag17
(g10
S'\xd7\x85w!\xd8^O@'
p21
tp22
Rp23
aa(lp24
g17
(g10
S'\xb6\xd3\x17\xfa\xc2\x06|?'
p25
tp26
Rp27
ag17
(g10
S'Axr#\x1d\x15\x8a?'
p28
tp29
Rp30
aa(lp31
g17
(g10
S'\x0eO4\x84{\xfe:@'
p32
tp33
Rp34
ag17
(g10
S'\x0eO4\x84{\xfe:@'
p35
tp36
Rp37
aa(lp38
g17
(g10
S'T\x85bD\xc2Y\xe0?'
p39
tp40
Rp41
ag17
(g10
S'@D\x17_\xa1\\\xe0?'
p42
tp43
Rp44
aatp45
.