(cnumpy.core.multiarray
_reconstruct
p0
(cnumpy
ndarray
p1
(I0
tp2
S'b'
p3
tp4
Rp5
(I1
(I4
tp6
cnumpy
dtype
p7
(S'f8'
p8
I0
I1
tp9
Rp10
(I3
S'<'
p11
NNNI-1
I-1
I0
tp12
bI00
S'-\xcb\x02\xf0\xde L@0&\x1b\x88\xb1x\x80?\xf5\x825@\x05w\xb7?*\x84_u\x05]\xe0?'
p13
tp14
b(lp15
(lp16
cnumpy.core.multiarray
scalar
p17
(g10
S'\xa2\x03\xb1~~\xb1H@'
p18
tp19
Rp20
ag17
(g10
S'\xb8\x92Ta?\x90O@'
p21
tp22
Rp23
aa(lp24
g17
(g10
S'\xa6\x12\xd6]u\xdfx?'
p25
tp26
Rp27
ag17
(g10
S'\rCKa\xa8\x81\x84?'
p28
tp29
Rp30
aa(lp31
g17
(g10
S'V\xbe\xbc^LO\xaa?'
p32
tp33
Rp34
ag17
(g10
S'`S\x86(2\xe3\xc0?'
p35
tp36
Rp37
aa(lp38
g17
(g10
S'\xb4\x8f\xc7\xb3\xbf[\xe0?'
p39
tp40
Rp41
ag17
(g10
S'\xa0x\xf76K^\xe0?'
p42
tp43
Rp44
aatp45
.