(cnumpy.core.multiarray
_reconstruct
p0
(cnumpy
ndarray
p1
(I0
tp2
S'b'
p3
tp4
Rp5
(I1
(I4
tp6
cnumpy
dtype
p7
(S'f8'
p8
I0
I1
tp9
Rp10
(I3
S'<'
p11
NNNI-1
I-1
I0
tp12
bI00
S'%Q~\x11\xed5a@d5\xd9\xa6\x0el\xd1>\x1e)&#4\xd2\x80?\xe8j\x04(f\xff\xdf?'
p13
tp14
b(lp15
(lp16
cnumpy.core.multiarray
scalar
p17
(g10
S'\xc4\xebhkm6`@'
p18
tp19
Rp20
ag17
(g10
S'\x86\xb6\x93\xb7l5b@'
p21
tp22
Rp23
aa(lp24
g17
(g10
S'\x94N\xf4H\x0e\x1b\xf2\xbe'
p25
tp26
Rp27
ag17
(g10
S'F\xe9`\x9c\x15\xd1\xfa>'
p28
tp29
Rp30
aa(lp31
g17
(g10
S'\xba\xfb\x8c\x14b6|?'
p32
tp33
Rp34
ag17
(g10
S'_\xd4\x05<7\x89\x83?'
p35
tp36
Rp37
aa(lp38
g17
(g10
S'\xf1r\x9a\xa8!l\xdf?'
p39
tp40
Rp41
ag17
(g10
S'p1\xb7SUI\xe0?'
p42
tp43
Rp44
aatp45
.