(cnumpy.core.multiarray
_reconstruct
p0
(cnumpy
ndarray
p1
(I0
tp2
S'b'
p3
tp4
Rp5
(I1
(I4
tp6
cnumpy
dtype
p7
(S'f8'
p8
I0
I1
tp9
Rp10
(I3
S'<'
p11
NNNI-1
I-1
I0
tp12
bI00
S"\x0bE\xa4$\x03kM@'d\x1f\xde\x92\xd2\x85?\xf9\x81\xb4Cek,@\xc2[\x8ac\xa9w\xe0?"
p13
tp14
b(lp15
(lp16
cnumpy.core.multiarray
scalar
p17
(g10
S'\x96\x8c\tO\xae\x91F@'
p18
tp19
Rp20
ag17
(g10
S'\xc0~\x1f\xfd+"R@'
p21
tp22
Rp23
aa(lp24
g17
(g10
S'&\xd6\xa55}ew?'
p25
tp26
Rp27
ag17
(g10
S';\xddk!g\xf2\x8f?'
p28
tp29
Rp30
aa(lp31
g17
(g10
S'\xf9\x81\xb4Cek,@'
p32
tp33
Rp34
ag17
(g10
S'\xf9\x81\xb4Cek,@'
p35
tp36
Rp37
aa(lp38
g17
(g10
S's\xca\x9c\xb5\xb6u\xe0?'
p39
tp40
Rp41
ag17
(g10
S'\x11\xedw\x11\x9cy\xe0?'
p42
tp43
Rp44
aatp45
.