(cnumpy.core.multiarray
_reconstruct
p0
(cnumpy
ndarray
p1
(I0
tp2
S'b'
p3
tp4
Rp5
(I1
(I2
tp6
cnumpy
dtype
p7
(S'f8'
p8
I0
I1
tp9
Rp10
(I3
S'<'
p11
NNNI-1
I-1
I0
tp12
bI00
S'\xa8\xe7>\xf7\xeeL\x12@\xa4\x0e\xb8\x11p\xd5\xe0?'
p13
tp14
b(lp15
(lp16
cnumpy.core.multiarray
scalar
p17
(g10
S'\x02\xb4Gi\x0f\x8dv\xc0'
p18
tp19
Rp20
ag17
(g10
S'@\xab\x01\xe1v\x1fw@'
p21
tp22
Rp23
aa(lp24
g17
(g10
S'\x04\xeb\x0ci\xd1\xd3\xe0?'
p25
tp26
Rp27
ag17
(g10
S'D2c\xba\x0e\xd7\xe0?'
p28
tp29
Rp30
aatp31
.