(cnumpy.core.multiarray
_reconstruct
p0
(cnumpy
ndarray
p1
(I0
tp2
S'b'
p3
tp4
Rp5
(I1
(I2
tp6
cnumpy
dtype
p7
(S'f8'
p8
I0
I1
tp9
Rp10
(I3
S'<'
p11
NNNI-1
I-1
I0
tp12
bI00
S'\x1cf\xb5(\x00V\xf2?\xe1\x05\x15H\x08\xb6\xe0?'
p13
tp14
b(lp15
(lp16
cnumpy.core.multiarray
scalar
p17
(g10
S'\x18Rx\x11["*\xc0'
p18
tp19
Rp20
ag17
(g10
S'\x9e\xab\xa5\x1b\xdb\xb7.@'
p21
tp22
Rp23
aa(lp24
g17
(g10
S'\xd2\x16\xf7\xa7M\xb4\xe0?'
p25
tp26
Rp27
ag17
(g10
S'\xf0\xf42\xe8\xc2\xb7\xe0?'
p28
tp29
Rp30
aatp31
.