(cnumpy.core.multiarray
_reconstruct
p0
(cnumpy
ndarray
p1
(I0
tp2
S'b'
p3
tp4
Rp5
(I1
(I2
tp6
cnumpy
dtype
p7
(S'f8'
p8
I0
I1
tp9
Rp10
(I3
S'<'
p11
NNNI-1
I-1
I0
tp12
bI00
S'\xc0\x07\x01\xd6$\x12\xf2?q\xe4\xc1?\xed\xca\xe0?'
p13
tp14
b(lp15
(lp16
cnumpy.core.multiarray
scalar
p17
(g10
S'\x14\xa1\xa1?x\x8b!\xc0'
p18
tp19
Rp20
ag17
(g10
S'\x04\xe3!u\x01\x10&@'
p21
tp22
Rp23
aa(lp24
g17
(g10
S'>r\\\x86\xaf\xc9\xe0?'
p25
tp26
Rp27
ag17
(g10
S"\xa4V'\xf9*\xcc\xe0?"
p28
tp29
Rp30
aatp31
.