(cnumpy.core.multiarray
_reconstruct
p0
(cnumpy
ndarray
p1
(I0
tp2
S'b'
p3
tp4
Rp5
(I1
(I2
tp6
cnumpy
dtype
p7
(S'f8'
p8
I0
I1
tp9
Rp10
(I3
S'<'
p11
NNNI-1
I-1
I0
tp12
bI00
S'y\xc9\xf8\x1c:\xd1\xea?\xb3 \xa5\x99\xde\xe0\xe0?'
p13
tp14
b(lp15
(lp16
cnumpy.core.multiarray
scalar
p17
(g10
S'\x1b8Mh\xe9\xb1\x16\xc0'
p18
tp19
Rp20
ag17
(g10
S'yj\x8b\xef7f\x1d@'
p21
tp22
Rp23
aa(lp24
g17
(g10
S'S\x08\xf6V\x0c\xdf\xe0?'
p25
tp26
Rp27
ag17
(g10
S'\x139T\xdc\xb0\xe2\xe0?'
p28
tp29
Rp30
aatp31
.