(cnumpy.core.multiarray
_reconstruct
p0
(cnumpy
ndarray
p1
(I0
tp2
S'b'
p3
tp4
Rp5
(I1
(I2
tp6
cnumpy
dtype
p7
(S'f8'
p8
I0
I1
tp9
Rp10
(I3
S'<'
p11
NNNI-1
I-1
I0
tp12
bI00
S'#$\xe87\xcd\x11\xd2?\xea\xb0\xa31S\xb7\xe0?'
p13
tp14
b(lp15
(lp16
cnumpy.core.multiarray
scalar
p17
(g10
S'\xa1J4\x86\x82\x0c\xdb\xbf'
p18
tp19
Rp20
ag17
(g10
S'tI\x02{\x0e\x98\xef?'
p21
tp22
Rp23
aa(lp24
g17
(g10
S'\xf6<J\x1fx\xb5\xe0?'
p25
tp26
Rp27
ag17
(g10
S'\xde$\xfdC.\xb9\xe0?'
p28
tp29
Rp30
aatp31
.