(cnumpy.core.multiarray
_reconstruct
p0
(cnumpy
ndarray
p1
(I0
tp2
S'b'
p3
tp4
Rp5
(I1
(I2
tp6
cnumpy
dtype
p7
(S'f8'
p8
I0
I1
tp9
Rp10
(I3
S'<'
p11
NNNI-1
I-1
I0
tp12
bI00
S'\xd5\xa36y\xa2j\r@\x06~\x12\xb2x\xb7\xe0?'
p13
tp14
b(lp15
(lp16
cnumpy.core.multiarray
scalar
p17
(g10
S'\x13\xcd\xf2\x93a`f\xc0'
p18
tp19
Rp20
ag17
(g10
S'1\x82\xbc\xa7\xb6Kg@'
p21
tp22
Rp23
aa(lp24
g17
(g10
S'P\xe1N\xa1\xb9\xb5\xe0?'
p25
tp26
Rp27
ag17
(g10
S'\xbc\x1a\xd6\xc27\xb9\xe0?'
p28
tp29
Rp30
aatp31
.