(cnumpy.core.multiarray
_reconstruct
p0
(cnumpy
ndarray
p1
(I0
tp2
S'b'
p3
tp4
Rp5
(I1
(I2
tp6
cnumpy
dtype
p7
(S'f8'
p8
I0
I1
tp9
Rp10
(I3
S'<'
p11
NNNI-1
I-1
I0
tp12
bI00
S'):O\\0\xfe\x14@\x15\xb6\xe0Xj\x04\xe1?'
p13
tp14
b(lp15
(lp16
cnumpy.core.multiarray
scalar
p17
(g10
S'\x00\xcay0\xa1\x90\x80\xc0'
p18
tp19
Rp20
ag17
(g10
S'\xe8\x06\xeb\xf1\x99\xe4\x80@'
p21
tp22
Rp23
aa(lp24
g17
(g10
S'\xae/\xac}\x9c\x02\xe1?'
p25
tp26
Rp27
ag17
(g10
S'|<\x1548\x06\xe1?'
p28
tp29
Rp30
aatp31
.