(cnumpy.core.multiarray
_reconstruct
p0
(cnumpy
ndarray
p1
(I0
tp2
S'b'
p3
tp4
Rp5
(I1
(I2
tp6
cnumpy
dtype
p7
(S'f8'
p8
I0
I1
tp9
Rp10
(I3
S'<'
p11
NNNI-1
I-1
I0
tp12
bI00
S'\x03l\x9e`*w\x1e@\xf4\x8d\xb1\xbe\xfd\xd2\xe0?'
p13
tp14
b(lp15
(lp16
cnumpy.core.multiarray
scalar
p17
(g10
S'T\x8f\xbcc\xee\xef\xa3\xc0'
p18
tp19
Rp20
ag17
(g10
S'\xc0-\x1d\x8ee\x0e\xa4@'
p21
tp22
Rp23
aa(lp24
g17
(g10
S'\xab|\t\xca=\xd1\xe0?'
p25
tp26
Rp27
ag17
(g10
S'=\x9fY\xb3\xbd\xd4\xe0?'
p28
tp29
Rp30
aatp31
.