(cnumpy.core.multiarray
_reconstruct
p0
(cnumpy
ndarray
p1
(I0
tp2
S'b'
p3
tp4
Rp5
(I1
(I2
tp6
cnumpy
dtype
p7
(S'f8'
p8
I0
I1
tp9
Rp10
(I3
S'<'
p11
NNNI-1
I-1
I0
tp12
bI00
S'\x86Q\xb0\xa3W\xa8\xf0?P\xab\x94\x96f\xc2\xe0?'
p13
tp14
b(lp15
(lp16
cnumpy.core.multiarray
scalar
p17
(g10
S'\x13\x9c\x9f\xd0\x0eV!\xc0'
p18
tp19
Rp20
ag17
(g10
S'u\xb0\x8b\xb9$\x80%@'
p21
tp22
Rp23
aa(lp24
g17
(g10
S'Q\xdf\xa2\xab\xe0\xc0\xe0?'
p25
tp26
Rp27
ag17
(g10
S'Ow\x86\x81\xec\xc3\xe0?'
p28
tp29
Rp30
aatp31
.