(cnumpy.core.multiarray
_reconstruct
p0
(cnumpy
ndarray
p1
(I0
tp2
S'b'
p3
tp4
Rp5
(I1
(I2
tp6
cnumpy
dtype
p7
(S'f8'
p8
I0
I1
tp9
Rp10
(I3
S'<'
p11
NNNI-1
I-1
I0
tp12
bI00
S'\xd4$\xa1\xf4k\xb3\x16@S41\xb7\xed\xca\xe0?'
p13
tp14
b(lp15
(lp16
cnumpy.core.multiarray
scalar
p17
(g10
S'\xf8\xc3\xa9j\xb3\xce|\xc0'
p18
tp19
Rp20
ag17
(g10
S'\x1e\xcdN\xcaN\x84}@'
p21
tp22
Rp23
aa(lp24
g17
(g10
S'D\x8bu\xf9\xaf\xc9\xe0?'
p25
tp26
Rp27
ag17
(g10
S'b\xdd\xect+\xcc\xe0?'
p28
tp29
Rp30
aatp31
.