(cnumpy.core.multiarray
_reconstruct
p0
(cnumpy
ndarray
p1
(I0
tp2
S'b'
p3
tp4
Rp5
(I1
(I2
tp6
cnumpy
dtype
p7
(S'f8'
p8
I0
I1
tp9
Rp10
(I3
S'<'
p11
NNNI-1
I-1
I0
tp12
bI00
S'(\x1f\xe2\x1c}U\xef?\x8e\x1d\x176i\x9c\xe0?'
p13
tp14
b(lp15
(lp16
cnumpy.core.multiarray
scalar
p17
(g10
S'\x02\xd6\xd5\xccs\xd1\xfb\xbf'
p18
tp19
Rp20
ag17
(g10
S'\x95\xfa\xdbtx\x93\r@'
p21
tp22
Rp23
aa(lp24
g17
(g10
S'\x89\x0f\xe4+\xd2\x9a\xe0?'
p25
tp26
Rp27
ag17
(g10
S'\x93+J@\x00\x9e\xe0?'
p28
tp29
Rp30
aatp31
.