(cnumpy.core.multiarray
_reconstruct
p0
(cnumpy
ndarray
p1
(I0
tp2
S'b'
p3
tp4
Rp5
(I1
(I2
tp6
cnumpy
dtype
p7
(S'f8'
p8
I0
I1
tp9
Rp10
(I3
S'<'
p11
NNNI-1
I-1
I0
tp12
bI00
S'qJ\xd1(\x97\xf9\xba?\xaf, 0\x17\x07\xe1?'
p13
tp14
b(lp15
(lp16
cnumpy.core.multiarray
scalar
p17
(g10
S'@g\n\xbd\xaf|a?'
p18
tp19
Rp20
ag17
(g10
S'\xd4 \xddi\xa4\xb3\xca?'
p21
tp22
Rp23
aa(lp24
g17
(g10
S'NB@\xec\xff\x04\xe1?'
p25
tp26
Rp27
ag17
(g10
S'\x10\x17\x00t.\t\xe1?'
p28
tp29
Rp30
aatp31
.