(cnumpy.core.multiarray
_reconstruct
p0
(cnumpy
ndarray
p1
(I0
tp2
S'b'
p3
tp4
Rp5
(I1
(I2
tp6
cnumpy
dtype
p7
(S'f8'
p8
I0
I1
tp9
Rp10
(I3
S'<'
p11
NNNI-1
I-1
I0
tp12
bI00
S'Y\x00\xf1\xe0\xdbM\x12@\xc0\x9d \xf1\xa9\x0b\xe1?'
p13
tp14
b(lp15
(lp16
cnumpy.core.multiarray
scalar
p17
(g10
S'\x8d\xad\x051\xe6\xd6v\xc0'
p18
tp19
Rp20
ag17
(g10
S'\x8f5\r\x10Uiw@'
p21
tp22
Rp23
aa(lp24
g17
(g10
S'\xf5\x06\xcc\x16\xc5\t\xe1?'
p25
tp26
Rp27
ag17
(g10
S'\x8b4u\xcb\x8e\r\xe1?'
p28
tp29
Rp30
aatp31
.