(cnumpy.core.multiarray
_reconstruct
p0
(cnumpy
ndarray
p1
(I0
tp2
S'b'
p3
tp4
Rp5
(I1
(I2
tp6
cnumpy
dtype
p7
(S'f8'
p8
I0
I1
tp9
Rp10
(I3
S'<'
p11
NNNI-1
I-1
I0
tp12
bI00
S'\x18\x81\x03\xf7\xfb#\x1f@[V\x15\xb4\xad\xd9\xe0?'
p13
tp14
b(lp15
(lp16
cnumpy.core.multiarray
scalar
p17
(g10
S'\x8b\xaf{\xddD\xb1\xa1\xc0'
p18
tp19
Rp20
ag17
(g10
S'\r\xb3r\xd9h\xd0\xa1@'
p21
tp22
Rp23
aa(lp24
g17
(g10
S'\x11Q&?\xcc\xd7\xe0?'
p25
tp26
Rp27
ag17
(g10
S'\xa5[\x04)\x8f\xdb\xe0?'
p28
tp29
Rp30
aatp31
.