(cnumpy.core.multiarray
_reconstruct
p0
(cnumpy
ndarray
p1
(I0
tp2
S'b'
p3
tp4
Rp5
(I1
(I2
tp6
cnumpy
dtype
p7
(S'f8'
p8
I0
I1
tp9
Rp10
(I3
S'<'
p11
NNNI-1
I-1
I0
tp12
bI00
S'&R\x8e\xeb\xe2\xf9\x18@\x94Pk)0\x0b\xe1?'
p13
tp14
b(lp15
(lp16
cnumpy.core.multiarray
scalar
p17
(g10
S'\x13\xa9\xb1\xc3 \xc6\x98\xc0'
p18
tp19
Rp20
ag17
(g10
S'\xb7\xc5\x88\x89\x14\xf8\x98@'
p21
tp22
Rp23
aa(lp24
g17
(g10
S'<@\xf05$\t\xe1?'
p25
tp26
Rp27
ag17
(g10
S'\xec`\xe6\x1c<\r\xe1?'
p28
tp29
Rp30
aatp31
.