(cnumpy.core.multiarray
_reconstruct
p0
(cnumpy
ndarray
p1
(I0
tp2
S'b'
p3
tp4
Rp5
(I1
(I2
tp6
cnumpy
dtype
p7
(S'f8'
p8
I0
I1
tp9
Rp10
(I3
S'<'
p11
NNNI-1
I-1
I0
tp12
bI00
S'$\x0e\x06,\x8b\x1e\xf8?z\xd8\x98<\xdd\xe7\xe0?'
p13
tp14
b(lp15
(lp16
cnumpy.core.multiarray
scalar
p17
(g10
S'\xe7Z:\xbcJ*;\xc0'
p18
tp19
Rp20
ag17
(g10
S'\xab\x1c\xbb!\x1c.>@'
p21
tp22
Rp23
aa(lp24
g17
(g10
S'M\x04\\\x80\x1b\xe6\xe0?'
p25
tp26
Rp27
ag17
(g10
S'\xa7\xac\xd5\xf8\x9e\xe9\xe0?'
p28
tp29
Rp30
aatp31
.