(cnumpy.core.multiarray
_reconstruct
p0
(cnumpy
ndarray
p1
(I0
tp2
S'b'
p3
tp4
Rp5
(I1
(I2
tp6
cnumpy
dtype
p7
(S'f8'
p8
I0
I1
tp9
Rp10
(I3
S'<'
p11
NNNI-1
I-1
I0
tp12
bI00
S'\xd7\x8e\xc2\xc3H.\xf0?X)\xdc\x11U\xea\xe0?'
p13
tp14
b(lp15
(lp16
cnumpy.core.multiarray
scalar
p17
(g10
S'\xee\xf7\xd6O\xe9\x8d \xc0'
p18
tp19
Rp20
ag17
(g10
S'\xa4\x9b\xc7\x80{\x99$@'
p21
tp22
Rp23
aa(lp24
g17
(g10
S'\x83\x07\xa4\x0b\xa0\xe8\xe0?'
p25
tp26
Rp27
ag17
(g10
S'-K\x14\x18\n\xec\xe0?'
p28
tp29
Rp30
aatp31
.