(cnumpy.core.multiarray
_reconstruct
p0
(cnumpy
ndarray
p1
(I0
tp2
S'b'
p3
tp4
Rp5
(I1
(I2
tp6
cnumpy
dtype
p7
(S'f8'
p8
I0
I1
tp9
Rp10
(I3
S'<'
p11
NNNI-1
I-1
I0
tp12
bI00
S'Q\x08\x05\x87e\xd1\x03@\xa6<Z<\x02\x08\xe1?'
p13
tp14
b(lp15
(lp16
cnumpy.core.multiarray
scalar
p17
(g10
S'\x99\x1e\xd9\x12\xc6\xd9I\xc0'
p18
tp19
Rp20
ag17
(g10
S'\xa3\xbf\xb9\xc3\xf2SL@'
p21
tp22
Rp23
aa(lp24
g17
(g10
S's\x04\xb5\xb1g\x06\xe1?'
p25
tp26
Rp27
ag17
(g10
S'\xd9t\xff\xc6\x9c\t\xe1?'
p28
tp29
Rp30
aatp31
.