(cnumpy.core.multiarray
_reconstruct
p0
(cnumpy
ndarray
p1
(I0
tp2
S'b'
p3
tp4
Rp5
(I1
(I2
tp6
cnumpy
dtype
p7
(S'f8'
p8
I0
I1
tp9
Rp10
(I3
S'<'
p11
NNNI-1
I-1
I0
tp12
bI00
S'\x14\xc5\xe5D\xe6G\xf7?\x16\x1c\x93\x91b\x05\xe1?'
p13
tp14
b(lp15
(lp16
cnumpy.core.multiarray
scalar
p17
(g10
S'-\xdc\xe6:@\xf78\xc0'
p18
tp19
Rp20
ag17
(g10
S'\xcf\x94\x83\x03=\xe0;@'
p21
tp22
Rp23
aa(lp24
g17
(g10
S'\x01\xa8IZb\x03\xe1?'
p25
tp26
Rp27
ag17
(g10
S'+\x90\xdc\xc8b\x07\xe1?'
p28
tp29
Rp30
aatp31
.