(cnumpy.core.multiarray
_reconstruct
p0
(cnumpy
ndarray
p1
(I0
tp2
S'b'
p3
tp4
Rp5
(I1
(I2
tp6
cnumpy
dtype
p7
(S'f8'
p8
I0
I1
tp9
Rp10
(I3
S'<'
p11
NNNI-1
I-1
I0
tp12
bI00
S'v\xdcr\xf0\xd8\x85\x00@\xd4n\x1c8\x81\xc8\xe0?'
p13
tp14
b(lp15
(lp16
cnumpy.core.multiarray
scalar
p17
(g10
S'\x837KH\xe6\x05L\xc0'
p18
tp19
Rp20
ag17
(g10
S'\x11\x93Yf\xa1\x16N@'
p21
tp22
Rp23
aa(lp24
g17
(g10
S'\x8f\x82\x83W\xc4\xc6\xe0?'
p25
tp26
Rp27
ag17
(g10
S'\x19[\xb5\x18>\xca\xe0?'
p28
tp29
Rp30
aatp31
.