(cnumpy.core.multiarray
_reconstruct
p0
(cnumpy
ndarray
p1
(I0
tp2
S'b'
p3
tp4
Rp5
(I1
(I2
tp6
cnumpy
dtype
p7
(S'f8'
p8
I0
I1
tp9
Rp10
(I3
S'<'
p11
NNNI-1
I-1
I0
tp12
bI00
S'7\xe7\x89\xfe&\xd8\xcf?\xda\x94\xdb\xa8L\xa5\xe0?'
p13
tp14
b(lp15
(lp16
cnumpy.core.multiarray
scalar
p17
(g10
S'FW\xd3Yb\n\xb8\xbf'
p18
tp19
Rp20
ag17
(g10
S'\x84^\x7f\xca_\xed\xe2?'
p21
tp22
Rp23
aa(lp24
g17
(g10
S'7\xa2\xfb\xbd\xad\xa3\xe0?'
p25
tp26
Rp27
ag17
(g10
S'}\x87\xbb\x93\xeb\xa6\xe0?'
p28
tp29
Rp30
aatp31
.