(cnumpy.core.multiarray
_reconstruct
p0
(cnumpy
ndarray
p1
(I0
tp2
S'b'
p3
tp4
Rp5
(I1
(I2
tp6
cnumpy
dtype
p7
(S'f8'
p8
I0
I1
tp9
Rp10
(I3
S'<'
p11
NNNI-1
I-1
I0
tp12
bI00
S'\x94\xcc\x90\x88]1\x0b@\xd9\x89\x19\xea3\xe5\xe0?'
p13
tp14
b(lp15
(lp16
cnumpy.core.multiarray
scalar
p17
(g10
S"'|3\xc9\x07\xfbi\xc0"
p18
tp19
Rp20
ag17
(g10
S'\x8b\x02x\xb5\x92\xd4j@'
p21
tp22
Rp23
aa(lp24
g17
(g10
S'\x9d{\xe1\xe9M\xe3\xe0?'
p25
tp26
Rp27
ag17
(g10
S'\x15\x98Q\xea\x19\xe7\xe0?'
p28
tp29
Rp30
aatp31
.