(cnumpy.core.multiarray
_reconstruct
p0
(cnumpy
ndarray
p1
(I0
tp2
S'b'
p3
tp4
Rp5
(I1
(I2
tp6
cnumpy
dtype
p7
(S'f8'
p8
I0
I1
tp9
Rp10
(I3
S'<'
p11
NNNI-1
I-1
I0
tp12
bI00
S'\xfd\xa7\xa7L0^\xe2?\x1d\x084\x8ay\x89\xe0?'
p13
tp14
b(lp15
(lp16
cnumpy.core.multiarray
scalar
p17
(g10
S'\xfc\xd4\xd2_*\xbf\xf3\xbf'
p18
tp19
Rp20
ag17
(g10
S'|>=V\xad\x0e\x03@'
p21
tp22
Rp23
aa(lp24
g17
(g10
S'\x13B\x81^\xce\x87\xe0?'
p25
tp26
Rp27
ag17
(g10
S"'\xce\xe6\xb5$\x8b\xe0?"
p28
tp29
Rp30
aatp31
.