(cnumpy.core.multiarray
_reconstruct
p0
(cnumpy
ndarray
p1
(I0
tp2
S'b'
p3
tp4
Rp5
(I1
(I2
tp6
cnumpy
dtype
p7
(S'f8'
p8
I0
I1
tp9
Rp10
(I3
S'<'
p11
NNNI-1
I-1
I0
tp12
bI00
S'>f\xfeM\xb9\x10\xc1?\x80\x18\xf2t\xdd\n\xe1?'
p13
tp14
b(lp15
(lp16
cnumpy.core.multiarray
scalar
p17
(g10
S'\x00)h\x80\x92fx\xbf'
p18
tp19
Rp20
ag17
(g10
S'\xe2\x06\x00\x98Sr\xd1?'
p21
tp22
Rp23
aa(lp24
g17
(g10
S'\xd7\xb7\xd1\xe8\xf3\x08\xe1?'
p25
tp26
Rp27
ag17
(g10
S')y\x12\x01\xc7\x0c\xe1?'
p28
tp29
Rp30
aatp31
.