(cnumpy.core.multiarray
_reconstruct
p0
(cnumpy
ndarray
p1
(I0
tp2
S'b'
p3
tp4
Rp5
(I1
(I2
tp6
cnumpy
dtype
p7
(S'f8'
p8
I0
I1
tp9
Rp10
(I3
S'<'
p11
NNNI-1
I-1
I0
tp12
bI00
S'S\xf3\x8d%\xb0\x92\xf2?\x1a\x0f\xeaO\x1e\x05\xe1?'
p13
tp14
b(lp15
(lp16
cnumpy.core.multiarray
scalar
p17
(g10
S'Y\x99~\x19\xabK+\xc0'
p18
tp19
Rp20
ag17
(g10
S'-\x16\xe2"W\xf0/@'
p21
tp22
Rp23
aa(lp24
g17
(g10
S'\xc4\x8c~\xc1\x1a\x03\xe1?'
p25
tp26
Rp27
ag17
(g10
S'p\x91U\xde!\x07\xe1?'
p28
tp29
Rp30
aatp31
.