(cnumpy.core.multiarray
_reconstruct
p0
(cnumpy
ndarray
p1
(I0
tp2
S'b'
p3
tp4
Rp5
(I1
(I2
tp6
cnumpy
dtype
p7
(S'f8'
p8
I0
I1
tp9
Rp10
(I3
S'<'
p11
NNNI-1
I-1
I0
tp12
bI00
S'\x10\xb9\xb9\xd9\x80\xe5b?7\x84]G\xb7\x05\xe1?'
p13
tp14
b(lp15
(lp16
cnumpy.core.multiarray
scalar
p17
(g10
S'QN\xbf(\xb9$q\xbf'
p18
tp19
Rp20
ag17
(g10
S'\xb0\x83<\x01\x1d\x05\x82?'
p21
tp22
Rp23
aa(lp24
g17
(g10
S'\x0b\xd8\xac\xbb\xf9\x02\xe1?'
p25
tp26
Rp27
ag17
(g10
S'c0\x0e\xd3t\x08\xe1?'
p28
tp29
Rp30
aatp31
.