(cnumpy.core.multiarray
_reconstruct
p0
(cnumpy
ndarray
p1
(I0
tp2
S'b'
p3
tp4
Rp5
(I1
(I2
tp6
cnumpy
dtype
p7
(S'f8'
p8
I0
I1
tp9
Rp10
(I3
S'<'
p11
NNNI-1
I-1
I0
tp12
bI00
S'\xccCH5\xed\xf7\x04@\x98\x15*\xe1\xca\x8f\xe0?'
p13
tp14
b(lp15
(lp16
cnumpy.core.multiarray
scalar
p17
(g10
S'a\x88s\x05\x8c\xb2U\xc0'
p18
tp19
Rp20
ag17
(g10
S'\x9d\x0c\xc8\xd8\n\x02W@'
p21
tp22
Rp23
aa(lp24
g17
(g10
S'\x0c\r^\x11-\x8e\xe0?'
p25
tp26
Rp27
ag17
(g10
S'$\x1e\xf6\xb0h\x91\xe0?'
p28
tp29
Rp30
aatp31
.