(cnumpy.core.multiarray
_reconstruct
p0
(cnumpy
ndarray
p1
(I0
tp2
S'b'
p3
tp4
Rp5
(I1
(I2
tp6
cnumpy
dtype
p7
(S'f8'
p8
I0
I1
tp9
Rp10
(I3
S'<'
p11
NNNI-1
I-1
I0
tp12
bI00
S'\x16\x06\xac2\xbc\xad\xf2?\xde\xdf\x84\x0b\xcd\xc5\xe0?'
p13
tp14
b(lp15
(lp16
cnumpy.core.multiarray
scalar
p17
(g10
S'J\xba\xf4\x86\x0bk\x1c\xc0'
p18
tp19
Rp20
ag17
(g10
S'\xab^%\xd0\xf4\xe0"@'
p21
tp22
Rp23
aa(lp24
g17
(g10
S'\x13_iQD\xc4\xe0?'
p25
tp26
Rp27
ag17
(g10
S'\xa9`\xa0\xc5U\xc7\xe0?'
p28
tp29
Rp30
aatp31
.