(cnumpy.core.multiarray
_reconstruct
p0
(cnumpy
ndarray
p1
(I0
tp2
S'b'
p3
tp4
Rp5
(I1
(I2
tp6
cnumpy
dtype
p7
(S'f8'
p8
I0
I1
tp9
Rp10
(I3
S'<'
p11
NNNI-1
I-1
I0
tp12
bI00
S'\x8ck\x92\xfaUA\x0c@\x05\xdb\xa7\xf7\xe5\x13\xe1?'
p13
tp14
b(lp15
(lp16
cnumpy.core.multiarray
scalar
p17
(g10
S'\x1a\xdb\xcfRL4n\xc0'
p18
tp19
Rp20
ag17
(g10
S'vn\xa4\x02W\x16o@'
p21
tp22
Rp23
aa(lp24
g17
(g10
S'\x97\x1c\x94^\xf6\x11\xe1?'
p25
tp26
Rp27
ag17
(g10
S's\x99\xbb\x90\xd5\x15\xe1?'
p28
tp29
Rp30
aatp31
.