(cnumpy.core.multiarray
_reconstruct
p0
(cnumpy
ndarray
p1
(I0
tp2
S'b'
p3
tp4
Rp5
(I1
(I2
tp6
cnumpy
dtype
p7
(S'f8'
p8
I0
I1
tp9
Rp10
(I3
S'<'
p11
NNNI-1
I-1
I0
tp12
bI00
S'\x83\xe2\x8aB:4\xa2?\xbe{\xe5\x9a\x9a\x9e\xe0?'
p13
tp14
b(lp15
(lp16
cnumpy.core.multiarray
scalar
p17
(g10
S'\xc4\xd9H\xfe\x97hz?'
p18
tp19
Rp20
ag17
(g10
S'\xe7T\xa6\xc2\xb0\x8d\xb0?'
p21
tp22
Rp23
aa(lp24
g17
(g10
S'\t\x8cs/\xb8\x9c\xe0?'
p25
tp26
Rp27
ag17
(g10
S'skW\x06}\xa0\xe0?'
p28
tp29
Rp30
aatp31
.