(cnumpy.core.multiarray
_reconstruct
p0
(cnumpy
ndarray
p1
(I0
tp2
S'b'
p3
tp4
Rp5
(I1
(I2
tp6
cnumpy
dtype
p7
(S'f8'
p8
I0
I1
tp9
Rp10
(I3
S'<'
p11
NNNI-1
I-1
I0
tp12
bI00
S'\x10\xdd.\xbd\xf6\xc0}?\xd8gC\xc6.[\xe0?'
p13
tp14
b(lp15
(lp16
cnumpy.core.multiarray
scalar
p17
(g10
S'\xc0\xca;\xaf\xf1\xecI\xbf'
p18
tp19
Rp20
ag17
(g10
S'\xbc\x99"\xd8\xc5_\x8f?'
p21
tp22
Rp23
aa(lp24
g17
(g10
S'Y\x84\x87N#Y\xe0?'
p25
tp26
Rp27
ag17
(g10
S'WK\xff=:]\xe0?'
p28
tp29
Rp30
aatp31
.