(cnumpy.core.multiarray
_reconstruct
p0
(cnumpy
ndarray
p1
(I0
tp2
S'b'
p3
tp4
Rp5
(I1
(I2
tp6
cnumpy
dtype
p7
(S'f8'
p8
I0
I1
tp9
Rp10
(I3
S'<'
p11
NNNI-1
I-1
I0
tp12
bI00
S'\xc1\xdf\x82\x9f\xbf\xf9\x08@iV\xa8\xa8\r\xe4\xe0?'
p13
tp14
b(lp15
(lp16
cnumpy.core.multiarray
scalar
p17
(g10
S',\x18\x12k\xd19c\xc0'
p18
tp19
Rp20
ag17
(g10
S'*/\x0eh\x9f\x01d@'
p21
tp22
Rp23
aa(lp24
g17
(g10
S'\xbfu\xc92M\xe2\xe0?'
p25
tp26
Rp27
ag17
(g10
S'\x137\x87\x1e\xce\xe5\xe0?'
p28
tp29
Rp30
aatp31
.