(cnumpy.core.multiarray
_reconstruct
p0
(cnumpy
ndarray
p1
(I0
tp2
S'b'
p3
tp4
Rp5
(I1
(I2
tp6
cnumpy
dtype
p7
(S'f8'
p8
I0
I1
tp9
Rp10
(I3
S'<'
p11
NNNI-1
I-1
I0
tp12
bI00
S'\x8b\xd9\x10-\xba\xd6\x10@a\xbf\x8a1\x11\xc4\xe0?'
p13
tp14
b(lp15
(lp16
cnumpy.core.multiarray
scalar
p17
(g10
S'\x93\xc0L\x80\xa5dp\xc0'
p18
tp19
Rp20
ag17
(g10
S'_G\xb5Q[\xebp@'
p21
tp22
Rp23
aa(lp24
g17
(g10
S'\xd4\x919\x8f\x8e\xc2\xe0?'
p25
tp26
Rp27
ag17
(g10
S'\xee\xec\xdb\xd3\x93\xc5\xe0?'
p28
tp29
Rp30
aatp31
.