(cnumpy.core.multiarray
_reconstruct
p0
(cnumpy
ndarray
p1
(I0
tp2
S'b'
p3
tp4
Rp5
(I1
(I2
tp6
cnumpy
dtype
p7
(S'f8'
p8
I0
I1
tp9
Rp10
(I3
S'<'
p11
NNNI-1
I-1
I0
tp12
bI00
S'BW`Q\x17\xb1\x0f@\xb4\xa3\n\xf9R\xf4\xe0?'
p13
tp14
b(lp15
(lp16
cnumpy.core.multiarray
scalar
p17
(g10
S'\xec\x8b\tZ\x89\x0cm\xc0'
p18
tp19
Rp20
ag17
(g10
S'\xa6\x8e\x94\x14\x12\nn@'
p21
tp22
Rp23
aa(lp24
g17
(g10
S'\xe4\xcbI\xff\x8a\xf2\xe0?'
p25
tp26
Rp27
ag17
(g10
S'\x84{\xcb\xf2\x1a\xf6\xe0?'
p28
tp29
Rp30
aatp31
.