(cnumpy.core.multiarray
_reconstruct
p0
(cnumpy
ndarray
p1
(I0
tp2
S'b'
p3
tp4
Rp5
(I1
(I2
tp6
cnumpy
dtype
p7
(S'f8'
p8
I0
I1
tp9
Rp10
(I3
S'<'
p11
NNNI-1
I-1
I0
tp12
bI00
S'\x13\xff\x8aP\xe8\x13\xf5?\x1a=\x18\x8dx\xb8\xe0?'
p13
tp14
b(lp15
(lp16
cnumpy.core.multiarray
scalar
p17
(g10
S'`\x01"\xd0^\xd73\xc0'
p18
tp19
Rp20
ag17
(g10
S'Ba3\xda\xdby6@'
p21
tp22
Rp23
aa(lp24
g17
(g10
S'5/X\xaa\xa3\xb6\xe0?'
p25
tp26
Rp27
ag17
(g10
S'\xffJ\xd8oM\xba\xe0?'
p28
tp29
Rp30
aatp31
.