(cnumpy.core.multiarray
_reconstruct
p0
(cnumpy
ndarray
p1
(I0
tp2
S'b'
p3
tp4
Rp5
(I1
(I2
tp6
cnumpy
dtype
p7
(S'f8'
p8
I0
I1
tp9
Rp10
(I3
S'<'
p11
NNNI-1
I-1
I0
tp12
bI00
S'\xa5!Q\xfb\x17\x93\x03@\xa8\x94\xb9\x12\xed\xe7\xe0?'
p13
tp14
b(lp15
(lp16
cnumpy.core.multiarray
scalar
p17
(g10
S'I\xe8\x86\n\x90\xf9H\xc0'
p18
tp19
Rp20
ag17
(g10
S'}\x0c\xf1\t\xf3kK@'
p21
tp22
Rp23
aa(lp24
g17
(g10
S'\xb0\xe9j\xe2O\xe6\xe0?'
p25
tp26
Rp27
ag17
(g10
S'\xa0?\x08C\x8a\xe9\xe0?'
p28
tp29
Rp30
aatp31
.