(cnumpy.core.multiarray
_reconstruct
p0
(cnumpy
ndarray
p1
(I0
tp2
S'b'
p3
tp4
Rp5
(I1
(I2
tp6
cnumpy
dtype
p7
(S'f8'
p8
I0
I1
tp9
Rp10
(I3
S'<'
p11
NNNI-1
I-1
I0
tp12
bI00
S'g\x83U\x95\x10\x82\x00@1c[*\xf6\xc6\xe0?'
p13
tp14
b(lp15
(lp16
cnumpy.core.multiarray
scalar
p17
(g10
S'\x1d8\xc4\xcd\xd6\x8b>\xc0'
p18
tp19
Rp20
ag17
(g10
S'{\xcc\x8cy-VA@'
p21
tp22
Rp23
aa(lp24
g17
(g10
S'\xfbK\xf3\xf9g\xc5\xe0?'
p25
tp26
Rp27
ag17
(g10
S'gz\xc3Z\x84\xc8\xe0?'
p28
tp29
Rp30
aatp31
.