(cnumpy.core.multiarray
_reconstruct
p0
(cnumpy
ndarray
p1
(I0
tp2
S'b'
p3
tp4
Rp5
(I1
(I2
tp6
cnumpy
dtype
p7
(S'f8'
p8
I0
I1
tp9
Rp10
(I3
S'<'
p11
NNNI-1
I-1
I0
tp12
bI00
S'\x0c\xcch\nm(\x03@\x80\xa4Q~\xe5\xe1\xe0?'
p13
tp14
b(lp15
(lp16
cnumpy.core.multiarray
scalar
p17
(g10
S'\xd8\x10\xbd!~\x80V\xc0'
p18
tp19
Rp20
ag17
(g10
S'\x98\x9dc\xf2\x04\xb3W@'
p21
tp22
Rp23
aa(lp24
g17
(g10
S'?\x89\x17D\x07\xe0\xe0?'
p25
tp26
Rp27
ag17
(g10
S'\xc1\xbf\x8b\xb8\xc3\xe3\xe0?'
p28
tp29
Rp30
aatp31
.