(cnumpy.core.multiarray
_reconstruct
p0
(cnumpy
ndarray
p1
(I0
tp2
S'b'
p3
tp4
Rp5
(I1
(I2
tp6
cnumpy
dtype
p7
(S'f8'
p8
I0
I1
tp9
Rp10
(I3
S'<'
p11
NNNI-1
I-1
I0
tp12
bI00
S'\xd1e/\xd8rT\x10@\xc4i\xb3}\xc2\xf9\xe0?'
p13
tp14
b(lp15
(lp16
cnumpy.core.multiarray
scalar
p17
(g10
S'\x16\x00\x11\x15_\xe9z\xc0'
p18
tp19
Rp20
ag17
(g10
S'D{\xd2\xab\x02l{@'
p21
tp22
Rp23
aa(lp24
g17
(g10
S'\x120&n\xcd\xf7\xe0?'
p25
tp26
Rp27
ag17
(g10
S'v\xa3@\x8d\xb7\xfb\xe0?'
p28
tp29
Rp30
aatp31
.