(cnumpy.core.multiarray
_reconstruct
p0
(cnumpy
ndarray
p1
(I0
tp2
S'b'
p3
tp4
Rp5
(I1
(I2
tp6
cnumpy
dtype
p7
(S'f8'
p8
I0
I1
tp9
Rp10
(I3
S'<'
p11
NNNI-1
I-1
I0
tp12
bI00
S'X\xe9/\x97\xc8P\xf0?\xf5\xfa4\xef\x89\xd2\xe0?'
p13
tp14
b(lp15
(lp16
cnumpy.core.multiarray
scalar
p17
(g10
S'I \x05\xb6V\x1f \xc0'
p18
tp19
Rp20
ag17
(g10
S'\x9f\x1a\xd1\xdb\x883$@'
p21
tp22
Rp23
aa(lp24
g17
(g10
S'\x8c\\\x19\xe3\xe3\xd0\xe0?'
p25
tp26
Rp27
ag17
(g10
S'^\x99P\xfb/\xd4\xe0?'
p28
tp29
Rp30
aatp31
.