(cnumpy.core.multiarray
_reconstruct
p0
(cnumpy
ndarray
p1
(I0
tp2
S'b'
p3
tp4
Rp5
(I1
(I2
tp6
cnumpy
dtype
p7
(S'f8'
p8
I0
I1
tp9
Rp10
(I3
S'<'
p11
NNNI-1
I-1
I0
tp12
bI00
S'\x88\xcb\xcd\xe0\x01r\x16@CaU\x92\xd4\x98\xe0?'
p13
tp14
b(lp15
(lp16
cnumpy.core.multiarray
scalar
p17
(g10
S'\xbf\xe6Q^\x9d\\\x8a\xc0'
p18
tp19
Rp20
ag17
(g10
S'\xed\x1d\xd5ee\xb6\x8a@'
p21
tp22
Rp23
aa(lp24
g17
(g10
S'\xb4\x95\xf5\xca2\x97\xe0?'
p25
tp26
Rp27
ag17
(g10
S'\xd2,\xb5Yv\x9a\xe0?'
p28
tp29
Rp30
aatp31
.