(cnumpy.core.multiarray
_reconstruct
p0
(cnumpy
ndarray
p1
(I0
tp2
S'b'
p3
tp4
Rp5
(I1
(I2
tp6
cnumpy
dtype
p7
(S'f8'
p8
I0
I1
tp9
Rp10
(I3
S'<'
p11
NNNI-1
I-1
I0
tp12
bI00
S';\xf9L!\xc8\x1e\xf1?t.Q\x07j\xdf\xe0?'
p13
tp14
b(lp15
(lp16
cnumpy.core.multiarray
scalar
p17
(g10
S'i\xc2\x88\xedVv!\xc0'
p18
tp19
Rp20
ag17
(g10
S'\xb7\x00\xdc\xf5\x08\xbe%@'
p21
tp22
Rp23
aa(lp24
g17
(g10
S'_\xa4\xffB\xc9\xdd\xe0?'
p25
tp26
Rp27
ag17
(g10
S'\x89\xb8\xa2\xcb\n\xe1\xe0?'
p28
tp29
Rp30
aatp31
.