(cnumpy.core.multiarray
_reconstruct
p0
(cnumpy
ndarray
p1
(I0
tp2
S'b'
p3
tp4
Rp5
(I1
(I2
tp6
cnumpy
dtype
p7
(S'f8'
p8
I0
I1
tp9
Rp10
(I3
S'<'
p11
NNNI-1
I-1
I0
tp12
bI00
S'X\xd1> ea\xf9?^\xd6m\xbfD\xbb\xe0?'
p13
tp14
b(lp15
(lp16
cnumpy.core.multiarray
scalar
p17
(g10
S'\xb8\x83)\xf0\xb6\\0\xc0'
p18
tp19
Rp20
ag17
(g10
S'\xe4]1\x94\xe3\x883@'
p21
tp22
Rp23
aa(lp24
g17
(g10
S'\x89\x92\xecW\xa4\xb9\xe0?'
p25
tp26
Rp27
ag17
(g10
S'3\x1a\xef&\xe5\xbc\xe0?'
p28
tp29
Rp30
aatp31
.