(cnumpy.core.multiarray
_reconstruct
p0
(cnumpy
ndarray
p1
(I0
tp2
S'b'
p3
tp4
Rp5
(I1
(I2
tp6
cnumpy
dtype
p7
(S'f8'
p8
I0
I1
tp9
Rp10
(I3
S'<'
p11
NNNI-1
I-1
I0
tp12
bI00
S'\xdb\x03\rn)\xd6\xa3?\x13\xb2U\x03v\x96\xe0?'
p13
tp14
b(lp15
(lp16
cnumpy.core.multiarray
scalar
p17
(g10
S'v\x17-\xa3\xb7\xef\x87?'
p18
tp19
Rp20
ag17
(g10
S'\xec`\xa7y2\xd8\xb0?'
p21
tp22
Rp23
aa(lp24
g17
(g10
S'3\xcb\x96\x17\xac\x94\xe0?'
p25
tp26
Rp27
ag17
(g10
S'\xf3\x98\x14\xef?\x98\xe0?'
p28
tp29
Rp30
aatp31
.