(cnumpy.core.multiarray
_reconstruct
p0
(cnumpy
ndarray
p1
(I0
tp2
S'b'
p3
tp4
Rp5
(I1
(I2
tp6
cnumpy
dtype
p7
(S'f8'
p8
I0
I1
tp9
Rp10
(I3
S'<'
p11
NNNI-1
I-1
I0
tp12
bI00
S'\x03\xd9\xd4\xbc\x89}\x10@,\xb1\t\x15Q\x8a\xe0?'
p13
tp14
b(lp15
(lp16
cnumpy.core.multiarray
scalar
p17
(g10
S'Q\x1b\xb2\x7f\xe06l\xc0'
p18
tp19
Rp20
ag17
(g10
S'\xe1h\x7f\x1b\xb9>m@'
p21
tp22
Rp23
aa(lp24
g17
(g10
S'\xefJ\xda`\xbd\x88\xe0?'
p25
tp26
Rp27
ag17
(g10
S'i\x179\xc9\xe4\x8b\xe0?'
p28
tp29
Rp30
aatp31
.