(cnumpy.core.multiarray
_reconstruct
p0
(cnumpy
ndarray
p1
(I0
tp2
S'b'
p3
tp4
Rp5
(I1
(I2
tp6
cnumpy
dtype
p7
(S'f8'
p8
I0
I1
tp9
Rp10
(I3
S'<'
p11
NNNI-1
I-1
I0
tp12
bI00
S'\xe0\xa5\x89\xc0x5\xf5?\x8bn4\x1b\x87\x98\xe0?'
p13
tp14
b(lp15
(lp16
cnumpy.core.multiarray
scalar
p17
(g10
S'k\x80v\xda\xcfs*\xc0'
p18
tp19
Rp20
ag17
(g10
S'\xe3\xe9\x98\n.\xc1/@'
p21
tp22
Rp23
aa(lp24
g17
(g10
S'\xfes\x96\x84\t\x97\xe0?'
p25
tp26
Rp27
ag17
(g10
S'\x18i\xd2\xb1\x04\x9a\xe0?'
p28
tp29
Rp30
aatp31
.