(cnumpy.core.multiarray
_reconstruct
p0
(cnumpy
ndarray
p1
(I0
tp2
S'b'
p3
tp4
Rp5
(I1
(I2
tp6
cnumpy
dtype
p7
(S'f8'
p8
I0
I1
tp9
Rp10
(I3
S'<'
p11
NNNI-1
I-1
I0
tp12
bI00
S'\x04\x1cg\x9b\xd2c\xf2?\x1fh\xcd,]\xeb\xe0?'
p13
tp14
b(lp15
(lp16
cnumpy.core.multiarray
scalar
p17
(g10
S'\xf2\xb7\xe1L\xf7\xe2&\xc0'
p18
tp19
Rp20
ag17
(g10
S'\xf4~\xbb\xf3\xeb{+@'
p21
tp22
Rp23
aa(lp24
g17
(g10
S'O\x90\xfa\\\xa1\xe9\xe0?'
p25
tp26
Rp27
ag17
(g10
S'\xef?\xa0\xfc\x18\xed\xe0?'
p28
tp29
Rp30
aatp31
.