(cnumpy.core.multiarray
_reconstruct
p0
(cnumpy
ndarray
p1
(I0
tp2
S'b'
p3
tp4
Rp5
(I1
(I2
tp6
cnumpy
dtype
p7
(S'f8'
p8
I0
I1
tp9
Rp10
(I3
S'<'
p11
NNNI-1
I-1
I0
tp12
bI00
S'\x05\x9c\xd4*\xdf\xd6\x1d@\xdfq\xa5\xee\x17\xc9\xe0?'
p13
tp14
b(lp15
(lp16
cnumpy.core.multiarray
scalar
p17
(g10
S'\xdc\xb2h]\r\\\xa6\xc0'
p18
tp19
Rp20
ag17
(g10
S'x\x87\x93<\xe4y\xa6@'
p21
tp22
Rp23
aa(lp24
g17
(g10
S'&M\x98lW\xc7\xe0?'
p25
tp26
Rp27
ag17
(g10
S'\x98\x96\xb2p\xd8\xca\xe0?'
p28
tp29
Rp30
aatp31
.