(cnumpy.core.multiarray
_reconstruct
p0
(cnumpy
ndarray
p1
(I0
tp2
S'b'
p3
tp4
Rp5
(I1
(I2
tp6
cnumpy
dtype
p7
(S'f8'
p8
I0
I1
tp9
Rp10
(I3
S'<'
p11
NNNI-1
I-1
I0
tp12
bI00
S'\xc1\xe9:\x0c\xdc7\x05@\xba\xeerl\xf3\xaa\xe0?'
p13
tp14
b(lp15
(lp16
cnumpy.core.multiarray
scalar
p17
(g10
S' Y\xb8\x9a(_Z\xc0'
p18
tp19
Rp20
ag17
(g10
S'\xbc\x07|[\xa6\xb2[@'
p21
tp22
Rp23
aa(lp24
g17
(g10
S'\x1c\x17\xf4\xacB\xa9\xe0?'
p25
tp26
Rp27
ag17
(g10
S'X\xc6\xf1+\xa4\xac\xe0?'
p28
tp29
Rp30
aatp31
.