(cnumpy.core.multiarray
_reconstruct
p0
(cnumpy
ndarray
p1
(I0
tp2
S'b'
p3
tp4
Rp5
(I1
(I2
tp6
cnumpy
dtype
p7
(S'f8'
p8
I0
I1
tp9
Rp10
(I3
S'<'
p11
NNNI-1
I-1
I0
tp12
bI00
S'\xc1\xb09\x10^@\xc3?\xcd\xa7@9<\xaf\xe0?'
p13
tp14
b(lp15
(lp16
cnumpy.core.multiarray
scalar
p17
(g10
S'X\xdd\x85\xd5\xdb\x9d\x91?'
p18
tp19
Rp20
ag17
(g10
S'\xecR\xe1R\x80&\xd2?'
p21
tp22
Rp23
aa(lp24
g17
(g10
S'\x9e\xe7\xa9d\xb5\xad\xe0?'
p25
tp26
Rp27
ag17
(g10
S'\xfcg\xd7\r\xc3\xb0\xe0?'
p28
tp29
Rp30
aatp31
.