(cnumpy.core.multiarray
_reconstruct
p0
(cnumpy
ndarray
p1
(I0
tp2
S'b'
p3
tp4
Rp5
(I1
(I2
tp6
cnumpy
dtype
p7
(S'f8'
p8
I0
I1
tp9
Rp10
(I3
S'<'
p11
NNNI-1
I-1
I0
tp12
bI00
S'y\xdb\x14\xe2\x99\x02\t@\xbb\xa0Z\x9a\xee\xe6\xe0?'
p13
tp14
b(lp15
(lp16
cnumpy.core.multiarray
scalar
p17
(g10
S'\xf8\x82k|\xed\x0fg\xc0'
p18
tp19
Rp20
ag17
(g10
S'\xd4)|K\x02\xd8g@'
p21
tp22
Rp23
aa(lp24
g17
(g10
S'n\xaf\xb1\xce\xd8\xe4\xe0?'
p25
tp26
Rp27
ag17
(g10
S'\x08\x92\x03f\x04\xe9\xe0?'
p28
tp29
Rp30
aatp31
.