(cnumpy.core.multiarray
_reconstruct
p0
(cnumpy
ndarray
p1
(I0
tp2
S'b'
p3
tp4
Rp5
(I1
(I2
tp6
cnumpy
dtype
p7
(S'f8'
p8
I0
I1
tp9
Rp10
(I3
S'<'
p11
NNNI-1
I-1
I0
tp12
bI00
S'<\xe6\xe69\x91\xe6\xa4?\x1c\xc7\x1bw\xcb\x89\xe0?'
p13
tp14
b(lp15
(lp16
cnumpy.core.multiarray
scalar
p17
(g10
S't\xa1=\xbc\xd7\xa0\x82\xbf'
p18
tp19
Rp20
ag17
(g10
S'j\x9an1\xac:\xb7?'
p21
tp22
Rp23
aa(lp24
g17
(g10
S'-\xfe}v\xc2\x87\xe0?'
p25
tp26
Rp27
ag17
(g10
S'\x0b\x90\xb9w\xd4\x8b\xe0?'
p28
tp29
Rp30
aatp31
.