(cnumpy.core.multiarray
_reconstruct
p0
(cnumpy
ndarray
p1
(I0
tp2
S'b'
p3
tp4
Rp5
(I1
(I2
tp6
cnumpy
dtype
p7
(S'f8'
p8
I0
I1
tp9
Rp10
(I3
S'<'
p11
NNNI-1
I-1
I0
tp12
bI00
S'O#\xd7\x8dH\xd0\n@\x96\xdd+\x15\xe4\x0b\xe1?'
p13
tp14
b(lp15
(lp16
cnumpy.core.multiarray
scalar
p17
(g10
S'K\xfc\xcfG4>p\xc0'
p18
tp19
Rp20
ag17
(g10
S'\xd9X\x07ju\xa9p@'
p21
tp22
Rp23
aa(lp24
g17
(g10
S'\x87\x86\xba\xb9\xd2\t\xe1?'
p25
tp26
Rp27
ag17
(g10
S'\xa54\x9dp\xf5\r\xe1?'
p28
tp29
Rp30
aatp31
.