(cnumpy.core.multiarray
_reconstruct
p0
(cnumpy
ndarray
p1
(I0
tp2
S'b'
p3
tp4
Rp5
(I1
(I2
tp6
cnumpy
dtype
p7
(S'f8'
p8
I0
I1
tp9
Rp10
(I3
S'<'
p11
NNNI-1
I-1
I0
tp12
bI00
S'O\xd1\x10>\xc1\x12\x9d?\x16\xb95t\x94\xc4\xe0?'
p13
tp14
b(lp15
(lp16
cnumpy.core.multiarray
scalar
p17
(g10
S'\xb5}H\xcc\xca\xbd\x8b?'
p18
tp19
Rp20
ag17
(g10
S'\xe2\xb1\xfe\x8aN#\xa6?'
p21
tp22
Rp23
aa(lp24
g17
(g10
S'1\xed+\xea\xc4\xc2\xe0?'
p25
tp26
Rp27
ag17
(g10
S'\xfb\x84?\xfec\xc6\xe0?'
p28
tp29
Rp30
aatp31
.