(cnumpy.core.multiarray
_reconstruct
p0
(cnumpy
ndarray
p1
(I0
tp2
S'b'
p3
tp4
Rp5
(I1
(I2
tp6
cnumpy
dtype
p7
(S'f8'
p8
I0
I1
tp9
Rp10
(I3
S'<'
p11
NNNI-1
I-1
I0
tp12
bI00
S'\xc8!w\xb2\x98\x15\xe0?[\x81\xab\t\x15\x01\xe1?'
p13
tp14
b(lp15
(lp16
cnumpy.core.multiarray
scalar
p17
(g10
S'US\x17B\xe7\x07\xf4\xbf'
p18
tp19
Rp20
ag17
(g10
S'\x8e:G\xfa\xbf\x0e\x02@'
p21
tp22
Rp23
aa(lp24
g17
(g10
S'\xe0z\xdd\xf08\xff\xe0?'
p25
tp26
Rp27
ag17
(g10
S'\xd6\x87y"\xf1\x02\xe1?'
p28
tp29
Rp30
aatp31
.