(cnumpy.core.multiarray
_reconstruct
p0
(cnumpy
ndarray
p1
(I0
tp2
S'b'
p3
tp4
Rp5
(I1
(I2
tp6
cnumpy
dtype
p7
(S'f8'
p8
I0
I1
tp9
Rp10
(I3
S'<'
p11
NNNI-1
I-1
I0
tp12
bI00
S'\xe4\x15\xa8\x01\xe2\x1e\xf6?\xc1|n\x01\x1e9\xe1?'
p13
tp14
b(lp15
(lp16
cnumpy.core.multiarray
scalar
p17
(g10
S'`\xd7\xa0\xc0C\xcb5\xc0'
p18
tp19
Rp20
ag17
(g10
S'\x1c\xda\xd5\x00 \x8f8@'
p21
tp22
Rp23
aa(lp24
g17
(g10
S'\xa4\x85\xb2\xa097\xe1?'
p25
tp26
Rp27
ag17
(g10
S'\xdes*b\x02;\xe1?'
p28
tp29
Rp30
aatp31
.