(cnumpy.core.multiarray
_reconstruct
p0
(cnumpy
ndarray
p1
(I0
tp2
S'b'
p3
tp4
Rp5
(I1
(I2
tp6
cnumpy
dtype
p7
(S'f8'
p8
I0
I1
tp9
Rp10
(I3
S'<'
p11
NNNI-1
I-1
I0
tp12
bI00
S'\x00\x80\xb3\xd8\xb7\xd0}=\xf9\xfcT]\x89\xb6\xe0?'
p13
tp14
b(lp15
(lp16
cnumpy.core.multiarray
scalar
p17
(g10
S'\x8d\x15\xdc\xcan\xd3q\xbf'
p18
tp19
Rp20
ag17
(g10
S'\xfd\xb6\x17\xcbn\xd3q?'
p21
tp22
Rp23
aa(lp24
g17
(g10
S'\x87\xb9S\x90\xf9\xb3\xe0?'
p25
tp26
Rp27
ag17
(g10
S'k@V*\x19\xb9\xe0?'
p28
tp29
Rp30
aatp31
.