(cnumpy.core.multiarray
_reconstruct
p0
(cnumpy
ndarray
p1
(I0
tp2
S'b'
p3
tp4
Rp5
(I1
(I2
tp6
cnumpy
dtype
p7
(S'f8'
p8
I0
I1
tp9
Rp10
(I3
S'<'
p11
NNNI-1
I-1
I0
tp12
bI00
S'gd\xf2S\xcb\x13\xea?\x19\x0c\xab~\xcf\x91\xe0?'
p13
tp14
b(lp15
(lp16
cnumpy.core.multiarray
scalar
p17
(g10
S'P\x96\x9c?\xe8\x9b\x14\xc0'
p18
tp19
Rp20
ag17
(g10
S'j/\x99\x14\xdb \x1b@'
p21
tp22
Rp23
aa(lp24
g17
(g10
S"^3'\xab\x1d\x90\xe0?"
p25
tp26
Rp27
ag17
(g10
S'\xd4\xe4.R\x81\x93\xe0?'
p28
tp29
Rp30
aatp31
.