(cnumpy.core.multiarray
_reconstruct
p0
(cnumpy
ndarray
p1
(I0
tp2
S'b'
p3
tp4
Rp5
(I1
(I2
tp6
cnumpy
dtype
p7
(S'f8'
p8
I0
I1
tp9
Rp10
(I3
S'<'
p11
NNNI-1
I-1
I0
tp12
bI00
S't\xe0\xb2qG\xee\x80?N{\x14c\x8a\xd5\xe0?'
p13
tp14
b(lp15
(lp16
cnumpy.core.multiarray
scalar
p17
(g10
S'\xa8{D\xac\xe0\x1aa\xbf'
p18
tp19
Rp20
ag17
(g10
S'\xe9o;\x87\xa3\x11\x93?'
p21
tp22
Rp23
aa(lp24
g17
(g10
S'\xd7b\xc1\xe17\xd3\xe0?'
p25
tp26
Rp27
ag17
(g10
S'\xc5\x93g\xe4\xdc\xd7\xe0?'
p28
tp29
Rp30
aatp31
.