(cnumpy.core.multiarray
_reconstruct
p0
(cnumpy
ndarray
p1
(I0
tp2
S'b'
p3
tp4
Rp5
(I1
(I2
tp6
cnumpy
dtype
p7
(S'f8'
p8
I0
I1
tp9
Rp10
(I3
S'<'
p11
NNNI-1
I-1
I0
tp12
bI00
S'\x9e\xfb(\xb8\x8e&\x1c@jnC\x862u\xe0?'
p13
tp14
b(lp15
(lp16
cnumpy.core.multiarray
scalar
p17
(g10
S'\xd3\xf7\xd0@}\xbe\x9b\xc0'
p18
tp19
Rp20
ag17
(g10
S'\xcbIA^\xca\xf6\x9b@'
p21
tp22
Rp23
aa(lp24
g17
(g10
S'\xaa_Y\x96\xacs\xe0?'
p25
tp26
Rp27
ag17
(g10
S'*}-v\xb8v\xe0?'
p28
tp29
Rp30
aatp31
.