(cnumpy.core.multiarray
_reconstruct
p0
(cnumpy
ndarray
p1
(I0
tp2
S'b'
p3
tp4
Rp5
(I1
(I2
tp6
cnumpy
dtype
p7
(S'f8'
p8
I0
I1
tp9
Rp10
(I3
S'<'
p11
NNNI-1
I-1
I0
tp12
bI00
S'\xf5\xff\xb0l\x14\xa7\xe1?8\xeb]\x0e\xf7\xe6\xe0?'
p13
tp14
b(lp15
(lp16
cnumpy.core.multiarray
scalar
p17
(g10
S'\xc0$M\x0f\xb6\xb4\xfd\xbf'
p18
tp19
Rp20
ag17
(g10
S'Z\x12\xff=\xe5\xad\x07@'
p21
tp22
Rp23
aa(lp24
g17
(g10
S'${\xf9YO\xe5\xe0?'
p25
tp26
Rp27
ag17
(g10
S'L[\xc2\xc2\x9e\xe8\xe0?'
p28
tp29
Rp30
aatp31
.