(cnumpy.core.multiarray
_reconstruct
p0
(cnumpy
ndarray
p1
(I0
tp2
S'b'
p3
tp4
Rp5
(I1
(I2
tp6
cnumpy
dtype
p7
(S'f8'
p8
I0
I1
tp9
Rp10
(I3
S'<'
p11
NNNI-1
I-1
I0
tp12
bI00
S'\x14\xb9\xd9\xb1\xb1\xf7\x04@V\x13\x04f\x00\xa8\xe0?'
p13
tp14
b(lp15
(lp16
cnumpy.core.multiarray
scalar
p17
(g10
S'H;l\x01\x91DL\xc0'
p18
tp19
Rp20
ag17
(g10
S'jr\xa77\x87\xe3N@'
p21
tp22
Rp23
aa(lp24
g17
(g10
S'"\xedP\xd7r\xa6\xe0?'
p25
tp26
Rp27
ag17
(g10
S'\x8a9\xb7\xf4\x8d\xa9\xe0?'
p28
tp29
Rp30
aatp31
.