(cnumpy.core.multiarray
_reconstruct
p0
(cnumpy
ndarray
p1
(I0
tp2
S'b'
p3
tp4
Rp5
(I1
(I2
tp6
cnumpy
dtype
p7
(S'f8'
p8
I0
I1
tp9
Rp10
(I3
S'<'
p11
NNNI-1
I-1
I0
tp12
bI00
S'\xdf\x1f\xc1\xd4\xae\x14 @Z95\xa7/\xa8\xe0?'
p13
tp14
b(lp15
(lp16
cnumpy.core.multiarray
scalar
p17
(g10
S'\xcf\xf2\x87\xce\x16\xf4\xac\xc0'
p18
tp19
Rp20
ag17
(g10
S'\x0fu1,@\x14\xad@'
p21
tp22
Rp23
aa(lp24
g17
(g10
S'(\xaeo\xf4|\xa6\xe0?'
p25
tp26
Rp27
ag17
(g10
S'\x8c\xc4\xfaY\xe2\xa9\xe0?'
p28
tp29
Rp30
aatp31
.