(cnumpy.core.multiarray
_reconstruct
p0
(cnumpy
ndarray
p1
(I0
tp2
S'b'
p3
tp4
Rp5
(I1
(I2
tp6
cnumpy
dtype
p7
(S'f8'
p8
I0
I1
tp9
Rp10
(I3
S'<'
p11
NNNI-1
I-1
I0
tp12
bI00
S'43"\x9a\r\xbe\xe0?\xdar\x89\x11\xcf\x8d\xe0?'
p13
tp14
b(lp15
(lp16
cnumpy.core.multiarray
scalar
p17
(g10
S'b<0V\xa7\x1e\xe0?'
p18
tp19
Rp20
ag17
(g10
S'\x06*\x14\xdes]\xe1?'
p21
tp22
Rp23
aa(lp24
g17
(g10
S'\xe6\xf0\xd0\xcd>\x8c\xe0?'
p25
tp26
Rp27
ag17
(g10
S'\xce\xf4AU_\x8f\xe0?'
p28
tp29
Rp30
aatp31
.