(cnumpy.core.multiarray
_reconstruct
p0
(cnumpy
ndarray
p1
(I0
tp2
S'b'
p3
tp4
Rp5
(I1
(I2
tp6
cnumpy
dtype
p7
(S'f8'
p8
I0
I1
tp9
Rp10
(I3
S'<'
p11
NNNI-1
I-1
I0
tp12
bI00
S'Bqv\x1e\xc8\x0e @`<\x9e\xd9\x17\xaf\xe0?'
p13
tp14
b(lp15
(lp16
cnumpy.core.multiarray
scalar
p17
(g10
S'\xf2\nE\x02\x94\x90\xa3\xc0'
p18
tp19
Rp20
ag17
(g10
S'\xd4\xf7\x81\x92\xb1\xb0\xa3@'
p21
tp22
Rp23
aa(lp24
g17
(g10
S'!\xd9$e{\xad\xe0?'
p25
tp26
Rp27
ag17
(g10
S'\x9f\x9f\x17N\xb4\xb0\xe0?'
p28
tp29
Rp30
aatp31
.