(cnumpy.core.multiarray
_reconstruct
p0
(cnumpy
ndarray
p1
(I0
tp2
S'b'
p3
tp4
Rp5
(I1
(I2
tp6
cnumpy
dtype
p7
(S'f8'
p8
I0
I1
tp9
Rp10
(I3
S'<'
p11
NNNI-1
I-1
I0
tp12
bI00
S'\xedm\xa8\xd1\xab\xf5\x13@\x92\xfd\\\xea,\xb8\xe0?'
p13
tp14
b(lp15
(lp16
cnumpy.core.multiarray
scalar
p17
(g10
S' \n+\xd0\xf7Fz\xc0'
p18
tp19
Rp20
ag17
(g10
S'\x90M\xb8.\xa5\xe6z@'
p21
tp22
Rp23
aa(lp24
g17
(g10
S'}\xd6\xd0\xcf\x98\xb6\xe0?'
p25
tp26
Rp27
ag17
(g10
S'\xa7$\xe9\x04\xc1\xb9\xe0?'
p28
tp29
Rp30
aatp31
.