(cnumpy.core.multiarray
_reconstruct
p0
(cnumpy
ndarray
p1
(I0
tp2
S'b'
p3
tp4
Rp5
(I1
(I2
tp6
cnumpy
dtype
p7
(S'f8'
p8
I0
I1
tp9
Rp10
(I3
S'<'
p11
NNNI-1
I-1
I0
tp12
bI00
S'?F$\x89\xdc\xe4\xaa?\x8f\xac@\x15I\x90\xe0?'
p13
tp14
b(lp15
(lp16
cnumpy.core.multiarray
scalar
p17
(g10
S'A\xc2m\x83\xc0~\x99?'
p18
tp19
Rp20
ag17
(g10
S'\xaf\xd5Hh,\x85\xb4?'
p21
tp22
Rp23
aa(lp24
g17
(g10
S'8E\x1f\x86\xc9\x8e\xe0?'
p25
tp26
Rp27
ag17
(g10
S'\xe6\x13b\xa4\xc8\x91\xe0?'
p28
tp29
Rp30
aatp31
.