(cnumpy.core.multiarray
_reconstruct
p0
(cnumpy
ndarray
p1
(I0
tp2
S'b'
p3
tp4
Rp5
(I1
(I2
tp6
cnumpy
dtype
p7
(S'f8'
p8
I0
I1
tp9
Rp10
(I3
S'<'
p11
NNNI-1
I-1
I0
tp12
bI00
S'\x91\xf3\xb0Z5\xd7\xf7?\x93I\xaa\n\xf2\xd1\xe0?'
p13
tp14
b(lp15
(lp16
cnumpy.core.multiarray
scalar
p17
(g10
S'\xd8B>i\xb2\x8f:\xc0'
p18
tp19
Rp20
ag17
(g10
S'Ja\x94\x14\x99\x8a=@'
p21
tp22
Rp23
aa(lp24
g17
(g10
S'\xd9\xf7;\x91*\xd0\xe0?'
p25
tp26
Rp27
ag17
(g10
S'M\x9b\x18\x84\xb9\xd3\xe0?'
p28
tp29
Rp30
aatp31
.