(cnumpy.core.multiarray
_reconstruct
p0
(cnumpy
ndarray
p1
(I0
tp2
S'b'
p3
tp4
Rp5
(I1
(I2
tp6
cnumpy
dtype
p7
(S'f8'
p8
I0
I1
tp9
Rp10
(I3
S'<'
p11
NNNI-1
I-1
I0
tp12
bI00
S'^\x8cQ\xf8.J\xaf?sP\xf1_\xb1\xcf\xe0?'
p13
tp14
b(lp15
(lp16
cnumpy.core.multiarray
scalar
p17
(g10
S'P@c\t\xf6 \x97?'
p18
tp19
Rp20
ag17
(g10
S'J\xbc\xf8u\xf1\x81\xb9?'
p21
tp22
Rp23
aa(lp24
g17
(g10
S't\x9bK\x1a\xf6\xcd\xe0?'
p25
tp26
Rp27
ag17
(g10
S'r\x05\x97\xa5l\xd1\xe0?'
p28
tp29
Rp30
aatp31
.