(cnumpy.core.multiarray
_reconstruct
p0
(cnumpy
ndarray
p1
(I0
tp2
S'b'
p3
tp4
Rp5
(I1
(I2
tp6
cnumpy
dtype
p7
(S'f8'
p8
I0
I1
tp9
Rp10
(I3
S'<'
p11
NNNI-1
I-1
I0
tp12
bI00
S'\x97\x0b \xff~\x17\xe1?+\xd8\xb2\xb9K\xe2\xe0?'
p13
tp14
b(lp15
(lp16
cnumpy.core.multiarray
scalar
p17
(g10
S'l7\x9c\x03-\x1b\xf6\xbf'
p18
tp19
Rp20
ag17
(g10
S'\x82!^\x01V\x99\x03@'
p21
tp22
Rp23
aa(lp24
g17
(g10
S'\xb4\x9bX\x1ac\xe0\xe0?'
p25
tp26
Rp27
ag17
(g10
S'\xa2\x14\rY4\xe4\xe0?'
p28
tp29
Rp30
aatp31
.