(cnumpy.core.multiarray
_reconstruct
p0
(cnumpy
ndarray
p1
(I0
tp2
S'b'
p3
tp4
Rp5
(I1
(I2
tp6
cnumpy
dtype
p7
(S'f8'
p8
I0
I1
tp9
Rp10
(I3
S'<'
p11
NNNI-1
I-1
I0
tp12
bI00
S"F\x00\rx5\x81\x10@'\xfd\xd1\xef\xdb\xae\xe0?"
p13
tp14
b(lp15
(lp16
cnumpy.core.multiarray
scalar
p17
(g10
S'^\xfe\xe8\x03\x1f2p\xc0'
p18
tp19
Rp20
ag17
(g10
S'`f\xa9\xaf(\xb6p@'
p21
tp22
Rp23
aa(lp24
g17
(g10
S'\xae\x18Xu \xad\xe0?'
p25
tp26
Rp27
ag17
(g10
S'\xa0\xe1Kj\x97\xb0\xe0?'
p28
tp29
Rp30
aatp31
.