(cnumpy.core.multiarray
_reconstruct
p0
(cnumpy
ndarray
p1
(I0
tp2
S'b'
p3
tp4
Rp5
(I1
(I2
tp6
cnumpy
dtype
p7
(S'f8'
p8
I0
I1
tp9
Rp10
(I3
S'<'
p11
NNNI-1
I-1
I0
tp12
bI00
S'\x90D\xa6\xb2a\x19\x8c?\xf4a\x0e\xbb\x0c\x9c\xe0?'
p13
tp14
b(lp15
(lp16
cnumpy.core.multiarray
scalar
p17
(g10
S'\x00$87\t1J\xbf'
p18
tp19
Rp20
ag17
(g10
S'\xb0\x05`\xfc\xe9\xea\x9c?'
p21
tp22
Rp23
aa(lp24
g17
(g10
S'C<\xfd\xd9\xe7\x99\xe0?'
p25
tp26
Rp27
ag17
(g10
S'\xa5\x87\x1f\x9c1\x9e\xe0?'
p28
tp29
Rp30
aatp31
.