(cnumpy.core.multiarray
_reconstruct
p0
(cnumpy
ndarray
p1
(I0
tp2
S'b'
p3
tp4
Rp5
(I1
(I2
tp6
cnumpy
dtype
p7
(S'f8'
p8
I0
I1
tp9
Rp10
(I3
S'<'
p11
NNNI-1
I-1
I0
tp12
bI00
S'\xe4\xc2\xb3 \xa5j\xf9?\xe5\x14\xa2\x97\xcd\xc2\xe0?'
p13
tp14
b(lp15
(lp16
cnumpy.core.multiarray
scalar
p17
(g10
S'\x04\x8c\xa7N\xea\xe0>\xc0'
p18
tp19
Rp20
ag17
(g10
S'0\x02_y\x1f\x07A@'
p21
tp22
Rp23
aa(lp24
g17
(g10
S"'L\x08\x89\n\xc1\xe0?"
p25
tp26
Rp27
ag17
(g10
S'\xa3\xdd;\xa6\x90\xc4\xe0?'
p28
tp29
Rp30
aatp31
.