(cnumpy.core.multiarray
_reconstruct
p0
(cnumpy
ndarray
p1
(I0
tp2
S'b'
p3
tp4
Rp5
(I1
(I2
tp6
cnumpy
dtype
p7
(S'f8'
p8
I0
I1
tp9
Rp10
(I3
S'<'
p11
NNNI-1
I-1
I0
tp12
bI00
S'%\xd8\x07-\xd1\xc0\x06@\x8e\x9bK\xbf\x0e\xc9\xe0?'
p13
tp14
b(lp15
(lp16
cnumpy.core.multiarray
scalar
p17
(g10
S'\t\xf0\tb \x04T\xc0'
p18
tp19
Rp20
ag17
(g10
S'\x8bm\xdat-pU@'
p21
tp22
Rp23
aa(lp24
g17
(g10
S'\xba\x7fZIk\xc7\xe0?'
p25
tp26
Rp27
ag17
(g10
S'b\xb7<5\xb2\xca\xe0?'
p28
tp29
Rp30
aatp31
.