(cnumpy.core.multiarray
_reconstruct
p0
(cnumpy
ndarray
p1
(I0
tp2
S'b'
p3
tp4
Rp5
(I1
(I2
tp6
cnumpy
dtype
p7
(S'f8'
p8
I0
I1
tp9
Rp10
(I3
S'<'
p11
NNNI-1
I-1
I0
tp12
bI00
S'\xd5FUM\xa7\xb7\xed?w\xa4\xfdt\xba\xd2\xe0?'
p13
tp14
b(lp15
(lp16
cnumpy.core.multiarray
scalar
p17
(g10
S'\xec\xf7\x84\xf9;\xf0\x18\xc0'
p18
tp19
Rp20
ag17
(g10
S'\xd1$m\xe6\x12/ @'
p21
tp22
Rp23
aa(lp24
g17
(g10
S'\x14\xd2\x8c\xe4\x11\xd1\xe0?'
p25
tp26
Rp27
ag17
(g10
S'\xdavn\x05c\xd4\xe0?'
p28
tp29
Rp30
aatp31
.