(cnumpy.core.multiarray
_reconstruct
p0
(cnumpy
ndarray
p1
(I0
tp2
S'b'
p3
tp4
Rp5
(I1
(I2
tp6
cnumpy
dtype
p7
(S'f8'
p8
I0
I1
tp9
Rp10
(I3
S'<'
p11
NNNI-1
I-1
I0
tp12
bI00
S'?\xd5\xdb\xf5\xdaX\x1b@\\F\xad\x19\x8a\x0e\xe1?'
p13
tp14
b(lp15
(lp16
cnumpy.core.multiarray
scalar
p17
(g10
S'\xae-\x11\x1b\xbe\xe4\x95\xc0'
p18
tp19
Rp20
ag17
(g10
S'X\xe5\xfc\xd0o\x1b\x96@'
p21
tp22
Rp23
aa(lp24
g17
(g10
S'Ju\x00\xac\x9d\x0c\xe1?'
p25
tp26
Rp27
ag17
(g10
S'n\x17Z\x87v\x10\xe1?'
p28
tp29
Rp30
aatp31
.