(cnumpy.core.multiarray
_reconstruct
p0
(cnumpy
ndarray
p1
(I0
tp2
S'b'
p3
tp4
Rp5
(I1
(I2
tp6
cnumpy
dtype
p7
(S'f8'
p8
I0
I1
tp9
Rp10
(I3
S'<'
p11
NNNI-1
I-1
I0
tp12
bI00
S'\xee\xe2m\x89\xc1\x15\xcb?\xf6u\x03X\xd3\xa3\xe0?'
p13
tp14
b(lp15
(lp16
cnumpy.core.multiarray
scalar
p17
(g10
S'\x1c\x84f\xb8\xf3F\xa1\xbf'
p18
tp19
Rp20
ag17
(g10
S'r\xb3z\x00\xa0>\xdd?'
p21
tp22
Rp23
aa(lp24
g17
(g10
S'\xfaG\xa6S8\xa2\xe0?'
p25
tp26
Rp27
ag17
(g10
S'\xf2\xa3`\\n\xa5\xe0?'
p28
tp29
Rp30
aatp31
.