(cnumpy.core.multiarray
_reconstruct
p0
(cnumpy
ndarray
p1
(I0
tp2
S'b'
p3
tp4
Rp5
(I1
(I2
tp6
cnumpy
dtype
p7
(S'f8'
p8
I0
I1
tp9
Rp10
(I3
S'<'
p11
NNNI-1
I-1
I0
tp12
bI00
S'c\x15\xcf\xd4\xa5K\x8a?(\x07\x10\xdae\x16\xe1?'
p13
tp14
b(lp15
(lp16
cnumpy.core.multiarray
scalar
p17
(g10
S'\xf9\xe6`r\xc8\x98v?'
p18
tp19
Rp20
ag17
(g10
S'\xa5\xdb6\xb8s\xa5\x94?'
p21
tp22
Rp23
aa(lp24
g17
(g10
S'k\xc6\xaa\xe5X\x14\xe1?'
p25
tp26
Rp27
ag17
(g10
S'\xe5Gu\xcer\x18\xe1?'
p28
tp29
Rp30
aatp31
.