(cnumpy.core.multiarray
_reconstruct
p0
(cnumpy
ndarray
p1
(I0
tp2
S'b'
p3
tp4
Rp5
(I1
(I2
tp6
cnumpy
dtype
p7
(S'f8'
p8
I0
I1
tp9
Rp10
(I3
S'<'
p11
NNNI-1
I-1
I0
tp12
bI00
S'\xb8_h\xf8\xeds\x13@v\xae3\x97\xc3|\xe0?'
p13
tp14
b(lp15
(lp16
cnumpy.core.multiarray
scalar
p17
(g10
S'\xd4\xa4\xf310\xbb\x82\xc0'
p18
tp19
Rp20
ag17
(g10
S'RF\xd5\xe9\xff\x08\x83@'
p21
tp22
Rp23
aa(lp24
g17
(g10
S'\xa9)\x06\xa1\x1d{\xe0?'
p25
tp26
Rp27
ag17
(g10
S'C3a\x8di~\xe0?'
p28
tp29
Rp30
aatp31
.