(cnumpy.core.multiarray
_reconstruct
p0
(cnumpy
ndarray
p1
(I0
tp2
S'b'
p3
tp4
Rp5
(I1
(I2
tp6
cnumpy
dtype
p7
(S'f8'
p8
I0
I1
tp9
Rp10
(I3
S'<'
p11
NNNI-1
I-1
I0
tp12
bI00
S'i0\x88\xcc\x12\xf4\x13@g/X\x03\x16\xec\xe0?'
p13
tp14
b(lp15
(lp16
cnumpy.core.multiarray
scalar
p17
(g10
S'1{\xa0\xb8\r\xe6\x81\xc0'
p18
tp19
Rp20
ag17
(g10
S'\xf3\x9b\xd2\x03\xde5\x82@'
p21
tp22
Rp23
aa(lp24
g17
(g10
S'l\xa0]\nc\xea\xe0?'
p25
tp26
Rp27
ag17
(g10
S'b\xbeR\xfc\xc8\xed\xe0?'
p28
tp29
Rp30
aatp31
.