(cnumpy.core.multiarray
_reconstruct
p0
(cnumpy
ndarray
p1
(I0
tp2
S'b'
p3
tp4
Rp5
(I1
(I2
tp6
cnumpy
dtype
p7
(S'f8'
p8
I0
I1
tp9
Rp10
(I3
S'<'
p11
NNNI-1
I-1
I0
tp12
bI00
S"\xe8\xe45\xe2'\xe1\x03@\x87\xf8\xcfxQ\xaf\xe0?"
p13
tp14
b(lp15
(lp16
cnumpy.core.multiarray
scalar
p17
(g10
S'\xae\x04\x8cf0\xd7I\xc0'
p18
tp19
Rp20
ag17
(g10
S'J\xc1\xd2bUSL@'
p21
tp22
Rp23
aa(lp24
g17
(g10
S'P\x06t\xd5\xb0\xad\xe0?'
p25
tp26
Rp27
ag17
(g10
S'\xbe\xea+\x1c\xf2\xb0\xe0?'
p28
tp29
Rp30
aatp31
.