(cnumpy.core.multiarray
_reconstruct
p0
(cnumpy
ndarray
p1
(I0
tp2
S'b'
p3
tp4
Rp5
(I1
(I2
tp6
cnumpy
dtype
p7
(S'f8'
p8
I0
I1
tp9
Rp10
(I3
S'<'
p11
NNNI-1
I-1
I0
tp12
bI00
S'\x82"\x7f\x8fw\x9e\x16@j:\xed\xbd\xc1\xe4\xe0?'
p13
tp14
b(lp15
(lp16
cnumpy.core.multiarray
scalar
p17
(g10
S'\x9d]\x96k\x0bz\x89\xc0'
p18
tp19
Rp20
ag17
(g10
S"'Z\xd4I\x85\xd4\x89@"
p21
tp22
Rp23
aa(lp24
g17
(g10
S'\x9a\xeem\xc8\x16\xe3\xe0?'
p25
tp26
Rp27
ag17
(g10
S':\x86l\xb3l\xe6\xe0?'
p28
tp29
Rp30
aatp31
.