(cnumpy.core.multiarray
_reconstruct
p0
(cnumpy
ndarray
p1
(I0
tp2
S'b'
p3
tp4
Rp5
(I1
(I2
tp6
cnumpy
dtype
p7
(S'f8'
p8
I0
I1
tp9
Rp10
(I3
S'<'
p11
NNNI-1
I-1
I0
tp12
bI00
S'w\xe7F\xc0\xeeB\x1b@\x87\xce\x10V7\xbf\xe0?'
p13
tp14
b(lp15
(lp16
cnumpy.core.multiarray
scalar
p17
(g10
S'-\xbd\x1d\xb9\xc1<\x94\xc0'
p18
tp19
Rp20
ag17
(g10
S'\xfbJ\x9e\x96Gs\x94@'
p21
tp22
Rp23
aa(lp24
g17
(g10
S'>@|`\x85\xbd\xe0?'
p25
tp26
Rp27
ag17
(g10
S'\xd0\\\xa5K\xe9\xc0\xe0?'
p28
tp29
Rp30
aatp31
.