(cnumpy.core.multiarray
_reconstruct
p0
(cnumpy
ndarray
p1
(I0
tp2
S'b'
p3
tp4
Rp5
(I1
(I2
tp6
cnumpy
dtype
p7
(S'f8'
p8
I0
I1
tp9
Rp10
(I3
S'<'
p11
NNNI-1
I-1
I0
tp12
bI00
S'\x86\xd5(nm\x88!@\x89\xdd&\xb6\x87\x85\xe0?'
p13
tp14
b(lp15
(lp16
cnumpy.core.multiarray
scalar
p17
(g10
S'\xff\xd9h\xcf\xca\x9d\xb5\xc0'
p18
tp19
Rp20
ag17
(g10
S'\xd5\x02\xd7<S\xaf\xb5@'
p21
tp22
Rp23
aa(lp24
g17
(g10
S'F*1k\xd3\x83\xe0?'
p25
tp26
Rp27
ag17
(g10
S'\xcc\x90\x1c\x01<\x87\xe0?'
p28
tp29
Rp30
aatp31
.