(cnumpy.core.multiarray
_reconstruct
p0
(cnumpy
ndarray
p1
(I0
tp2
S'b'
p3
tp4
Rp5
(I1
(I2
tp6
cnumpy
dtype
p7
(S'f8'
p8
I0
I1
tp9
Rp10
(I3
S'<'
p11
NNNI-1
I-1
I0
tp12
bI00
S'e\t\xdd\xe9nG\x0f@n\xca\x0b\xc1\xed\xca\xe0?'
p13
tp14
b(lp15
(lp16
cnumpy.core.multiarray
scalar
p17
(g10
S'\x03\xe1M\x12J\x17c\xc0'
p18
tp19
Rp20
ag17
(g10
S'O\xc9\x9c\x89\x85\x11d@'
p21
tp22
Rp23
aa(lp24
g17
(g10
S'\x11y\xdd\x03\xb0\xc9\xe0?'
p25
tp26
Rp27
ag17
(g10
S'\xcb\x1b:~+\xcc\xe0?'
p28
tp29
Rp30
aatp31
.