(cnumpy.core.multiarray
_reconstruct
p0
(cnumpy
ndarray
p1
(I0
tp2
S'b'
p3
tp4
Rp5
(I1
(I2
tp6
cnumpy
dtype
p7
(S'f8'
p8
I0
I1
tp9
Rp10
(I3
S'<'
p11
NNNI-1
I-1
I0
tp12
bI00
S'\xf2T"\x1a\xaa)\xeb?\xb0|P\x98\xab\n\xe1?'
p13
tp14
b(lp15
(lp16
cnumpy.core.multiarray
scalar
p17
(g10
S'\xf6\xa0\x9d\x0f\xda\xb5\x1d\xc0'
p18
tp19
Rp20
ag17
(g10
S'\x19\x1b\x13K"@"@'
p21
tp22
Rp23
aa(lp24
g17
(g10
S'H.\x1f1\xa9\x08\xe1?'
p25
tp26
Rp27
ag17
(g10
S'\x18\xcb\x81\xff\xad\x0c\xe1?'
p28
tp29
Rp30
aatp31
.