(cnumpy.core.multiarray
_reconstruct
p0
(cnumpy
ndarray
p1
(I0
tp2
S'b'
p3
tp4
Rp5
(I1
(I2
tp6
cnumpy
dtype
p7
(S'f8'
p8
I0
I1
tp9
Rp10
(I3
S'<'
p11
NNNI-1
I-1
I0
tp12
bI00
S'\x10e\\\x84\xfcK\xff?\xb0\xc4\xa0\xb2\xe1\x9a\xe0?'
p13
tp14
b(lp15
(lp16
cnumpy.core.multiarray
scalar
p17
(g10
S'\xa2\x00\x0f\xb8\x02\xf7D\xc0'
p18
tp19
Rp20
ag17
(g10
S'\xf4\xc6T\x80\xc2\xebF@'
p21
tp22
Rp23
aa(lp24
g17
(g10
S'\x1bQ\r\x06v\x99\xe0?'
p25
tp26
Rp27
ag17
(g10
S'E84_M\x9c\xe0?'
p28
tp29
Rp30
aatp31
.