(cnumpy.core.multiarray
_reconstruct
p0
(cnumpy
ndarray
p1
(I0
tp2
S'b'
p3
tp4
Rp5
(I1
(I2
tp6
cnumpy
dtype
p7
(S'f8'
p8
I0
I1
tp9
Rp10
(I3
S'<'
p11
NNNI-1
I-1
I0
tp12
bI00
S'+=\xc6>\xcf\x13\xe2?\xfa\x12J@[\xf1\xe0?'
p13
tp14
b(lp15
(lp16
cnumpy.core.multiarray
scalar
p17
(g10
S'$\xd9\x04]\xa9{\xf5\xbf'
p18
tp19
Rp20
ag17
(g10
S'(\x8b\xe5M\xbc\xc7\x03@'
p21
tp22
Rp23
aa(lp24
g17
(g10
S'\x1b\x1c\xf4\xdc\x90\xef\xe0?'
p25
tp26
Rp27
ag17
(g10
S'\xd9\t\xa0\xa3%\xf3\xe0?'
p28
tp29
Rp30
aatp31
.