(cnumpy.core.multiarray
_reconstruct
p0
(cnumpy
ndarray
p1
(I0
tp2
S'b'
p3
tp4
Rp5
(I1
(I2
tp6
cnumpy
dtype
p7
(S'f8'
p8
I0
I1
tp9
Rp10
(I3
S'<'
p11
NNNI-1
I-1
I0
tp12
bI00
S'\xf7\xb7l^D#\xc9?\x8f\xe4X\x8ag\xd8\xe0?'
p13
tp14
b(lp15
(lp16
cnumpy.core.multiarray
scalar
p17
(g10
S'\x18E;\xc2\xd7\x15\x9a\xbf'
p18
tp19
Rp20
ag17
(g10
S'Hl\x90\xda\xa1\xc4\xda?'
p21
tp22
Rp23
aa(lp24
g17
(g10
S'\x95\xd9\x06\xd8\xc4\xd6\xe0?'
p25
tp26
Rp27
ag17
(g10
S'\x89\xef\xaa<\n\xda\xe0?'
p28
tp29
Rp30
aatp31
.