(cnumpy.core.multiarray
_reconstruct
p0
(cnumpy
ndarray
p1
(I0
tp2
S'b'
p3
tp4
Rp5
(I1
(I2
tp6
cnumpy
dtype
p7
(S'f8'
p8
I0
I1
tp9
Rp10
(I3
S'<'
p11
NNNI-1
I-1
I0
tp12
bI00
S'}\xedY\xdf\x9f\x86\xf7?\x17?\xc5}\xf8\xa0\xe0?'
p13
tp14
b(lp15
(lp16
cnumpy.core.multiarray
scalar
p17
(g10
S'd\x1e@\xf3\xb4\x9a1\xc0'
p18
tp19
Rp20
ag17
(g10
S'\x14\\+\xef\x88\x8b4@'
p21
tp22
Rp23
aa(lp24
g17
(g10
S'\x86\xd2\xa1\x1bs\x9f\xe0?'
p25
tp26
Rp27
ag17
(g10
S'\xa8\xab\xe8\xdf}\xa2\xe0?'
p28
tp29
Rp30
aatp31
.