(cnumpy.core.multiarray
_reconstruct
p0
(cnumpy
ndarray
p1
(I0
tp2
S'b'
p3
tp4
Rp5
(I1
(I2
tp6
cnumpy
dtype
p7
(S'f8'
p8
I0
I1
tp9
Rp10
(I3
S'<'
p11
NNNI-1
I-1
I0
tp12
bI00
S'\x93x\x19\xc2p(\x1c@/\xda\xbf\xe4\x02\xf6\xe0?'
p13
tp14
b(lp15
(lp16
cnumpy.core.multiarray
scalar
p17
(g10
S'\xc3\xc14\xd5\x013\xa1\xc0'
p18
tp19
Rp20
ag17
(g10
S';\xdb\xf6E*O\xa1@'
p21
tp22
Rp23
aa(lp24
g17
(g10
S'\xc4\xcai\xe4/\xf4\xe0?'
p25
tp26
Rp27
ag17
(g10
S'\x9a\xe9\x15\xe5\xd5\xf7\xe0?'
p28
tp29
Rp30
aatp31
.