(cnumpy.core.multiarray
_reconstruct
p0
(cnumpy
ndarray
p1
(I0
tp2
S'b'
p3
tp4
Rp5
(I1
(I2
tp6
cnumpy
dtype
p7
(S'f8'
p8
I0
I1
tp9
Rp10
(I3
S'<'
p11
NNNI-1
I-1
I0
tp12
bI00
S'\x10\xd5\xcd\x8e\xfd\xa8\xe5?\xf7Qz\xf9\x11\xd9\xe0?'
p13
tp14
b(lp15
(lp16
cnumpy.core.multiarray
scalar
p17
(g10
S'MGGm\x16\xc2\x07\xc0'
p18
tp19
Rp20
ag17
(g10
S'\xea\x18W\x9aJK\x11@'
p21
tp22
Rp23
aa(lp24
g17
(g10
S'\xa1\xd5U\x18W\xd7\xe0?'
p25
tp26
Rp27
ag17
(g10
S'M\xce\x9e\xda\xcc\xda\xe0?'
p28
tp29
Rp30
aatp31
.