(cnumpy.core.multiarray
_reconstruct
p0
(cnumpy
ndarray
p1
(I0
tp2
S'b'
p3
tp4
Rp5
(I1
(I2
tp6
cnumpy
dtype
p7
(S'f8'
p8
I0
I1
tp9
Rp10
(I3
S'<'
p11
NNNI-1
I-1
I0
tp12
bI00
S'\xed\xaa\xddg\xc7\x9b\x95?\x10\xd8O\xe6\x15\xee\xe0?'
p13
tp14
b(lp15
(lp16
cnumpy.core.multiarray
scalar
p17
(g10
S' \xa9_x\x99=\x82?'
p18
tp19
Rp20
ag17
(g10
S'\xa5\xc0\xc5\ta\x0c\xa1?'
p21
tp22
Rp23
aa(lp24
g17
(g10
S'\xed\x04\\\xb5\xe5\xeb\xe0?'
p25
tp26
Rp27
ag17
(g10
S'3\xabC\x17F\xf0\xe0?'
p28
tp29
Rp30
aatp31
.