(cnumpy.core.multiarray
_reconstruct
p0
(cnumpy
ndarray
p1
(I0
tp2
S'b'
p3
tp4
Rp5
(I1
(I2
tp6
cnumpy
dtype
p7
(S'f8'
p8
I0
I1
tp9
Rp10
(I3
S'<'
p11
NNNI-1
I-1
I0
tp12
bI00
S'\xcc\xbff\x80\x14>\xf7?\xb6\xb4\xd7\x9dg\x8d\xe0?'
p13
tp14
b(lp15
(lp16
cnumpy.core.multiarray
scalar
p17
(g10
S'\x84\xd7\x94hb\x0c,\xc0'
p18
tp19
Rp20
ag17
(g10
S'\xbbCW\xc4\xf3\xed0@'
p21
tp22
Rp23
aa(lp24
g17
(g10
S'\xa2@\x9a\xb2\xc4\x8b\xe0?'
p25
tp26
Rp27
ag17
(g10
S'\xca(\x15\x89\n\x8f\xe0?'
p28
tp29
Rp30
aatp31
.