(cnumpy.core.multiarray
_reconstruct
p0
(cnumpy
ndarray
p1
(I0
tp2
S'b'
p3
tp4
Rp5
(I1
(I2
tp6
cnumpy
dtype
p7
(S'f8'
p8
I0
I1
tp9
Rp10
(I3
S'<'
p11
NNNI-1
I-1
I0
tp12
bI00
S'\x9a\xcc\xbd\x1a\xcc\xb9\x0b@d\x97-\xf8e\xd7\xe0?'
p13
tp14
b(lp15
(lp16
cnumpy.core.multiarray
scalar
p17
(g10
S'I\x84..\xb0\xf0d\xc0'
p18
tp19
Rp20
ag17
(g10
S'\xadr\x04\x8f~\xcee@'
p21
tp22
Rp23
aa(lp24
g17
(g10
S'\xfd2\x84y\x92\xd5\xe0?'
p25
tp26
Rp27
ag17
(g10
S'\xcb\xfb\xd6v9\xd9\xe0?'
p28
tp29
Rp30
aatp31
.