(cnumpy.core.multiarray
_reconstruct
p0
(cnumpy
ndarray
p1
(I0
tp2
S'b'
p3
tp4
Rp5
(I1
(I2
tp6
cnumpy
dtype
p7
(S'f8'
p8
I0
I1
tp9
Rp10
(I3
S'<'
p11
NNNI-1
I-1
I0
tp12
bI00
S'\x9cK\x8c\xa6e\x88\x02@*T\xeb\xa1\x1b\x03\xe1?'
p13
tp14
b(lp15
(lp16
cnumpy.core.multiarray
scalar
p17
(g10
S'\x14\xfe#\x17\x80\x19S\xc0'
p18
tp19
Rp20
ag17
(g10
S'\xce\xc2\x8cq\x06BT@'
p21
tp22
Rp23
aa(lp24
g17
(g10
S'34\xea-a\x01\xe1?'
p25
tp26
Rp27
ag17
(g10
S'!t\xec\x15\xd6\x04\xe1?'
p28
tp29
Rp30
aatp31
.