(cnumpy.core.multiarray
_reconstruct
p0
(cnumpy
ndarray
p1
(I0
tp2
S'b'
p3
tp4
Rp5
(I1
(I2
tp6
cnumpy
dtype
p7
(S'f8'
p8
I0
I1
tp9
Rp10
(I3
S'<'
p11
NNNI-1
I-1
I0
tp12
bI00
S'3X\xffp\xba\x83\x14@\xab\x11"\xfd,\x9b\xe0?'
p13
tp14
b(lp15
(lp16
cnumpy.core.multiarray
scalar
p17
(g10
S'\x1dv-\x05\xc9w{\xc0'
p18
tp19
Rp20
ag17
(g10
S'\xdfp\xb5\xd8\xe6\x1b|@'
p21
tp22
Rp23
aa(lp24
g17
(g10
S'\x00\x86\xf5Z\x85\x99\xe0?'
p25
tp26
Rp27
ag17
(g10
S'V\x9dN\x9f\xd4\x9c\xe0?'
p28
tp29
Rp30
aatp31
.