(cnumpy.core.multiarray
_reconstruct
p0
(cnumpy
ndarray
p1
(I0
tp2
S'b'
p3
tp4
Rp5
(I1
(I2
tp6
cnumpy
dtype
p7
(S'f8'
p8
I0
I1
tp9
Rp10
(I3
S'<'
p11
NNNI-1
I-1
I0
tp12
bI00
S'\xf1Yb\x97I\x86\xf8?\xfd\x8d>\xee\xda\x95\xe0?'
p13
tp14
b(lp15
(lp16
cnumpy.core.multiarray
scalar
p17
(g10
S'\x11\x02\x1a\x81\xbe\xe55\xc0'
p18
tp19
Rp20
ag17
(g10
S'OM\x06\xb4\x87\xf68@'
p21
tp22
Rp23
aa(lp24
g17
(g10
S'!\xd0\xe2\xc2B\x94\xe0?'
p25
tp26
Rp27
ag17
(g10
S'\xd9K\x9a\x19s\x97\xe0?'
p28
tp29
Rp30
aatp31
.