(cnumpy.core.multiarray
_reconstruct
p0
(cnumpy
ndarray
p1
(I0
tp2
S'b'
p3
tp4
Rp5
(I1
(I2
tp6
cnumpy
dtype
p7
(S'f8'
p8
I0
I1
tp9
Rp10
(I3
S'<'
p11
NNNI-1
I-1
I0
tp12
bI00
S'\xa7\xf7\xd57\x00nP?\x03wE3 \xbd\xe0?'
p13
tp14
b(lp15
(lp16
cnumpy.core.multiarray
scalar
p17
(g10
S'\xa0\xb8pd\xcaLn\xbf'
p18
tp19
Rp20
ag17
(g10
S'$X#Ne]w?'
p21
tp22
Rp23
aa(lp24
g17
(g10
S'4\xf5\xc0\xd0\xb3\xba\xe0?'
p25
tp26
Rp27
ag17
(g10
S'\xd2\xf8\xc9\x95\x8c\xbf\xe0?'
p28
tp29
Rp30
aatp31
.