(cnumpy.core.multiarray
_reconstruct
p0
(cnumpy
ndarray
p1
(I0
tp2
S'b'
p3
tp4
Rp5
(I1
(I2
tp6
cnumpy
dtype
p7
(S'f8'
p8
I0
I1
tp9
Rp10
(I3
S'<'
p11
NNNI-1
I-1
I0
tp12
bI00
S'\xfa:\x98\x00\x1b\xd9\n@\xc5Mk\xc0\x17\xf8\xe0?'
p13
tp14
b(lp15
(lp16
cnumpy.core.multiarray
scalar
p17
(g10
S'\xf4,m\x14\x08\xd9b\xc0'
p18
tp19
Rp20
ag17
(g10
S'\xcc\xeeq\xec\xd0\xafc@'
p21
tp22
Rp23
aa(lp24
g17
(g10
S'\xdb\x08W,O\xf6\xe0?'
p25
tp26
Rp27
ag17
(g10
S'\xaf\x92\x7fT\xe0\xf9\xe0?'
p28
tp29
Rp30
aatp31
.