(cnumpy.core.multiarray
_reconstruct
p0
(cnumpy
ndarray
p1
(I0
tp2
S'b'
p3
tp4
Rp5
(I1
(I2
tp6
cnumpy
dtype
p7
(S'f8'
p8
I0
I1
tp9
Rp10
(I3
S'<'
p11
NNNI-1
I-1
I0
tp12
bI00
S'\xbc\xac\xaa\xf6\x16\x7f\xed?\x80&Izy\xdd\xe0?'
p13
tp14
b(lp15
(lp16
cnumpy.core.multiarray
scalar
p17
(g10
S'\x0e\x13\x8b?,e\x1c\xc0'
p18
tp19
Rp20
ag17
(g10
S'\x1f\xdf\x9a\xfex\xe2!@'
p21
tp22
Rp23
aa(lp24
g17
(g10
S'\xd0\x87\xee\xba\xcd\xdb\xe0?'
p25
tp26
Rp27
ag17
(g10
S'0\xc5\xa39%\xdf\xe0?'
p28
tp29
Rp30
aatp31
.