(cnumpy.core.multiarray
_reconstruct
p0
(cnumpy
ndarray
p1
(I0
tp2
S'b'
p3
tp4
Rp5
(I1
(I2
tp6
cnumpy
dtype
p7
(S'f8'
p8
I0
I1
tp9
Rp10
(I3
S'<'
p11
NNNI-1
I-1
I0
tp12
bI00
S'\xc5\xe1\xe8\x82\xc4k\x0e@\xd5=a\r\xac\x1e\xe1?'
p13
tp14
b(lp15
(lp16
cnumpy.core.multiarray
scalar
p17
(g10
S'^\x13^\xac\xb0\xe6e\xc0'
p18
tp19
Rp20
ag17
(g10
S'lZu\xd0\x0e\xdaf@'
p21
tp22
Rp23
aa(lp24
g17
(g10
S'k\x800\xf0\xeb\x1c\xe1?'
p25
tp26
Rp27
ag17
(g10
S'?\xfb\x91*l \xe1?'
p28
tp29
Rp30
aatp31
.