(cnumpy.core.multiarray
_reconstruct
p0
(cnumpy
ndarray
p1
(I0
tp2
S'b'
p3
tp4
Rp5
(I1
(I3
tp6
cnumpy
dtype
p7
(S'f8'
p8
I0
I1
tp9
Rp10
(I3
S'<'
p11
NNNI-1
I-1
I0
tp12
bI00
S'\xfe\xe1\x08\xb1)^R@\x0b\x14Y\xb7YUn?j)1\xab\xcew\xe0?'
p13
tp14
b(lp15
(lp16
cnumpy.core.multiarray
scalar
p17
(g10
S'F\x03\x02\x00H\xbfP@'
p18
tp19
Rp20
ag17
(g10
S'\xb6\xc0\x0fb\x0b\xfdS@'
p21
tp22
Rp23
aa(lp24
g17
(g10
S'\xd0\x85 o\xd2jg?'
p25
tp26
Rp27
ag17
(g10
S'#\xd1\xc8\x7f\xf0\x9fr?'
p28
tp29
Rp30
aa(lp31
g17
(g10
S'\xdfH\xe2`yv\xe0?'
p32
tp33
Rp34
ag17
(g10
S'\xf5\t\x80\xf5#y\xe0?'
p35
tp36
Rp37
aatp38
.