(cnumpy.core.multiarray
_reconstruct
p0
(cnumpy
ndarray
p1
(I0
tp2
S'b'
p3
tp4
Rp5
(I1
(I3
tp6
cnumpy
dtype
p7
(S'f8'
p8
I0
I1
tp9
Rp10
(I3
S'<'
p11
NNNI-1
I-1
I0
tp12
bI00
S'\x94\xf5\xe8l\xf3\x8fL@\xe3k\x118{|\x83?\x119\xe5r\x01~\xe0?'
p13
tp14
b(lp15
(lp16
cnumpy.core.multiarray
scalar
p17
(g10
S't\xd8Y\x1cy"J@'
p18
tp19
Rp20
ag17
(g10
S'\xb4\x12x\xbdm\xfdN@'
p21
tp22
Rp23
aa(lp24
g17
(g10
S'\xd8g\x83\x97>\x06\x80?'
p25
tp26
Rp27
ag17
(g10
S'\xeeo\x9f\xd8\xb7\xf2\x86?'
p28
tp29
Rp30
aa(lp31
g17
(g10
S'\xdb\xa5Ys)}\xe0?'
p32
tp33
Rp34
ag17
(g10
S'G\xccpr\xd9~\xe0?'
p35
tp36
Rp37
aatp38
.