(cnumpy.core.multiarray
_reconstruct
p0
(cnumpy
ndarray
p1
(I0
tp2
S'b'
p3
tp4
Rp5
(I1
(I3
tp6
cnumpy
dtype
p7
(S'f8'
p8
I0
I1
tp9
Rp10
(I3
S'<'
p11
NNNI-1
I-1
I0
tp12
bI00
S'\'\x85Rx\x88^L@G\x88\xae\x99\xd6"\x81?A\xaa\x1f\x10d\x8e\xe0?'
p13
tp14
b(lp15
(lp16
cnumpy.core.multiarray
scalar
p17
(g10
S'R40\xfdCXF@'
p18
tp19
Rp20
ag17
(g10
S'\xfej\xbayf2Q@'
p21
tp22
Rp23
aa(lp24
g17
(g10
S',\x16\xde\x98\xb9\xc1r?'
p25
tp26
Rp27
ag17
(g10
S'x\x05\xeef\xd0\xe4\x88?'
p28
tp29
Rp30
aa(lp31
g17
(g10
S'CL\x9a\x18\x18\x8c\xe0?'
p32
tp33
Rp34
ag17
(g10
S'?\x08\xa5\x07\xb0\x90\xe0?'
p35
tp36
Rp37
aatp38
.