(cnumpy.core.multiarray
_reconstruct
p0
(cnumpy
ndarray
p1
(I0
tp2
S'b'
p3
tp4
Rp5
(I1
(I3
tp6
cnumpy
dtype
p7
(S'f8'
p8
I0
I1
tp9
Rp10
(I3
S'<'
p11
NNNI-1
I-1
I0
tp12
bI00
S'l\xad\xba+\x1c\x8fN@\x03\xd8\xb2l2\xd7y?~\xb2v\xada\xb7\xe0?'
p13
tp14
b(lp15
(lp16
cnumpy.core.multiarray
scalar
p17
(g10
S'h\xf1\xb53\xceLL@'
p18
tp19
Rp20
ag17
(g10
S'\xb8\xb4\xdf\x11\xb5hP@'
p21
tp22
Rp23
aa(lp24
g17
(g10
S'%{\x08\xd9\x95\x7fu?'
p25
tp26
Rp27
ag17
(g10
S'\xe14]\x00\xcf.~?'
p28
tp29
Rp30
aa(lp31
g17
(g10
S'g\xf0\xbc\xd1y\xb6\xe0?'
p32
tp33
Rp34
ag17
(g10
S'\x95t0\x89I\xb8\xe0?'
p35
tp36
Rp37
aatp38
.