(cnumpy.core.multiarray
_reconstruct
p0
(cnumpy
ndarray
p1
(I0
tp2
S'b'
p3
tp4
Rp5
(I1
(I3
tp6
cnumpy
dtype
p7
(S'f8'
p8
I0
I1
tp9
Rp10
(I3
S'<'
p11
NNNI-1
I-1
I0
tp12
bI00
S'\xd5*\xaa\x04\x0f P@/l\x10\xfa\xcf\xbe}?}\xff\x9e\xbf/\x9a\xe0?'
p13
tp14
b(lp15
(lp16
cnumpy.core.multiarray
scalar
p17
(g10
S'([\x82\x00bwC@'
p18
tp19
Rp20
ag17
(g10
S'\x16(\x13\tm\x84V@'
p21
tp22
Rp23
aa(lp24
g17
(g10
S'\x8cC$\x1a\x8eRP?'
p25
tp26
Rp27
ag17
(g10
S'\xbe\xe3\xcb6~\xb4\x8b?'
p28
tp29
Rp30
aa(lp31
g17
(g10
S'\xcc\xd6\x12\xe6\x1d\x96\xe0?'
p32
tp33
Rp34
ag17
(g10
S'.(+\x99A\x9e\xe0?'
p35
tp36
Rp37
aatp38
.