(cnumpy.core.multiarray
_reconstruct
p0
(cnumpy
ndarray
p1
(I0
tp2
S'b'
p3
tp4
Rp5
(I1
(I3
tp6
cnumpy
dtype
p7
(S'f8'
p8
I0
I1
tp9
Rp10
(I3
S'<'
p11
NNNI-1
I-1
I0
tp12
bI00
S'\xa5\xf7c\x04\x18.I@2\xcc\x13U\xdf\xb0\x85?\x08\xe5K\xf7C\x99\xe0?'
p13
tp14
b(lp15
(lp16
cnumpy.core.multiarray
scalar
p17
(g10
S'\x1f(\nnk\x16D@'
p18
tp19
Rp20
ag17
(g10
S'+\xc7\xbd\x9a\xc4EN@'
p21
tp22
Rp23
aa(lp24
g17
(g10
S'\x8c\xddd\xc1\xc2Iy?'
p25
tp26
Rp27
ag17
(g10
S'\x9e)uI\xdd\xbc\x8e?'
p28
tp29
Rp30
aa(lp31
g17
(g10
S'\xaf\xa4\xc0m,\x97\xe0?'
p32
tp33
Rp34
ag17
(g10
S'a%\xd7\x80[\x9b\xe0?'
p35
tp36
Rp37
aatp38
.