(cnumpy.core.multiarray
_reconstruct
p0
(cnumpy
ndarray
p1
(I0
tp2
S'b'
p3
tp4
Rp5
(I1
(I3
tp6
cnumpy
dtype
p7
(S'f8'
p8
I0
I1
tp9
Rp10
(I3
S'<'
p11
NNNI-1
I-1
I0
tp12
bI00
S'Y@\xf4Zh\xc8M@\xdcIn{\xce?w?\xadQ\x1fT\x8e\xc7\xe0?'
p13
tp14
b(lp15
(lp16
cnumpy.core.multiarray
scalar
p17
(g10
S'\xda@\xe6F7vF@'
p18
tp19
Rp20
ag17
(g10
S'\xec\x1f\x81\xb7L\x8dR@'
p21
tp22
Rp23
aa(lp24
g17
(g10
S'\x08\xab\xe8N\xdc\xf6c?'
p25
tp26
Rp27
ag17
(g10
S'\x1a\x1f\xb4g\x17B\x82?'
p28
tp29
Rp30
aa(lp31
g17
(g10
S'Kt.\x14G\xc4\xe0?'
p32
tp33
Rp34
ag17
(g10
S'\x0f/\x10\x94\xd5\xca\xe0?'
p35
tp36
Rp37
aatp38
.