(cnumpy.core.multiarray
_reconstruct
p0
(cnumpy
ndarray
p1
(I0
tp2
S'b'
p3
tp4
Rp5
(I1
(I3
tp6
cnumpy
dtype
p7
(S'f8'
p8
I0
I1
tp9
Rp10
(I3
S'<'
p11
NNNI-1
I-1
I0
tp12
bI00
S'\xab\xa9\x85&J\x00Q@\xa6q\x8e\xd5\x81\xcbu?P\x07/\xe8\xe3\xa8\xe0?'
p13
tp14
b(lp15
(lp16
cnumpy.core.multiarray
scalar
p17
(g10
S'\xd5/8\x126BO@'
p18
tp19
Rp20
ag17
(g10
S'k;\xefCy_R@'
p21
tp22
Rp23
aa(lp24
g17
(g10
S'\x19\x1f6;\xd8\x9fq?'
p25
tp26
Rp27
ag17
(g10
S'3\xc4\xe6o+\xf7y?'
p28
tp29
Rp30
aa(lp31
g17
(g10
S' \xad\xaa\xf4\xe0\xa7\xe0?'
p32
tp33
Rp34
ag17
(g10
S'\x80a\xb3\xdb\xe6\xa9\xe0?'
p35
tp36
Rp37
aatp38
.