(cnumpy.core.multiarray
_reconstruct
p0
(cnumpy
ndarray
p1
(I0
tp2
S'b'
p3
tp4
Rp5
(I1
(I3
tp6
cnumpy
dtype
p7
(S'f8'
p8
I0
I1
tp9
Rp10
(I3
S'<'
p11
NNNI-1
I-1
I0
tp12
bI00
S'%\x81\xc6\x80Q-P@\xddu=\x99\x81#\x82?\xe9\xa3\xa1\x07\x80\x9d\xe0?'
p13
tp14
b(lp15
(lp16
cnumpy.core.multiarray
scalar
p17
(g10
S'\xcc\xcc:v-sL@'
p18
tp19
Rp20
ag17
(g10
S'\xe4\x9boF\x0c!R@'
p21
tp22
Rp23
aa(lp24
g17
(g10
S'\x00}\xaa\xcd\xa4\x0b{?'
p25
tp26
Rp27
ag17
(g10
S':\xad\xa5\xcb0\xc1\x86?'
p28
tp29
Rp30
aa(lp31
g17
(g10
S'*n\n-k\x9c\xe0?'
p32
tp33
Rp34
ag17
(g10
S'\xa8\xd98\xe2\x94\x9e\xe0?'
p35
tp36
Rp37
aatp38
.