(cnumpy.core.multiarray
_reconstruct
p0
(cnumpy
ndarray
p1
(I0
tp2
S'b'
p3
tp4
Rp5
(I1
(I3
tp6
cnumpy
dtype
p7
(S'f8'
p8
I0
I1
tp9
Rp10
(I3
S'<'
p11
NNNI-1
I-1
I0
tp12
bI00
S'\x04\x81\xc9\xd2\x84NR@\x99O_\x135Ot?<~\xc4b!\xb7\xe0?'
p13
tp14
b(lp15
(lp16
cnumpy.core.multiarray
scalar
p17
(g10
S'1\x1ci\xc3\xcdUQ@'
p18
tp19
Rp20
ag17
(g10
S'\xd7\xe5)\xe2;GS@'
p21
tp22
Rp23
aa(lp24
g17
(g10
S'\x0e\xa6p:q\xb7q?'
p25
tp26
Rp27
ag17
(g10
S'$\xf9M\xec\xf8\xe6v?'
p28
tp29
Rp30
aa(lp31
g17
(g10
S'8\x14\xe0\xa5|\xb6\xe0?'
p32
tp33
Rp34
ag17
(g10
S'@\xe8\xa8\x1f\xc6\xb7\xe0?'
p35
tp36
Rp37
aatp38
.