(cnumpy.core.multiarray
_reconstruct
p0
(cnumpy
ndarray
p1
(I0
tp2
S'b'
p3
tp4
Rp5
(I1
(I3
tp6
cnumpy
dtype
p7
(S'f8'
p8
I0
I1
tp9
Rp10
(I3
S'<'
p11
NNNI-1
I-1
I0
tp12
bI00
S"':\xb3\xe3\xbfDS@\x85\x91\xd0+\xb9\x0cm?D\neZB\x96\xe0?"
p13
tp14
b(lp15
(lp16
cnumpy.core.multiarray
scalar
p17
(g10
S'\xd1\x80\x94_\x1f0R@'
p18
tp19
Rp20
ag17
(g10
S'}\xf3\xd1g`YT@'
p21
tp22
Rp23
aa(lp24
g17
(g10
S'\x9b5\x1c\xb9\xe1\xc9h?'
p25
tp26
Rp27
ag17
(g10
S'\xb8vBO\xc8\xa7p?'
p28
tp29
Rp30
aa(lp31
g17
(g10
S'\xbc;H*o\x95\xe0?'
p32
tp33
Rp34
ag17
(g10
S'\xcc\xd8\x81\x8a\x15\x97\xe0?'
p35
tp36
Rp37
aatp38
.