(cnumpy.core.multiarray
_reconstruct
p0
(cnumpy
ndarray
p1
(I0
tp2
S'b'
p3
tp4
Rp5
(I1
(I3
tp6
cnumpy
dtype
p7
(S'f8'
p8
I0
I1
tp9
Rp10
(I3
S'<'
p11
NNNI-1
I-1
I0
tp12
bI00
S'(<\xdcqsoP@\xdc@\x8e(\x17\xc1}?&`\xa5,\n\xae\xe0?'
p13
tp14
b(lp15
(lp16
cnumpy.core.multiarray
scalar
p17
(g10
S'0\x93Z\xc2\xba\xc7N@'
p18
tp19
Rp20
ag17
(g10
S'\xb8.\x8b\x82\t{Q@'
p21
tp22
Rp23
aa(lp24
g17
(g10
S'\xfe\xa9=>#\x98y?'
p25
tp26
Rp27
ag17
(g10
S'\xddko\x89\x05\xf5\x80?'
p28
tp29
Rp30
aa(lp31
g17
(g10
S'\xb4\xe0C\xb6d\xad\xe0?'
p32
tp33
Rp34
ag17
(g10
S'\x98\xdf\x06\xa3\xaf\xae\xe0?'
p35
tp36
Rp37
aatp38
.