(cnumpy.core.multiarray
_reconstruct
p0
(cnumpy
ndarray
p1
(I0
tp2
S'b'
p3
tp4
Rp5
(I1
(I3
tp6
cnumpy
dtype
p7
(S'f8'
p8
I0
I1
tp9
Rp10
(I3
S'<'
p11
NNNI-1
I-1
I0
tp12
bI00
S'\xabz7\x89\xde\xd4R@\x8b"\xe0\xa0|\xb1u?\xe4\x9c\xbacV\x94\xe0?'
p13
tp14
b(lp15
(lp16
cnumpy.core.multiarray
scalar
p17
(g10
S'\xddh\x1f+H\xf6P@'
p18
tp19
Rp20
ag17
(g10
S'y\x8cO\xe7t\xb3T@'
p21
tp22
Rp23
aa(lp24
g17
(g10
S'[\xf7 \x98\x19\x99p?'
p25
tp26
Rp27
ag17
(g10
S'\xbbM\x9f\xa9\xdf\xc9z?'
p28
tp29
Rp30
aa(lp31
g17
(g10
S'\x86\x89\xc7v7\x93\xe0?'
p32
tp33
Rp34
ag17
(g10
S'B\xb0\xadPu\x95\xe0?'
p35
tp36
Rp37
aatp38
.