(cnumpy.core.multiarray
_reconstruct
p0
(cnumpy
ndarray
p1
(I0
tp2
S'b'
p3
tp4
Rp5
(I1
(I3
tp6
cnumpy
dtype
p7
(S'f8'
p8
I0
I1
tp9
Rp10
(I3
S'<'
p11
NNNI-1
I-1
I0
tp12
bI00
S'\xd3\xf40\xa5\x8a\x94Q@\xffB\x85B\x0b\xc2v?\x03\xbd\xb6y\x9d\xae\xe0?'
p13
tp14
b(lp15
(lp16
cnumpy.core.multiarray
scalar
p17
(g10
S'm\x04W\x04\x87eP@'
p18
tp19
Rp20
ag17
(g10
S'9\xe5\nF\x8e\xc3R@'
p21
tp22
Rp23
aa(lp24
g17
(g10
S'"\n\xb8\xa7\xc4.s?'
p25
tp26
Rp27
ag17
(g10
S'\xdc{R\xddQUz?'
p28
tp29
Rp30
aa(lp31
g17
(g10
S'\xf3\xfc\x96\x81\xd6\xad\xe0?'
p32
tp33
Rp34
ag17
(g10
S'\x13}\xd6qd\xaf\xe0?'
p35
tp36
Rp37
aatp38
.