(cnumpy.core.multiarray
_reconstruct
p0
(cnumpy
ndarray
p1
(I0
tp2
S'b'
p3
tp4
Rp5
(I1
(I3
tp6
cnumpy
dtype
p7
(S'f8'
p8
I0
I1
tp9
Rp10
(I3
S'<'
p11
NNNI-1
I-1
I0
tp12
bI00
S'\xe6V"\\\x0b\x9aN@-\xd5\xfd\xda\x19\x0b\x80?\x8e{!G\xc1\xa3\xe0?'
p13
tp14
b(lp15
(lp16
cnumpy.core.multiarray
scalar
p17
(g10
S'\xacX\x06\x06\x18\x9dL@'
p18
tp19
Rp20
ag17
(g10
S'\x90*\x1fY\x7fKP@'
p21
tp22
Rp23
aa(lp24
g17
(g10
S'\x11ro\xf7\xfc\x8f{?'
p25
tp26
Rp27
ag17
(g10
S'Q\xf1C:5N\x82?'
p28
tp29
Rp30
aa(lp31
g17
(g10
S'\xe6\xee\xb8F\x13\xa3\xe0?'
p32
tp33
Rp34
ag17
(g10
S'6\x08\x8aGo\xa4\xe0?'
p35
tp36
Rp37
aatp38
.