(cnumpy.core.multiarray
_reconstruct
p0
(cnumpy
ndarray
p1
(I0
tp2
S'b'
p3
tp4
Rp5
(I1
(I3
tp6
cnumpy
dtype
p7
(S'f8'
p8
I0
I1
tp9
Rp10
(I3
S'<'
p11
NNNI-1
I-1
I0
tp12
bI00
S'Ma\x8f1\xe5&Q@\xd2\xe5\xf7\xf0.\x02|?0!W\xa1O\xcf\xe0?'
p13
tp14
b(lp15
(lp16
cnumpy.core.multiarray
scalar
p17
(g10
S'DP\\\x99\xf0\x8eO@'
p18
tp19
Rp20
ag17
(g10
S'x\x9ap\x16R\x86R@'
p21
tp22
Rp23
aa(lp24
g17
(g10
S'\x81\x9c\xf9!\xd0\xffv?'
p25
tp26
Rp27
ag17
(g10
S'\x91\x17\xfb\xdfF\x82\x80?'
p28
tp29
Rp30
aa(lp31
g17
(g10
S'\xae\xdf\xd5\xf3}\xce\xe0?'
p32
tp33
Rp34
ag17
(g10
S'\xb2b\xd8N!\xd0\xe0?'
p35
tp36
Rp37
aatp38
.