(cnumpy.core.multiarray
_reconstruct
p0
(cnumpy
ndarray
p1
(I0
tp2
S'b'
p3
tp4
Rp5
(I1
(I3
tp6
cnumpy
dtype
p7
(S'f8'
p8
I0
I1
tp9
Rp10
(I3
S'<'
p11
NNNI-1
I-1
I0
tp12
bI00
S'\x93\xa4\xa7\x93\xe7\xd0O@\x8cS\xdd/\xab\xbc}?ZRP\x85G\x98\xe0?'
p13
tp14
b(lp15
(lp16
cnumpy.core.multiarray
scalar
p17
(g10
S'& \xc9\xae\xfa\xd3I@'
p18
tp19
Rp20
ag17
(g10
S'\x80\x14C<\xea\xe6R@'
p21
tp22
Rp23
aa(lp24
g17
(g10
S'\xa41\x17+Sjq?'
p25
tp26
Rp27
ag17
(g10
S'\xba\xbaQ\x9a\x81\x07\x85?'
p28
tp29
Rp30
aa(lp31
g17
(g10
S'-\xcc7\xa6A\x96\xe0?'
p32
tp33
Rp34
ag17
(g10
S'\x87\xd8hdM\x9a\xe0?'
p35
tp36
Rp37
aatp38
.