(cnumpy.core.multiarray
_reconstruct
p0
(cnumpy
ndarray
p1
(I0
tp2
S'b'
p3
tp4
Rp5
(I1
(I3
tp6
cnumpy
dtype
p7
(S'f8'
p8
I0
I1
tp9
Rp10
(I3
S'<'
p11
NNNI-1
I-1
I0
tp12
bI00
S"78\x06\xc4l\xffP@\x99\xa7@\xda \xc2u?\xdb\xa1y'\x1b\xae\xe0?"
p13
tp14
b(lp15
(lp16
cnumpy.core.multiarray
scalar
p17
(g10
S'$1H\xd6h\x15P@'
p18
tp19
Rp20
ag17
(g10
S'J?\xc4\xb1p\xe9Q@'
p21
tp22
Rp23
aa(lp24
g17
(g10
S'\x1fl=Z\xd6\xfer?'
p25
tp26
Rp27
ag17
(g10
S'\x13\xe3CZk\x85x?'
p28
tp29
Rp30
aa(lp31
g17
(g10
S'\xa9MT\xfao\xad\xe0?'
p32
tp33
Rp34
ag17
(g10
S'\r\xf6\x9eT\xc6\xae\xe0?'
p35
tp36
Rp37
aatp38
.