(cnumpy.core.multiarray
_reconstruct
p0
(cnumpy
ndarray
p1
(I0
tp2
S'b'
p3
tp4
Rp5
(I1
(I3
tp6
cnumpy
dtype
p7
(S'f8'
p8
I0
I1
tp9
Rp10
(I3
S'<'
p11
NNNI-1
I-1
I0
tp12
bI00
S'+\xfb\xe6h\xb7\xb5N@XP\x9e\xb6\x96[|?}\x90\x00\xae\xe6\xaf\xe0?'
p13
tp14
b(lp15
(lp16
cnumpy.core.multiarray
scalar
p17
(g10
S'!\x8e\xa6I\x99\xddM@'
p18
tp19
Rp20
ag17
(g10
S"5h'\x88\xd5\x8dO@"
p21
tp22
Rp23
aa(lp24
g17
(g10
S'$*\x12|\xe7\x08|?'
p25
tp26
Rp27
ag17
(g10
S'\x8cv*\xf1E\xae|?'
p28
tp29
Rp30
aa(lp31
g17
(g10
S'j\xa5\xc6,c\xaf\xe0?'
p32
tp33
Rp34
ag17
(g10
S'\x90{:/j\xb0\xe0?'
p35
tp36
Rp37
aatp38
.