(cnumpy.core.multiarray
_reconstruct
p0
(cnumpy
ndarray
p1
(I0
tp2
S'b'
p3
tp4
Rp5
(I1
(I3
tp6
cnumpy
dtype
p7
(S'f8'
p8
I0
I1
tp9
Rp10
(I3
S'<'
p11
NNNI-1
I-1
I0
tp12
bI00
S'\x8e\x92\x9d6-\xbdP@X\x8e\xff[\xd42w?qUo\xebG\x96\xe0?'
p13
tp14
b(lp15
(lp16
cnumpy.core.multiarray
scalar
p17
(g10
S'\xc9X\xae3\xd6\x89N@'
p18
tp19
Rp20
ag17
(g10
S'\xb8\xf8cSo5R@'
p21
tp22
Rp23
aa(lp24
g17
(g10
S'K\x96pH\x80pr?'
p25
tp26
Rp27
ag17
(g10
S'e\x86\x8eo(\xf5{?'
p28
tp29
Rp30
aa(lp31
g17
(g10
S'\x13\x9eyJ5\x95\xe0?'
p32
tp33
Rp34
ag17
(g10
S'\xcf\x0ce\x8cZ\x97\xe0?'
p35
tp36
Rp37
aatp38
.