(cnumpy.core.multiarray
_reconstruct
p0
(cnumpy
ndarray
p1
(I0
tp2
S'b'
p3
tp4
Rp5
(I1
(I3
tp6
cnumpy
dtype
p7
(S'f8'
p8
I0
I1
tp9
Rp10
(I3
S'<'
p11
NNNI-1
I-1
I0
tp12
bI00
S'\x024E\x18M1T@]?c_\xcb\x8f\\?\xf7\xf1\x17\x0b4\x93\xe0?'
p13
tp14
b(lp15
(lp16
cnumpy.core.multiarray
scalar
p17
(g10
S'xd\xf5\x0em9Q@'
p18
tp19
Rp20
ag17
(g10
S'\x8c\x03\x95!-)W@'
p21
tp22
Rp23
aa(lp24
g17
(g10
S'\x96*\x91]\xe2\x8c\\?'
p25
tp26
Rp27
ag17
(g10
S'$T5a\xb4\x92\\?'
p28
tp29
Rp30
aa(lp31
g17
(g10
S'\xc40}RO\x8f\xe0?'
p32
tp33
Rp34
ag17
(g10
S'*\xb3\xb2\xc3\x18\x97\xe0?'
p35
tp36
Rp37
aatp38
.