(cnumpy.core.multiarray
_reconstruct
p0
(cnumpy
ndarray
p1
(I0
tp2
S'b'
p3
tp4
Rp5
(I1
(I3
tp6
cnumpy
dtype
p7
(S'f8'
p8
I0
I1
tp9
Rp10
(I3
S'<'
p11
NNNI-1
I-1
I0
tp12
bI00
S'\xf0\x90\xe8]\x8d\x9aO@\x15\xcbH\\\xdf\x9ez?\xdffx\x08\x93\x83\xe0?'
p13
tp14
b(lp15
(lp16
cnumpy.core.multiarray
scalar
p17
(g10
S'\xff\xe4\xbeU\xc2jH@'
p18
tp19
Rp20
ag17
(g10
S'q\x1e\t3,eS@'
p21
tp22
Rp23
aa(lp24
g17
(g10
S'h6*\x06i\xd4i?'
p25
tp26
Rp27
ag17
(g10
S'{=\xbe\x1a\xc5)\x84?'
p28
tp29
Rp30
aa(lp31
g17
(g10
S'\xa2\x92\x02\xbb\xed\x80\xe0?'
p32
tp33
Rp34
ag17
(g10
S'\x1c;\xeeU8\x86\xe0?'
p35
tp36
Rp37
aatp38
.