(cnumpy.core.multiarray
_reconstruct
p0
(cnumpy
ndarray
p1
(I0
tp2
S'b'
p3
tp4
Rp5
(I1
(I3
tp6
cnumpy
dtype
p7
(S'f8'
p8
I0
I1
tp9
Rp10
(I3
S'<'
p11
NNNI-1
I-1
I0
tp12
bI00
S'\x0b\tGz\xfc\x80P@F\xb6\x1f\xf4\x10\x17\x80?\xb0\xc8V\xc4d\xb7\xe0?'
p13
tp14
b(lp15
(lp16
cnumpy.core.multiarray
scalar
p17
(g10
S'\xb9-\x0f?\xd2?N@'
p18
tp19
Rp20
ag17
(g10
S'9{\x06\xd5\x0f\xe2Q@'
p21
tp22
Rp23
aa(lp24
g17
(g10
S'\xd1|~-2Yz?'
p25
tp26
Rp27
ag17
(g10
S'#.\x80\xd1\x88\x01\x83?'
p28
tp29
Rp30
aa(lp31
g17
(g10
S'(q\xe71\x95\xb6\xe0?'
p32
tp33
Rp34
ag17
(g10
S'8 \xc6V4\xb8\xe0?'
p35
tp36
Rp37
aatp38
.