(cnumpy.core.multiarray
_reconstruct
p0
(cnumpy
ndarray
p1
(I0
tp2
S'b'
p3
tp4
Rp5
(I1
(I3
tp6
cnumpy
dtype
p7
(S'f8'
p8
I0
I1
tp9
Rp10
(I3
S'<'
p11
NNNI-1
I-1
I0
tp12
bI00
S'IB\xfd\xbb\xa1\xc1F@f\xfa\x9e\x10UN\x91?\xcbib\xe6y\x9f\xe0?'
p13
tp14
b(lp15
(lp16
cnumpy.core.multiarray
scalar
p17
(g10
S'\xe4\x8c\x7fq"N<@'
p18
tp19
Rp20
ag17
(g10
S' \xbe:?2\\O@'
p21
tp22
Rp23
aa(lp24
g17
(g10
S'\xda}\xd2J\x19\xf8s?'
p25
tp26
Rp27
ag17
(g10
S'VU\x89\xce\xa3\x9e\x9d?'
p28
tp29
Rp30
aa(lp31
g17
(g10
S'\xd03\xeb\x07q\x9c\xe0?'
p32
tp33
Rp34
ag17
(g10
S'\xc6\x9f\xd9\xc4\x82\xa2\xe0?'
p35
tp36
Rp37
aatp38
.