(cnumpy.core.multiarray
_reconstruct
p0
(cnumpy
ndarray
p1
(I0
tp2
S'b'
p3
tp4
Rp5
(I1
(I3
tp6
cnumpy
dtype
p7
(S'f8'
p8
I0
I1
tp9
Rp10
(I3
S'<'
p11
NNNI-1
I-1
I0
tp12
bI00
S'e\xe9\x85\x07\xc0GT@\x1cuz\x07\xf0\xc3o?\x0b\x999*\x1a\x94\xe0?'
p13
tp14
b(lp15
(lp16
cnumpy.core.multiarray
scalar
p17
(g10
S'vgmy\xb8\xf8R@'
p18
tp19
Rp20
ag17
(g10
S'Tk\x9e\x95\xc7\x96U@'
p21
tp22
Rp23
aa(lp24
g17
(g10
S'\xc9HM5\x04\x8cj?'
p25
tp26
Rp27
ag17
(g10
S'\xb8\xd0\xd3\xec\xed}r?'
p28
tp29
Rp30
aa(lp31
g17
(g10
S'\xb8*\x15\xd2B\x93\xe0?'
p32
tp33
Rp34
ag17
(g10
S'^\x07^\x82\xf1\x94\xe0?'
p35
tp36
Rp37
aatp38
.