(cnumpy.core.multiarray
_reconstruct
p0
(cnumpy
ndarray
p1
(I0
tp2
S'b'
p3
tp4
Rp5
(I1
(I3
tp6
cnumpy
dtype
p7
(S'f8'
p8
I0
I1
tp9
Rp10
(I3
S'<'
p11
NNNI-1
I-1
I0
tp12
bI00
S'p>+\xe8*0R@K~-\xd80|w?\xf3\xcd\xd0\xd2\x9e\xa5\xe0?'
p13
tp14
b(lp15
(lp16
cnumpy.core.multiarray
scalar
p17
(g10
S'F\x1es\xa2\xf1\x0fQ@'
p18
tp19
Rp20
ag17
(g10
S'\x9a^\xe3-dPS@'
p21
tp22
Rp23
aa(lp24
g17
(g10
S'\x99\xae\x8bso\x1ct?'
p25
tp26
Rp27
ag17
(g10
S'\xfdM\xcf<\xf2\xdbz?'
p28
tp29
Rp30
aa(lp31
g17
(g10
S'O\xe0\x87\x8e\xf0\xa4\xe0?'
p32
tp33
Rp34
ag17
(g10
S'\x97\xbb\x19\x17M\xa6\xe0?'
p35
tp36
Rp37
aatp38
.