(cnumpy.core.multiarray
_reconstruct
p0
(cnumpy
ndarray
p1
(I0
tp2
S'b'
p3
tp4
Rp5
(I1
(I3
tp6
cnumpy
dtype
p7
(S'f8'
p8
I0
I1
tp9
Rp10
(I3
S'<'
p11
NNNI-1
I-1
I0
tp12
bI00
S'\t\\-6E\xc5O@\x9b:x\x1d\xff\x88w?\xf2\xa9\xa6\xc0g\xa4\xe0?'
p13
tp14
b(lp15
(lp16
cnumpy.core.multiarray
scalar
p17
(g10
S'p\x89\x89q\x06"K@'
p18
tp19
Rp20
ag17
(g10
S'Q\x97h\xfdA4R@'
p21
tp22
Rp23
aa(lp24
g17
(g10
S'\xa5\xd2\x19g\xc6mo?'
p25
tp26
Rp27
ag17
(g10
S'\xe4\x8bc\x07\x1b[\x7f?'
p28
tp29
Rp30
aa(lp31
g17
(g10
S'\xca\xc7\x8f7g\xa2\xe0?'
p32
tp33
Rp34
ag17
(g10
S'\x1a\x8c\xbdIh\xa6\xe0?'
p35
tp36
Rp37
aatp38
.