(cnumpy.core.multiarray
_reconstruct
p0
(cnumpy
ndarray
p1
(I0
tp2
S'b'
p3
tp4
Rp5
(I1
(I3
tp6
cnumpy
dtype
p7
(S'f8'
p8
I0
I1
tp9
Rp10
(I3
S'<'
p11
NNNI-1
I-1
I0
tp12
bI00
S'\xe570~x\x06R@\x7f\xd9\x02\xe5\x04\xa2s?\xd0!\xb2\xf2\xaa\xa3\xe0?'
p13
tp14
b(lp15
(lp16
cnumpy.core.multiarray
scalar
p17
(g10
S'\xcbdk{\r\xf3P@'
p18
tp19
Rp20
ag17
(g10
S'\xff\n\xf5\x80\xe3\x19S@'
p21
tp22
Rp23
aa(lp24
g17
(g10
S'Zd}\x9a\xed\xc7p?'
p25
tp26
Rp27
ag17
(g10
S'\xa4N\x88/\x1c|v?'
p28
tp29
Rp30
aa(lp31
g17
(g10
S'(x\xf3v\xe7\xa2\xe0?'
p32
tp33
Rp34
ag17
(g10
S'x\xcbpnn\xa4\xe0?'
p35
tp36
Rp37
aatp38
.