(cnumpy.core.multiarray
_reconstruct
p0
(cnumpy
ndarray
p1
(I0
tp2
S'b'
p3
tp4
Rp5
(I1
(I3
tp6
cnumpy
dtype
p7
(S'f8'
p8
I0
I1
tp9
Rp10
(I3
S'<'
p11
NNNI-1
I-1
I0
tp12
bI00
S'3\xb9FD\x9bjM@\xeb\n\xb5\xe3_\xf2\x84?P\xa1:\xc8\xe1\x98\xe0?'
p13
tp14
b(lp15
(lp16
cnumpy.core.multiarray
scalar
p17
(g10
S'\xd9\xd1\xba?\xc3.J@'
p18
tp19
Rp20
ag17
(g10
S'GPi\xa49SP@'
p21
tp22
Rp23
aa(lp24
g17
(g10
S'P\xfeF\xc0\x038\x80?'
p25
tp26
Rp27
ag17
(g10
S'\x86\x17#\x07\xbc\xac\x89?'
p28
tp29
Rp30
aa(lp31
g17
(g10
S';\xc8\x04\xe7\xe6\x97\xe0?'
p32
tp33
Rp34
ag17
(g10
S'ezp\xa9\xdc\x99\xe0?'
p35
tp36
Rp37
aatp38
.