(cnumpy.core.multiarray
_reconstruct
p0
(cnumpy
ndarray
p1
(I0
tp2
S'b'
p3
tp4
Rp5
(I1
(I3
tp6
cnumpy
dtype
p7
(S'f8'
p8
I0
I1
tp9
Rp10
(I3
S'<'
p11
NNNI-1
I-1
I0
tp12
bI00
S'n\x1f\x17\x86G\xccP@Fg\xb0\xe9\xed\xcay?\rI\xaf\x13}\x92\xe0?'
p13
tp14
b(lp15
(lp16
cnumpy.core.multiarray
scalar
p17
(g10
S'\x9a\xfa\xc73+\xfeN@'
p18
tp19
Rp20
ag17
(g10
S'\x8fAJry\x19R@'
p21
tp22
Rp23
aa(lp24
g17
(g10
S'\xe9\x1a\x81\xe0eBu?'
p25
tp26
Rp27
ag17
(g10
S'\xa3\xb3\xdf\xf2uS~?'
p28
tp29
Rp30
aa(lp31
g17
(g10
S'\xcd\xb3\xca\xe9\xa0\x91\xe0?'
p32
tp33
Rp34
ag17
(g10
S'M\xde\x93=Y\x93\xe0?'
p35
tp36
Rp37
aatp38
.