(cnumpy.core.multiarray
_reconstruct
p0
(cnumpy
ndarray
p1
(I0
tp2
S'b'
p3
tp4
Rp5
(I1
(I4
tp6
cnumpy
dtype
p7
(S'f8'
p8
I0
I1
tp9
Rp10
(I3
S'<'
p11
NNNI-1
I-1
I0
tp12
bI00
S'\xd1F\xa7E;&j@\x8a.\xb4\x9d\xd6\xff7?f~\xca\x08\x0330@\xce\xfb;|\x88\x88\xe0?'
p13
tp14
b(lp15
(lp16
cnumpy.core.multiarray
scalar
p17
(g10
S'@/\x0c\x05\x12ug@'
p18
tp19
Rp20
ag17
(g10
S'b^B\x86d\xd7l@'
p21
tp22
Rp23
aa(lp24
g17
(g10
S'\xa6\xd4\x16\xae!N%?'
p25
tp26
Rp27
ag17
(g10
S'`y.2N\xacB?'
p28
tp29
Rp30
aa(lp31
g17
(g10
S'f~\xca\x08\x0330@'
p32
tp33
Rp34
ag17
(g10
S'f~\xca\x08\x0330@'
p35
tp36
Rp37
aa(lp38
g17
(g10
S'ulz\xb6u\x84\xe0?'
p39
tp40
Rp41
ag17
(g10
S"'\x8b\xfdA\x9b\x8c\xe0?"
p42
tp43
Rp44
aatp45
.