(cnumpy.core.multiarray
_reconstruct
p0
(cnumpy
ndarray
p1
(I0
tp2
S'b'
p3
tp4
Rp5
(I1
(I4
tp6
cnumpy
dtype
p7
(S'f8'
p8
I0
I1
tp9
Rp10
(I3
S'<'
p11
NNNI-1
I-1
I0
tp12
bI00
S'\xd0vQ\xc4e\x1ac@[\xd8p\x10RJt? &\xf1\xa0^9C@\x17%\x90\xa8\xf7\x95\xe0?'
p13
tp14
b(lp15
(lp16
cnumpy.core.multiarray
scalar
p17
(g10
S'\x82\xff\xbb+\x14\xbe[@'
p18
tp19
Rp20
ag17
(g10
S'\xdf\xed\xc4r\xc1Uh@'
p21
tp22
Rp23
aa(lp24
g17
(g10
S"\\T'ad\xf5Q?"
p25
tp26
Rp27
ag17
(g10
S'\xd0\xedK\x84\xa5\x0b\x82?'
p28
tp29
Rp30
aa(lp31
g17
(g10
S' &\xf1\xa0^9C@'
p32
tp33
Rp34
ag17
(g10
S' &\xf1\xa0^9C@'
p35
tp36
Rp37
aa(lp38
g17
(g10
S'\xdb\x04ONt\x93\xe0?'
p39
tp40
Rp41
ag17
(g10
S'SE\xd1\x02{\x98\xe0?'
p42
tp43
Rp44
aatp45
.