(cnumpy.core.multiarray
_reconstruct
p0
(cnumpy
ndarray
p1
(I0
tp2
S'b'
p3
tp4
Rp5
(I1
(I4
tp6
cnumpy
dtype
p7
(S'f8'
p8
I0
I1
tp9
Rp10
(I3
S'<'
p11
NNNI-1
I-1
I0
tp12
bI00
S'\x83\xde\x86\xe1\xf2\xd0[@);|\x96\\\xf3\x99?(_\x89uq`h@{4\x96\x02\xff\xbb\xe0?'
p13
tp14
b(lp15
(lp16
cnumpy.core.multiarray
scalar
p17
(g10
S'$u\x86\xfa1\x9cO@'
p18
tp19
Rp20
ag17
(g10
S':A\xe5b\xe6\xe9c@'
p21
tp22
Rp23
aa(lp24
g17
(g10
S'(#\xbbD\xeb\rw?'
p25
tp26
Rp27
ag17
(g10
S'\xc4\xd6\xe4-\x9f\x11\xa7?'
p28
tp29
Rp30
aa(lp31
g17
(g10
S'(_\x89uq`h@'
p32
tp33
Rp34
ag17
(g10
S'(_\x89uq`h@'
p35
tp36
Rp37
aa(lp38
g17
(g10
S'\xcc\x0fH\xf2\xa2\xba\xe0?'
p39
tp40
Rp41
ag17
(g10
S'*Y\xe4\x12[\xbd\xe0?'
p42
tp43
Rp44
aatp45
.