(cnumpy.core.multiarray
_reconstruct
p0
(cnumpy
ndarray
p1
(I0
tp2
S'b'
p3
tp4
Rp5
(I1
(I4
tp6
cnumpy
dtype
p7
(S'f8'
p8
I0
I1
tp9
Rp10
(I3
S'<'
p11
NNNI-1
I-1
I0
tp12
bI00
S'\xa2<\xfe\xaeD\x9cb@T\xc3\x04\xc5J\xc6s?\x17,\x98$Bd|@\xb7J\xb6\x9f\xd5\xa2\xe0?'
p13
tp14
b(lp15
(lp16
cnumpy.core.multiarray
scalar
p17
(g10
S'44\xc6J\x99#\\@'
p18
tp19
Rp20
ag17
(g10
S'*_\x99\xb8\xbc&g@'
p21
tp22
Rp23
aa(lp24
g17
(g10
S'\xce\x01\xc3\x1c\x88\xb8W?'
p25
tp26
Rp27
ag17
(g10
S'\x1acl\xc19\xcf\x80?'
p28
tp29
Rp30
aa(lp31
g17
(g10
S'\x17,\x98$Bd|@'
p32
tp33
Rp34
ag17
(g10
S'\x17,\x98$Bd|@'
p35
tp36
Rp37
aa(lp38
g17
(g10
S'L*a=~\xa0\xe0?'
p39
tp40
Rp41
ag17
(g10
S'"k\x0b\x02-\xa5\xe0?'
p42
tp43
Rp44
aatp45
.