(cnumpy.core.multiarray
_reconstruct
p0
(cnumpy
ndarray
p1
(I0
tp2
S'b'
p3
tp4
Rp5
(I1
(I4
tp6
cnumpy
dtype
p7
(S'f8'
p8
I0
I1
tp9
Rp10
(I3
S'<'
p11
NNNI-1
I-1
I0
tp12
bI00
S'\xfd\xb5\xeb\x9d3\xd7_@\x83v\x1d\x7f\xec\x06\x88?`.+ `\xe60@u\xc7T2o\xe5\xe0?'
p13
tp14
b(lp15
(lp16
cnumpy.core.multiarray
scalar
p17
(g10
S'(\x8d\xab\xa0\x8e!U@'
p18
tp19
Rp20
ag17
(g10
S'i\xef\x95MlFe@'
p21
tp22
Rp23
aa(lp24
g17
(g10
S'\x8c?\x18\x81\xb7\xc4i?'
p25
tp26
Rp27
ag17
(g10
S'\x92n\xfa\x8eU\xce\x94?'
p28
tp29
Rp30
aa(lp31
g17
(g10
S'`.+ `\xe60@'
p32
tp33
Rp34
ag17
(g10
S'`.+ `\xe60@'
p35
tp36
Rp37
aa(lp38
g17
(g10
S'\x1c\x86S@\xae\xe3\xe0?'
p39
tp40
Rp41
ag17
(g10
S'\xce\x08V$0\xe7\xe0?'
p42
tp43
Rp44
aatp45
.