(cnumpy.core.multiarray
_reconstruct
p0
(cnumpy
ndarray
p1
(I0
tp2
S'b'
p3
tp4
Rp5
(I1
(I4
tp6
cnumpy
dtype
p7
(S'f8'
p8
I0
I1
tp9
Rp10
(I3
S'<'
p11
NNNI-1
I-1
I0
tp12
bI00
S'u\x03J\x83\x8foc@]\xe3-#\xbbp~?\x82\x86\\{\x8cGL@\x90\xea\xda\x1aw\xc0\xe0?'
p13
tp14
b(lp15
(lp16
cnumpy.core.multiarray
scalar
p17
(g10
S'.\xe3\xcfg|\t^@'
p18
tp19
Rp20
ag17
(g10
S'S\x15\xac\xd2`\xdag@'
p21
tp22
Rp23
aa(lp24
g17
(g10
S'\xee~\xc1\n!\x7fj?'
p25
tp26
Rp27
ag17
(g10
S'\xa2\x83}\xe0\xf2\xd0\x87?'
p28
tp29
Rp30
aa(lp31
g17
(g10
S'\x82\x86\\{\x8cGL@'
p32
tp33
Rp34
ag17
(g10
S'\x82\x86\\{\x8cGL@'
p35
tp36
Rp37
aa(lp38
g17
(g10
S'\x1bwm\xe8\x06\xbf\xe0?'
p39
tp40
Rp41
ag17
(g10
S'\x05^HM\xe7\xc1\xe0?'
p42
tp43
Rp44
aatp45
.