(cnumpy.core.multiarray
_reconstruct
p0
(cnumpy
ndarray
p1
(I0
tp2
S'b'
p3
tp4
Rp5
(I1
(I4
tp6
cnumpy
dtype
p7
(S'f8'
p8
I0
I1
tp9
Rp10
(I3
S'<'
p11
NNNI-1
I-1
I0
tp12
bI00
S'E$=\xc0q\xdei@-d\xc8\x8d\xa3\xa2i?!vP0\xbc\x86\xb0?\xb4\xba)\x85<\xb8\xe0?'
p13
tp14
b(lp15
(lp16
cnumpy.core.multiarray
scalar
p17
(g10
S'h\xa9\x84=\xc1Vb@'
p18
tp19
Rp20
ag17
(g10
S'\x91\xcfz!\x11\xb3p@'
p21
tp22
Rp23
aa(lp24
g17
(g10
S'\xd0HB\xf2&W-?'
p25
tp26
Rp27
ag17
(g10
S'\xe6Q6V\xea\xb7x?'
p28
tp29
Rp30
aa(lp31
g17
(g10
S'`\xa1.\x03\xb2_o\xbf'
p32
tp33
Rp34
ag17
(g10
S'\xa60]\xf8:\x04\xc1?'
p35
tp36
Rp37
aa(lp38
g17
(g10
S'`3i\x07f\xb5\xe0?'
p39
tp40
Rp41
ag17
(g10
S'\x08B\xea\x02\x13\xbb\xe0?'
p42
tp43
Rp44
aatp45
.