(cnumpy.core.multiarray
_reconstruct
p0
(cnumpy
ndarray
p1
(I0
tp2
S'b'
p3
tp4
Rp5
(I1
(I4
tp6
cnumpy
dtype
p7
(S'f8'
p8
I0
I1
tp9
Rp10
(I3
S'<'
p11
NNNI-1
I-1
I0
tp12
bI00
S'R\xd8\xf1/~\x10e@w[\xca!<te?v\xb6\xef\x8dR\x1bm@\xe0X\x97Z\x8f\x83\xe0?'
p13
tp14
b(lp15
(lp16
cnumpy.core.multiarray
scalar
p17
(g10
S'\xba=\x18\x13t4`@'
p18
tp19
Rp20
ag17
(g10
S'\xear\xcbL\x88\xeci@'
p21
tp22
Rp23
aa(lp24
g17
(g10
S'\xd0\xb1\\Wa\x80;?'
p25
tp26
Rp27
ag17
(g10
S'Z\x90T\x0c6\xbcs?'
p28
tp29
Rp30
aa(lp31
g17
(g10
S'v\xb6\xef\x8dR\x1bm@'
p32
tp33
Rp34
ag17
(g10
S'v\xb6\xef\x8dR\x1bm@'
p35
tp36
Rp37
aa(lp38
g17
(g10
S'\x85&\xee\xc0;\x80\xe0?'
p39
tp40
Rp41
ag17
(g10
S';\x8b@\xf4\xe2\x86\xe0?'
p42
tp43
Rp44
aatp45
.