(cnumpy.core.multiarray
_reconstruct
p0
(cnumpy
ndarray
p1
(I0
tp2
S'b'
p3
tp4
Rp5
(I1
(I4
tp6
cnumpy
dtype
p7
(S'f8'
p8
I0
I1
tp9
Rp10
(I3
S'<'
p11
NNNI-1
I-1
I0
tp12
bI00
S"k\x12W\xaeDZc@\xe1\x9fUz\x01\xf0~?\r\\^'CXC@\x95|\xe9\xf2\x7f\xc0\xe0?"
p13
tp14
b(lp15
(lp16
cnumpy.core.multiarray
scalar
p17
(g10
S'U\x8c\xd5\x0b\xfb\xe2]@'
p18
tp19
Rp20
ag17
(g10
S'\xac^\xc3\xd6\x0b\xc3g@'
p21
tp22
Rp23
aa(lp24
g17
(g10
S"\xa4'Lo\xc6\x04k?"
p25
tp26
Rp27
ag17
(g10
S'\xf8\x95\x82\xde\xcf.\x88?'
p28
tp29
Rp30
aa(lp31
g17
(g10
S"\r\\^'CXC@"
p32
tp33
Rp34
ag17
(g10
S"\r\\^'CXC@"
p35
tp36
Rp37
aa(lp38
g17
(g10
S'(\x18\x83H\x12\xbf\xe0?'
p39
tp40
Rp41
ag17
(g10
S'\x02\xe1O\x9d\xed\xc1\xe0?'
p42
tp43
Rp44
aatp45
.