(cnumpy.core.multiarray
_reconstruct
p0
(cnumpy
ndarray
p1
(I0
tp2
S'b'
p3
tp4
Rp5
(I1
(I4
tp6
cnumpy
dtype
p7
(S'f8'
p8
I0
I1
tp9
Rp10
(I3
S'<'
p11
NNNI-1
I-1
I0
tp12
bI00
S'\x93)w\x04?\xe3n@C^\xcb\x8b\x06-h?\xb7\x1f\xbbU\xdb\xc3\xa5?}\x89\xe3\x8a"\x9b\xe0?'
p13
tp14
b(lp15
(lp16
cnumpy.core.multiarray
scalar
p17
(g10
S'YN\xb6]\x8f\x83g@'
p18
tp19
Rp20
ag17
(g10
S'g\x02\x9cUw!s@'
p21
tp22
Rp23
aa(lp24
g17
(g10
S'\xe8\xf9al|/`?'
p25
tp26
Rp27
ag17
(g10
S'Oa\x9aUH\x15p?'
p28
tp29
Rp30
aa(lp31
g17
(g10
S'\xf81y\xa442\x91\xbf'
p32
tp33
Rp34
ag17
(g10
S'5l\xd9~h\x10\xba?'
p35
tp36
Rp37
aa(lp38
g17
(g10
S'xp\x0f\xca\xfe\x96\xe0?'
p39
tp40
Rp41
ag17
(g10
S'\x82\xa2\xb7KF\x9f\xe0?'
p42
tp43
Rp44
aatp45
.