(cnumpy.core.multiarray
_reconstruct
p0
(cnumpy
ndarray
p1
(I0
tp2
S'b'
p3
tp4
Rp5
(I1
(I4
tp6
cnumpy
dtype
p7
(S'f8'
p8
I0
I1
tp9
Rp10
(I3
S'<'
p11
NNNI-1
I-1
I0
tp12
bI00
S'J\xb9\x8e\x9b\xa8\x89W@ZVk\x8cC\x9d\xab?S.\xc2<c04@\x03nW_\x1d\xb5\xe0?'
p13
tp14
b(lp15
(lp16
cnumpy.core.multiarray
scalar
p17
(g10
S'\xecDJ\xfc?\x91A@'
p18
tp19
Rp20
ag17
(g10
S'\x0f(|\x9cX%c@'
p21
tp22
Rp23
aa(lp24
g17
(g10
S'\x18\xfd\x9aV\r\x8f\x8b\xbf'
p25
tp26
Rp27
ag17
(g10
S'\xfd\xb5>7%\x0f\xbf?'
p28
tp29
Rp30
aa(lp31
g17
(g10
S'S.\xc2<c04@'
p32
tp33
Rp34
ag17
(g10
S'S.\xc2<c04@'
p35
tp36
Rp37
aa(lp38
g17
(g10
S'\x17\xfa\xdd9\x99\xb1\xe0?'
p39
tp40
Rp41
ag17
(g10
S'\xef\xe1\xd0\x84\xa1\xb8\xe0?'
p42
tp43
Rp44
aatp45
.