(cnumpy.core.multiarray
_reconstruct
p0
(cnumpy
ndarray
p1
(I0
tp2
S'b'
p3
tp4
Rp5
(I1
(I4
tp6
cnumpy
dtype
p7
(S'f8'
p8
I0
I1
tp9
Rp10
(I3
S'<'
p11
NNNI-1
I-1
I0
tp12
bI00
S'\x1d\x0f\xc0!^.b@\x81_\xc5?\x98\xcf\x82?&\x9dk\r\t\x00\xf4?\xa0\xdbJ:\xa99\xe1?'
p13
tp14
b(lp15
(lp16
cnumpy.core.multiarray
scalar
p17
(g10
S'\xca5\xc0A\x80\x8eP@'
p18
tp19
Rp20
ag17
(g10
S'U\x03\xa0"|\x15l@'
p21
tp22
Rp23
aa(lp24
g17
(g10
S'\x85\xdc\xf9b\xc0\x8b\x88\xbf'
p25
tp26
Rp27
ag17
(g10
S'\xc4MBqx\x15\x9f?'
p28
tp29
Rp30
aa(lp31
g17
(g10
S'.\xea\xa8?7Y&\xc0'
p32
tp33
Rp34
ag17
(g10
S'x\xd1\x03\x839Y+@'
p35
tp36
Rp37
aa(lp38
g17
(g10
S'6\x834\x1bV.\xe1?'
p39
tp40
Rp41
ag17
(g10
S'\n4aY\xfcD\xe1?'
p42
tp43
Rp44
aatp45
.