(cnumpy.core.multiarray
_reconstruct
p0
(cnumpy
ndarray
p1
(I0
tp2
S'b'
p3
tp4
Rp5
(I1
(I4
tp6
cnumpy
dtype
p7
(S'f8'
p8
I0
I1
tp9
Rp10
(I3
S'<'
p11
NNNI-1
I-1
I0
tp12
bI00
S']\x93\xb2\x19\x7f\x0cJ@x\xa5\xa3\x14\xc8q\xc0?HP\xc1\xecMf-@\xd4\\R\xf4\xc6"\xe1?'
p13
tp14
b(lp15
(lp16
cnumpy.core.multiarray
scalar
p17
(g10
S'@\x8aZ\xbbVR\r@'
p18
tp19
Rp20
ag17
(g10
S'\x0b\xbf\xd7c\xec!Y@'
p21
tp22
Rp23
aa(lp24
g17
(g10
S'\xc0\x1b\xc8z\xaa\xd0\xa7\xbf'
p25
tp26
Rp27
ag17
(g10
S'\xf0\xa8\xfcc\xddk\xd3?'
p28
tp29
Rp30
aa(lp31
g17
(g10
S'HP\xc1\xecMf-@'
p32
tp33
Rp34
ag17
(g10
S'HP\xc1\xecMf-@'
p35
tp36
Rp37
aa(lp38
g17
(g10
S'@w3\xd9^\x1f\xe1?'
p39
tp40
Rp41
ag17
(g10
S'hBq\x0f/&\xe1?'
p42
tp43
Rp44
aatp45
.