(cnumpy.core.multiarray
_reconstruct
p0
(cnumpy
ndarray
p1
(I0
tp2
S'b'
p3
tp4
Rp5
(I1
(I4
tp6
cnumpy
dtype
p7
(S'f8'
p8
I0
I1
tp9
Rp10
(I3
S'<'
p11
NNNI-1
I-1
I0
tp12
bI00
S'\x13D\xee\x1etOd@N\x0e\xad\xb1\x1a\x01E?\x0b7\xa3P\x14O<@\tc#D\xe3\xa2\xe0?'
p13
tp14
b(lp15
(lp16
cnumpy.core.multiarray
scalar
p17
(g10
S'\x98`\xe8\x12\x1c\x18W@'
p18
tp19
Rp20
ag17
(g10
S'\xdaWh4\xda\x12m@'
p21
tp22
Rp23
aa(lp24
g17
(g10
S'\xedy\xcc`\xaaeu\xbf'
p25
tp26
Rp27
ag17
(g10
S'\x81\xbd7\r\xf1\xa5z?'
p28
tp29
Rp30
aa(lp31
g17
(g10
S'\x0b7\xa3P\x14O<@'
p32
tp33
Rp34
ag17
(g10
S'\x0b7\xa3P\x14O<@'
p35
tp36
Rp37
aa(lp38
g17
(g10
S'\xad\xab3+AK\xe0?'
p39
tp40
Rp41
ag17
(g10
S'e\x1a\x13]\x85\xfa\xe0?'
p42
tp43
Rp44
aatp45
.