(cnumpy.core.multiarray
_reconstruct
p0
(cnumpy
ndarray
p1
(I0
tp2
S'b'
p3
tp4
Rp5
(I1
(I4
tp6
cnumpy
dtype
p7
(S'f8'
p8
I0
I1
tp9
Rp10
(I3
S'<'
p11
NNNI-1
I-1
I0
tp12
bI00
S'\x1au\x9f\x88\x05\xe4k@F\xb9\xf1\xd2$\x92L?zs<\xe8Hj\xf7?\xc6\xd1\xa5N\x86\xdd\xe0?'
p13
tp14
b(lp15
(lp16
cnumpy.core.multiarray
scalar
p17
(g10
S'D\x9b\xdc\x19Dcg@'
p18
tp19
Rp20
ag17
(g10
S"x'\xb1{c2p@"
p21
tp22
Rp23
aa(lp24
g17
(g10
S'm\xbe\x88\xff}lL?'
p25
tp26
Rp27
ag17
(g10
S'\x1f\xb4Z\xa6\xcb\xb7L?'
p28
tp29
Rp30
aa(lp31
g17
(g10
S'\xf1\xd84\xff;x \xc0'
p32
tp33
Rp34
ag17
(g10
S'\xcf\xf5C9\xceR&@'
p35
tp36
Rp37
aa(lp38
g17
(g10
S'\x135\xd3\x1fH\xd9\xe0?'
p39
tp40
Rp41
ag17
(g10
S'ynx}\xc4\xe1\xe0?'
p42
tp43
Rp44
aatp45
.