(cnumpy.core.multiarray
_reconstruct
p0
(cnumpy
ndarray
p1
(I0
tp2
S'b'
p3
tp4
Rp5
(I1
(I4
tp6
cnumpy
dtype
p7
(S'f8'
p8
I0
I1
tp9
Rp10
(I3
S'<'
p11
NNNI-1
I-1
I0
tp12
bI00
S'Rfi&d\xf7f@\x86#\xa5\xe5f\\\xf7>\xeb\xe6<\x91\xd1\x13#@;"\x03\xdat\xa4\xe0?'
p13
tp14
b(lp15
(lp16
cnumpy.core.multiarray
scalar
p17
(g10
S'\xfclRh\x15gL@'
p18
tp19
Rp20
ag17
(g10
S'\xb2\x18_y\x81js@'
p21
tp22
Rp23
aa(lp24
g17
(g10
S'W\x8fc\xbf\xce\xafe\xbf'
p25
tp26
Rp27
ag17
(g10
S'\xe5#\xfaZ@\rf?'
p28
tp29
Rp30
aa(lp31
g17
(g10
S'H\xc5x\x8dg\xb6\xb5\xc0'
p32
tp33
Rp34
ag17
(g10
S'.\x02\n_{\xc9\xb5@'
p35
tp36
Rp37
aa(lp38
g17
(g10
S'\xf6\xc1\xf7=?\x84\xd7?'
p39
tp40
Rp41
ag17
(g10
S'{c\n\x15\xca\x86\xe5?'
p42
tp43
Rp44
aatp45
.