(cnumpy.core.multiarray
_reconstruct
p0
(cnumpy
ndarray
p1
(I0
tp2
S'b'
p3
tp4
Rp5
(I1
(I4
tp6
cnumpy
dtype
p7
(S'f8'
p8
I0
I1
tp9
Rp10
(I3
S'<'
p11
NNNI-1
I-1
I0
tp12
bI00
S"7\x18Q\xac\xce~b@Hn\x11Ugy\x84?[(TD\x93'#@\xa3)wTx\xdb\xe0?"
p13
tp14
b(lp15
(lp16
cnumpy.core.multiarray
scalar
p17
(g10
S'\x1cM{-B\xb1Q@'
p18
tp19
Rp20
ag17
(g10
S'\xe0\x89\xe4A\xfc$l@'
p21
tp22
Rp23
aa(lp24
g17
(g10
S'\xfa\xa9\xd8\xbaP"\x87\xbf'
p25
tp26
Rp27
ag17
(g10
S'\xa2\xe1>\xd9G\x05\xa0?'
p28
tp29
Rp30
aa(lp31
g17
(g10
S'\x9f_3}$!\xa7\xc0'
p32
tp33
Rp34
ag17
(g10
S'\xef\x07\xbc\xa3sG\xa7@'
p35
tp36
Rp37
aa(lp38
g17
(g10
S'g\xdf\x11\x86S\xd1\xe0?'
p39
tp40
Rp41
ag17
(g10
S'\xdfs\xdc"\x9d\xe5\xe0?'
p42
tp43
Rp44
aatp45
.