(cnumpy.core.multiarray
_reconstruct
p0
(cnumpy
ndarray
p1
(I0
tp2
S'b'
p3
tp4
Rp5
(I1
(I4
tp6
cnumpy
dtype
p7
(S'f8'
p8
I0
I1
tp9
Rp10
(I3
S'<'
p11
NNNI-1
I-1
I0
tp12
bI00
S'loxS/\x0bS@\xe3u\n@\xe0$\xb4?v\x9d3e\xd0\x152@\x9b!w*7\n\xe1?'
p13
tp14
b(lp15
(lp16
cnumpy.core.multiarray
scalar
p17
(g10
S'\x90\x1e\t\xfa\x86\x02)@'
p18
tp19
Rp20
ag17
(g10
S'\x83\xdd\xd7\xe3\x06{a@'
p21
tp22
Rp23
aa(lp24
g17
(g10
S'b\xfaj\x83\x9ad\xa2\xbf'
p25
tp26
Rp27
ag17
(g10
S'|4\xe5\xe0\x06\xbe\xc8?'
p28
tp29
Rp30
aa(lp31
g17
(g10
S'v\x9d3e\xd0\x152@'
p32
tp33
Rp34
ag17
(g10
S'v\x9d3e\xd0\x152@'
p35
tp36
Rp37
aa(lp38
g17
(g10
S'*B\xb8\xc7v\x06\xe1?'
p39
tp40
Rp41
ag17
(g10
S'\x0c\x016\x8d\xf7\r\xe1?'
p42
tp43
Rp44
aatp45
.