(cnumpy.core.multiarray
_reconstruct
p0
(cnumpy
ndarray
p1
(I0
tp2
S'b'
p3
tp4
Rp5
(I1
(I4
tp6
cnumpy
dtype
p7
(S'f8'
p8
I0
I1
tp9
Rp10
(I3
S'<'
p11
NNNI-1
I-1
I0
tp12
bI00
S"\x99/'*c\x12c@7t\xbaY]\x87r?\xf5LW\x17O]+@,~\x0b\x97\xe3\xcd\xe0?"
p13
tp14
b(lp15
(lp16
cnumpy.core.multiarray
scalar
p17
(g10
S'\xf3\x016\xfd\x15%T@'
p18
tp19
Rp20
ag17
(g10
S'8^\xb3U;\x12l@'
p21
tp22
Rp23
aa(lp24
g17
(g10
S'<,R\x1b\xd7\xfc\x81\xbf'
p25
tp26
Rp27
ag17
(g10
S':P\x86:\x1aB\x92?'
p28
tp29
Rp30
aa(lp31
g17
(g10
S'\xf5LW\x17O]+@'
p32
tp33
Rp34
ag17
(g10
S'\xf5LW\x17O]+@'
p35
tp36
Rp37
aa(lp38
g17
(g10
S"'e\x947\x16\xbb\xe0?"
p39
tp40
Rp41
ag17
(g10
S'1\x97\x82\xf6\xb0\xe0\xe0?'
p42
tp43
Rp44
aatp45
.