(cnumpy.core.multiarray
_reconstruct
p0
(cnumpy
ndarray
p1
(I0
tp2
S'b'
p3
tp4
Rp5
(I1
(I3
tp6
cnumpy
dtype
p7
(S'f8'
p8
I0
I1
tp9
Rp10
(I3
S'<'
p11
NNNI-1
I-1
I0
tp12
bI00
S'UT\x16Z\xd2\x1cQ@Hk\x1f\x8dp\xeev?@\\N\xa8G%~?'
p13
tp14
bg0
(g1
(I0
tp15
g3
tp16
Rp17
(I1
(I3
I2
tp18
g10
I00
S'\x9d\xb4~W\x03\x0fN@\\Nm\x08#2S@\xa5\r\x0f\xa1\xb1kp?\xeb\xc8/y/q}?\x0bNA\xa1&\xde}?uj[\xafhl~?'
p19
tp20
btp21
.