(cnumpy.core.multiarray
_reconstruct
p0
(cnumpy
ndarray
p1
(I0
tp2
S'b'
p3
tp4
Rp5
(I1
(I4
tp6
cnumpy
dtype
p7
(S'f8'
p8
I0
I1
tp9
Rp10
(I3
S'<'
p11
NNNI-1
I-1
I0
tp12
bI00
S'\xad\xf00\xcd\xd2\x8ak@\xe3\x19{\xce9\xac7?DJ\xb5\xa4_\xbe\xe1?\xd7\x97\x0c22\xe5\xe0?'
p13
tp14
b(lp15
(lp16
cnumpy.core.multiarray
scalar
p17
(g10
S'\xac\xb9 |j\x05g@'
p18
tp19
Rp20
ag17
(g10
S'\xd7\x93 \x8f\x1d\x08p@'
p21
tp22
Rp23
aa(lp24
g17
(g10
S'a\xe2r\x90\xcd\n ?'
p25
tp26
Rp27
ag17
(g10
S'Ka^j\x86\xa9C?'
p28
tp29
Rp30
aa(lp31
g17
(g10
S"pH'\xed\x90\xf6\xe0?"
p32
tp33
Rp34
ag17
(g10
S'\x18LC\\.\x86\xe2?'
p35
tp36
Rp37
aa(lp38
g17
(g10
S'd\xf3\xc6--\xdf\xe0?'
p39
tp40
Rp41
ag17
(g10
S'J<R67\xeb\xe0?'
p42
tp43
Rp44
aatp45
.