(cnumpy.core.multiarray
_reconstruct
p0
(cnumpy
ndarray
p1
(I0
tp2
S'b'
p3
tp4
Rp5
(I1
(I4
tp6
cnumpy
dtype
p7
(S'f8'
p8
I0
I1
tp9
Rp10
(I3
S'<'
p11
NNNI-1
I-1
I0
tp12
bI00
S'\x1a\x1c\xaf\xd4/gk@n4\xa6\xaeBrH>sS\x91\x96\xca{\xda?\x8c\x94L\x8f\x18\x83\xe0?'
p13
tp14
b(lp15
(lp16
cnumpy.core.multiarray
scalar
p17
(g10
S'Ni\xa5@.gk@'
p18
tp19
Rp20
ag17
(g10
S'\xe6\xce\xb8h1gk@'
p21
tp22
Rp23
aa(lp24
g17
(g10
S'\xc9X\xbaV\xdb\xdf\xb6\xbe'
p25
tp26
Rp27
ag17
(g10
S'\x9b\xf1ta\xa4A\xb7>'
p28
tp29
Rp30
aa(lp31
g17
(g10
S'\x01\xdaA&Q\xc7\xd2?'
p32
tp33
Rp34
ag17
(g10
S'rfp\x03"\x18\xe1?'
p35
tp36
Rp37
aa(lp38
g17
(g10
S';\xb1\xaf\x95zg\xdb?'
p39
tp40
Rp41
ag17
(g10
S'zP\xc1\xd3sR\xe3?'
p42
tp43
Rp44
aatp45
.