(cnumpy.core.multiarray
_reconstruct
p0
(cnumpy
ndarray
p1
(I0
tp2
S'b'
p3
tp4
Rp5
(I1
(I4
tp6
cnumpy
dtype
p7
(S'f8'
p8
I0
I1
tp9
Rp10
(I3
S'<'
p11
NNNI-1
I-1
I0
tp12
bI00
S'U\x1e\xb9m\xf5_`@8\x8dR{<\x88\x8c?\x8cH\x16@R=5@m}k\x13\x14\x0b\xe1?'
p13
tp14
b(lp15
(lp16
cnumpy.core.multiarray
scalar
p17
(g10
S"\xe00>'\xf7\x1eP@"
p18
tp19
Rp20
ag17
(g10
S':$\xd3Go\xb0h@'
p21
tp22
Rp23
aa(lp24
g17
(g10
S'\x10\x14\xd9\xf3\x0b\x80`\xbf'
p25
tp26
Rp27
ag17
(g10
S'\xba\xaf\xcd\xf9=\x98\x9e?'
p28
tp29
Rp30
aa(lp31
g17
(g10
S'\x8cH\x16@R=5@'
p32
tp33
Rp34
ag17
(g10
S'\x8cH\x16@R=5@'
p35
tp36
Rp37
aa(lp38
g17
(g10
S'fs\n\x18m\x08\xe1?'
p39
tp40
Rp41
ag17
(g10
S't\x87\xcc\x0e\xbb\r\xe1?'
p42
tp43
Rp44
aatp45
.