(cnumpy.core.multiarray
_reconstruct
p0
(cnumpy
ndarray
p1
(I0
tp2
S'b'
p3
tp4
Rp5
(I1
(I4
tp6
cnumpy
dtype
p7
(S'f8'
p8
I0
I1
tp9
Rp10
(I3
S'<'
p11
NNNI-1
I-1
I0
tp12
bI00
S'\x8e`\xc3\xc3/3f@\x0ep&\xb5\x85`v?-0{_B\nR@A\x06\xb5\xb7\xae\xda\xe0?'
p13
tp14
b(lp15
(lp16
cnumpy.core.multiarray
scalar
p17
(g10
S'\xb1z\xd4\xe9b\xc7[@'
p18
tp19
Rp20
ag17
(g10
S'\xc4\x83\x9c\x12\xae\x82n@'
p21
tp22
Rp23
aa(lp24
g17
(g10
S'\x18c\x07\xa0\xaa\xab@\xbf'
p25
tp26
Rp27
ag17
(g10
S'@\xe6&_@k\x87?'
p28
tp29
Rp30
aa(lp31
g17
(g10
S'-0{_B\nR@'
p32
tp33
Rp34
ag17
(g10
S'-0{_B\nR@'
p35
tp36
Rp37
aa(lp38
g17
(g10
S'v\xbd\xa1\xa5\xb6\xd7\xe0?'
p39
tp40
Rp41
ag17
(g10
S'\x0cO\xc8\xc9\xa6\xdd\xe0?'
p42
tp43
Rp44
aatp45
.