(cnumpy.core.multiarray
_reconstruct
p0
(cnumpy
ndarray
p1
(I0
tp2
S'b'
p3
tp4
Rp5
(I1
(I4
tp6
cnumpy
dtype
p7
(S'f8'
p8
I0
I1
tp9
Rp10
(I3
S'<'
p11
NNNI-1
I-1
I0
tp12
bI00
S'S\xbcF\x9c\x0c\xf5`@MG\x9e4\xfe\xbev?}<\xe7\xdf\xfc\xa5B@\x84jI~\x00\x10\xe1?'
p13
tp14
b(lp15
(lp16
cnumpy.core.multiarray
scalar
p17
(g10
S'\xc0j\x039J\x8fV@'
p18
tp19
Rp20
ag17
(g10
S'F\xc3\x0b\x1ct\xa2f@'
p21
tp22
Rp23
aa(lp24
g17
(g10
S'@>4\x99B\x14$?'
p25
tp26
Rp27
ag17
(g10
S'Tv9*\xadn\x86?'
p28
tp29
Rp30
aa(lp31
g17
(g10
S'}<\xe7\xdf\xfc\xa5B@'
p32
tp33
Rp34
ag17
(g10
S'}<\xe7\xdf\xfc\xa5B@'
p35
tp36
Rp37
aa(lp38
g17
(g10
S'\x93\x1ce\xd4\x9d\x0c\xe1?'
p39
tp40
Rp41
ag17
(g10
S'u\xb8-(c\x13\xe1?'
p42
tp43
Rp44
aatp45
.