(cnumpy.core.multiarray
_reconstruct
p0
(cnumpy
ndarray
p1
(I0
tp2
S'b'
p3
tp4
Rp5
(I1
(I4
tp6
cnumpy
dtype
p7
(S'f8'
p8
I0
I1
tp9
Rp10
(I3
S'<'
p11
NNNI-1
I-1
I0
tp12
bI00
S'\x88\x14\x9czK\x8d`@`\xe5I\x87k\xb0\x84?\x81B\xe0\x8eo\xf4\xd1?\xb8\x886u9(\xe1?'
p13
tp14
b(lp15
(lp16
cnumpy.core.multiarray
scalar
p17
(g10
S'\x06\x06\xaaAP\xbdQ@'
p18
tp19
Rp20
ag17
(g10
S'\r&c\xd4\xee;h@'
p21
tp22
Rp23
aa(lp24
g17
(g10
S' w\x85\xed\xc5VS\xbf'
p25
tp26
Rp27
ag17
(g10
S'\xd2<"\xe6\xd7\xe5\x95?'
p28
tp29
Rp30
aa(lp31
g17
(g10
S'\x8au\xb0?]U\xe0\xbf'
p32
tp33
Rp34
ag17
(g10
S'\x06\\Hg\xe6$\xf1?'
p35
tp36
Rp37
aa(lp38
g17
(g10
S'8_q\x81<%\xe1?'
p39
tp40
Rp41
ag17
(g10
S'8\xb2\xfbh6+\xe1?'
p42
tp43
Rp44
aatp45
.