(cnumpy.core.multiarray
_reconstruct
p0
(cnumpy
ndarray
p1
(I0
tp2
S'b'
p3
tp4
Rp5
(I1
(I4
tp6
cnumpy
dtype
p7
(S'f8'
p8
I0
I1
tp9
Rp10
(I3
S'<'
p11
NNNI-1
I-1
I0
tp12
bI00
S'\xd2\x16\x8fPO\x8bT@"\xfd\xa6 5G\x99?FHX\xa2\xe3c0@\xbb##\x99\xb9;\xe1?'
p13
tp14
b(lp15
(lp16
cnumpy.core.multiarray
scalar
p17
(g10
S'\x854\x06]n\xc2E@'
p18
tp19
Rp20
ag17
(g10
S'b\x13\x9brg5^@'
p21
tp22
Rp23
aa(lp24
g17
(g10
S'@<\xff\xc8\xa5\xfe^?'
p25
tp26
Rp27
ag17
(g10
S'@\x03_\xf2?O\xa8?'
p28
tp29
Rp30
aa(lp31
g17
(g10
S'FHX\xa2\xe3c0@'
p32
tp33
Rp34
ag17
(g10
S'FHX\xa2\xe3c0@'
p35
tp36
Rp37
aa(lp38
g17
(g10
S'\xbc\xaa\x9f\xdcB9\xe1?'
p39
tp40
Rp41
ag17
(g10
S'\xba\x9c\xa6U0>\xe1?'
p42
tp43
Rp44
aatp45
.