(cnumpy.core.multiarray
_reconstruct
p0
(cnumpy
ndarray
p1
(I0
tp2
S'b'
p3
tp4
Rp5
(I1
(I4
tp6
cnumpy
dtype
p7
(S'f8'
p8
I0
I1
tp9
Rp10
(I3
S'<'
p11
NNNI-1
I-1
I0
tp12
bI00
S'1\xefzL:\xecl@*\xf8#>ke\xe0>\xbaQLw\xb2\xb5\x04@x\x98\xb1O\x06\r\xe1?'
p13
tp14
b(lp15
(lp16
cnumpy.core.multiarray
scalar
p17
(g10
S'\x94h\xc2J\xad\xe7b@'
p18
tp19
Rp20
ag17
(g10
S'\xe7\xba\x19\xa7cxs@'
p21
tp22
Rp23
aa(lp24
g17
(g10
S'\x93\x9c\x8er/\xc53\xbf'
p25
tp26
Rp27
ag17
(g10
S'\x15\xdcp&\x86\xcb4?'
p28
tp29
Rp30
aa(lp31
g17
(g10
S'>\n\x06\x9d\x11\xb6W\xc0'
p32
tp33
Rp34
ag17
(g10
S'Z\xcfz\xc4l\x01Y@'
p35
tp36
Rp37
aa(lp38
g17
(g10
S'\xe2\xaf\xdf[0\xa9\xdf?'
p39
tp40
Rp41
ag17
(g10
S'\xffXsqtE\xe2?'
p42
tp43
Rp44
aatp45
.