(cnumpy.core.multiarray
_reconstruct
p0
(cnumpy
ndarray
p1
(I0
tp2
S'b'
p3
tp4
Rp5
(I1
(I2
tp6
cnumpy
dtype
p7
(S'f8'
p8
I0
I1
tp9
Rp10
(I3
S'<'
p11
NNNI-1
I-1
I0
tp12
bI00
S'%\xe4\x9b\xe8\x02\t\x04@\xd8_[\xf9\\W\xe0?'
p13
tp14
b(lp15
(lp16
cnumpy.core.multiarray
scalar
p17
(g10
S'\xe8\xdc\x81\xf8\xf2\x10;\xc0'
p18
tp19
Rp20
ag17
(g10
S'\xf9jT\xd9\x99\t@@'
p21
tp22
Rp23
aa(lp24
g17
(g10
S'\xe8\xae7\xd2\x18V\xe0?'
p25
tp26
Rp27
ag17
(g10
S'\xc8\x10\x7f \xa1X\xe0?'
p28
tp29
Rp30
aatp31
.