(cnumpy.core.multiarray
_reconstruct
p0
(cnumpy
ndarray
p1
(I0
tp2
S'b'
p3
tp4
Rp5
(I1
(I2
tp6
cnumpy
dtype
p7
(S'f8'
p8
I0
I1
tp9
Rp10
(I3
S'<'
p11
NNNI-1
I-1
I0
tp12
bI00
S"\x06\x1c6S'0\xed?p\x1f\xd3\xa1\xad\xdd\xe0?"
p13
tp14
b(lp15
(lp16
cnumpy.core.multiarray
scalar
p17
(g10
S'\xd9FY\x0co\xbb\xfb\xbf'
p18
tp19
Rp20
ag17
(g10
S'p\xb1\xc7/\xcbu\x0c@'
p21
tp22
Rp23
aa(lp24
g17
(g10
S"\x06^a'5\xdc\xe0?"
p25
tp26
Rp27
ag17
(g10
S'\xda\xe0D\x1c&\xdf\xe0?'
p28
tp29
Rp30
aatp31
.