(cnumpy.core.multiarray
_reconstruct
p0
(cnumpy
ndarray
p1
(I0
tp2
S'b'
p3
tp4
Rp5
(I1
(I2
tp6
cnumpy
dtype
p7
(S'f8'
p8
I0
I1
tp9
Rp10
(I3
S'<'
p11
NNNI-1
I-1
I0
tp12
bI00
S'\xf5\xf9\x9c%\r-\xbb?\xf3\x0e4\x8dx\xf8\xe0?'
p13
tp14
b(lp15
(lp16
cnumpy.core.multiarray
scalar
p17
(g10
S'0[\xd8\xf7\xcdMx?'
p18
tp19
Rp20
ag17
(g10
S'\x1c7\xde\xb5\x9ej\xca?'
p21
tp22
Rp23
aa(lp24
g17
(g10
S'8\x1a\xe8\x1a&\xf7\xe0?'
p25
tp26
Rp27
ag17
(g10
S'\xae\x03\x80\xff\xca\xf9\xe0?'
p28
tp29
Rp30
aatp31
.