(cnumpy.core.multiarray
_reconstruct
p0
(cnumpy
ndarray
p1
(I0
tp2
S'b'
p3
tp4
Rp5
(I1
(I2
tp6
cnumpy
dtype
p7
(S'f8'
p8
I0
I1
tp9
Rp10
(I3
S'<'
p11
NNNI-1
I-1
I0
tp12
bI00
S'\xbfk\x8a\x8b~@\x0e@\xfdx\xaa\xc0\xe0\xaa\xe0?'
p13
tp14
b(lp15
(lp16
cnumpy.core.multiarray
scalar
p17
(g10
S'\x90\x85\xaf+E\xd9V\xc0'
p18
tp19
Rp20
ag17
(g10
S'L,h\x14M\xbdX@'
p21
tp22
Rp23
aa(lp24
g17
(g10
S'g_\\\xe5\x81\xa9\xe0?'
p25
tp26
Rp27
ag17
(g10
S'\x93\x92\xf8\x9b?\xac\xe0?'
p28
tp29
Rp30
aatp31
.