(cnumpy.core.multiarray
_reconstruct
p0
(cnumpy
ndarray
p1
(I0
tp2
S'b'
p3
tp4
Rp5
(I1
(I2
tp6
cnumpy
dtype
p7
(S'f8'
p8
I0
I1
tp9
Rp10
(I3
S'<'
p11
NNNI-1
I-1
I0
tp12
bI00
S'v\xe6\xf8\xa1L\xcb\x15@\xe1\xbe\xbc@7l\xe0?'
p13
tp14
b(lp15
(lp16
cnumpy.core.multiarray
scalar
p17
(g10
S'\xf1\x0c78gHk\xc0'
p18
tp19
Rp20
ag17
(g10
S'Y\x9bV\x02\x1c\xa5l@'
p21
tp22
Rp23
aa(lp24
g17
(g10
S'\x11\xb7St\xf2j\xe0?'
p25
tp26
Rp27
ag17
(g10
S'\xb1\xc6%\r|m\xe0?'
p28
tp29
Rp30
aatp31
.