(cnumpy.core.multiarray
_reconstruct
p0
(cnumpy
ndarray
p1
(I0
tp2
S'b'
p3
tp4
Rp5
(I1
(I2
tp6
cnumpy
dtype
p7
(S'f8'
p8
I0
I1
tp9
Rp10
(I3
S'<'
p11
NNNI-1
I-1
I0
tp12
bI00
S'\xa2\xc7n5\xcf=\xf5?\xf3\n\xdbK\xbc\xc1\xe0?'
p13
tp14
b(lp15
(lp16
cnumpy.core.multiarray
scalar
p17
(g10
S'\x168~\xe1\xa8\x0e\x12\xc0'
p18
tp19
Rp20
ag17
(g10
S'\xe6\x9b5|\x90\xad\x1c@'
p21
tp22
Rp23
aa(lp24
g17
(g10
S'n\x9b\xf0\xb6`\xc0\xe0?'
p25
tp26
Rp27
ag17
(g10
S'xz\xc5\xe0\x17\xc3\xe0?'
p28
tp29
Rp30
aatp31
.