(cnumpy.core.multiarray
_reconstruct
p0
(cnumpy
ndarray
p1
(I0
tp2
S'b'
p3
tp4
Rp5
(I1
(I2
tp6
cnumpy
dtype
p7
(S'f8'
p8
I0
I1
tp9
Rp10
(I3
S'<'
p11
NNNI-1
I-1
I0
tp12
bI00
S'|\xda\x8e\x8d\xab\xd2\xc8?\xea$\x02X\xc4\x88\xe0?'
p13
tp14
b(lp15
(lp16
cnumpy.core.multiarray
scalar
p17
(g10
S'`12O\xbf\xe0\x93?'
p18
tp19
Rp20
ag17
(g10
S'f\xb7\x9b\x98\x9f\x94\xd7?'
p21
tp22
Rp23
aa(lp24
g17
(g10
S't\xce\x06c]\x87\xe0?'
p25
tp26
Rp27
ag17
(g10
S'`{\xfdL+\x8a\xe0?'
p28
tp29
Rp30
aatp31
.