(cnumpy.core.multiarray
_reconstruct
p0
(cnumpy
ndarray
p1
(I0
tp2
S'b'
p3
tp4
Rp5
(I1
(I2
tp6
cnumpy
dtype
p7
(S'f8'
p8
I0
I1
tp9
Rp10
(I3
S'<'
p11
NNNI-1
I-1
I0
tp12
bI00
S'\xe4^\xe5\xfdE\xc0\x14@\x83\x88\x84G\xd7\x83\xe0?'
p13
tp14
b(lp15
(lp16
cnumpy.core.multiarray
scalar
p17
(g10
S'2\xe0B\x1e\x9f\xdff\xc0'
p18
tp19
Rp20
ag17
(g10
S' 6!~\xa3+h@'
p21
tp22
Rp23
aa(lp24
g17
(g10
S'\x03\xee\x1b\x87\x97\x82\xe0?'
p25
tp26
Rp27
ag17
(g10
S'\x03#\xed\x07\x17\x85\xe0?'
p28
tp29
Rp30
aatp31
.