(cnumpy.core.multiarray
_reconstruct
p0
(cnumpy
ndarray
p1
(I0
tp2
S'b'
p3
tp4
Rp5
(I1
(I2
tp6
cnumpy
dtype
p7
(S'f8'
p8
I0
I1
tp9
Rp10
(I3
S'<'
p11
NNNI-1
I-1
I0
tp12
bI00
S'W\xf0\xa6/\x80$\xe2?\xec\x8b|\x08-\xcd\xe0?'
p13
tp14
b(lp15
(lp16
cnumpy.core.multiarray
scalar
p17
(g10
S'\x00p\xe6\xc1f\x1f\xdb?'
p18
tp19
Rp20
ag17
(g10
S'\xae\xa8Z\xfeL\xb9\xe6?'
p21
tp22
Rp23
aa(lp24
g17
(g10
S'\xf9Q\xc9\xb7\xcd\xcb\xe0?'
p25
tp26
Rp27
ag17
(g10
S'\xdf\xc5/Y\x8c\xce\xe0?'
p28
tp29
Rp30
aatp31
.