(cnumpy.core.multiarray
_reconstruct
p0
(cnumpy
ndarray
p1
(I0
tp2
S'b'
p3
tp4
Rp5
(I1
(I2
tp6
cnumpy
dtype
p7
(S'f8'
p8
I0
I1
tp9
Rp10
(I3
S'<'
p11
NNNI-1
I-1
I0
tp12
bI00
S'\xd7e_\xc3\xaa\x9e\xaa?\xaef\x17B\xb0\x91\xe0?'
p13
tp14
b(lp15
(lp16
cnumpy.core.multiarray
scalar
p17
(g10
S'\x9e\xaf\x06\x1d\xaaN\x95?'
p18
tp19
Rp20
ag17
(g10
S'\xf0\xb9\x1d<\x00K\xb5?'
p21
tp22
Rp23
aa(lp24
g17
(g10
S'\x0f\xd7\x16\tG\x90\xe0?'
p25
tp26
Rp27
ag17
(g10
S'M\xf6\x17{\x19\x93\xe0?'
p28
tp29
Rp30
aatp31
.