(cnumpy.core.multiarray
_reconstruct
p0
(cnumpy
ndarray
p1
(I0
tp2
S'b'
p3
tp4
Rp5
(I1
(I2
tp6
cnumpy
dtype
p7
(S'f8'
p8
I0
I1
tp9
Rp10
(I3
S'<'
p11
NNNI-1
I-1
I0
tp12
bI00
S'\xa9\xf9\x91j?/\xbc?\xa8\t\x07\xf9*w\xe0?'
p13
tp14
b(lp15
(lp16
cnumpy.core.multiarray
scalar
p17
(g10
S'\xcc\xf2\xaf\xc6\xf3\xca\x9f?'
p18
tp19
Rp20
ag17
(g10
S'P\xfb\xbb\xf1\xe05\xc8?'
p21
tp22
Rp23
aa(lp24
g17
(g10
S'\xad\x16#S\xbdu\xe0?'
p25
tp26
Rp27
ag17
(g10
S'\xa3\xfc\xea\x9e\x98x\xe0?'
p28
tp29
Rp30
aatp31
.