(cnumpy.core.multiarray
_reconstruct
p0
(cnumpy
ndarray
p1
(I0
tp2
S'b'
p3
tp4
Rp5
(I1
(I2
tp6
cnumpy
dtype
p7
(S'f8'
p8
I0
I1
tp9
Rp10
(I3
S'<'
p11
NNNI-1
I-1
I0
tp12
bI00
S'\x87\xf3\xc7\xed\xff|\xd0? c$\x18\x99\x85\xe0?'
p13
tp14
b(lp15
(lp16
cnumpy.core.multiarray
scalar
p17
(g10
S'p\xd6"F\x18\x92\x80?'
p18
tp19
Rp20
ag17
(g10
S'-h\xaf\x8c\xb7:\xe0?'
p21
tp22
Rp23
aa(lp24
g17
(g10
S'm.\x987P\x84\xe0?'
p25
tp26
Rp27
ag17
(g10
S'\xd3\x97\xb0\xf8\xe1\x86\xe0?'
p28
tp29
Rp30
aatp31
.