(cnumpy.core.multiarray
_reconstruct
p0
(cnumpy
ndarray
p1
(I0
tp2
S'b'
p3
tp4
Rp5
(I1
(I2
tp6
cnumpy
dtype
p7
(S'f8'
p8
I0
I1
tp9
Rp10
(I3
S'<'
p11
NNNI-1
I-1
I0
tp12
bI00
S'c`|\xc3\x12\x95\xf4?\x83\x00m\xa5\x9f\x85\xe0?'
p13
tp14
b(lp15
(lp16
cnumpy.core.multiarray
scalar
p17
(g10
S'B\x98\x8c\x87\x15\x1d\x0b\xc0'
p18
tp19
Rp20
ag17
(g10
S'S|\x84%\x14\xd9\x17@'
p21
tp22
Rp23
aa(lp24
g17
(g10
S'V %\xcdV\x84\xe0?'
p25
tp26
Rp27
ag17
(g10
S'\xb0\xe0\xb4}\xe8\x86\xe0?'
p28
tp29
Rp30
aatp31
.