(cnumpy.core.multiarray
_reconstruct
p0
(cnumpy
ndarray
p1
(I0
tp2
S'b'
p3
tp4
Rp5
(I1
(I2
tp6
cnumpy
dtype
p7
(S'f8'
p8
I0
I1
tp9
Rp10
(I3
S'<'
p11
NNNI-1
I-1
I0
tp12
bI00
S'\x9c\xf9\x8eKS6&@\xd9]/zk\xb2\xe0?'
p13
tp14
b(lp15
(lp16
cnumpy.core.multiarray
scalar
p17
(g10
S'\xd6\xb3\xc6~\x068\xbf\xc0'
p18
tp19
Rp20
ag17
(g10
S'\xd0B\x12\xd2<N\xbf@'
p21
tp22
Rp23
aa(lp24
g17
(g10
S'\xefqu\x0b!\xb1\xe0?'
p25
tp26
Rp27
ag17
(g10
S'\xc3I\xe9\xe8\xb5\xb3\xe0?'
p28
tp29
Rp30
aatp31
.