(cnumpy.core.multiarray
_reconstruct
p0
(cnumpy
ndarray
p1
(I0
tp2
S'b'
p3
tp4
Rp5
(I1
(I2
tp6
cnumpy
dtype
p7
(S'f8'
p8
I0
I1
tp9
Rp10
(I3
S'<'
p11
NNNI-1
I-1
I0
tp12
bI00
S'\xfd\xc54,\xcf7\x96?z\x1d`)\x88\xae\xe0?'
p13
tp14
b(lp15
(lp16
cnumpy.core.multiarray
scalar
p17
(g10
S'*\xff\xf7\x848T}?'
p18
tp19
Rp20
ag17
(g10
S'\x18\xc6\x95\x1bH\x8d\xa2?'
p21
tp22
Rp23
aa(lp24
g17
(g10
S'\x07\x90\xb2\xa4=\xad\xe0?'
p25
tp26
Rp27
ag17
(g10
S'\xed\xaa\r\xae\xd2\xaf\xe0?'
p28
tp29
Rp30
aatp31
.