(cnumpy.core.multiarray
_reconstruct
p0
(cnumpy
ndarray
p1
(I0
tp2
S'b'
p3
tp4
Rp5
(I1
(I2
tp6
cnumpy
dtype
p7
(S'f8'
p8
I0
I1
tp9
Rp10
(I3
S'<'
p11
NNNI-1
I-1
I0
tp12
bI00
S'\x9a\xf8\xc1\r\x0e6\xd0?\xf1\xdb\x01:\x80\xcb\xe0?'
p13
tp14
b(lp15
(lp16
cnumpy.core.multiarray
scalar
p17
(g10
S'\xd8}\xf13\xbe\xef\xbd\xbf'
p18
tp19
Rp20
ag17
(g10
S'U(@\xd4\x05\xf4\xe3?'
p21
tp22
Rp23
aa(lp24
g17
(g10
S'-O+\xee\x1b\xca\xe0?'
p25
tp26
Rp27
ag17
(g10
S'\xb5h\xd8\x85\xe4\xcc\xe0?'
p28
tp29
Rp30
aatp31
.