(cnumpy.core.multiarray
_reconstruct
p0
(cnumpy
ndarray
p1
(I0
tp2
S'b'
p3
tp4
Rp5
(I1
(I2
tp6
cnumpy
dtype
p7
(S'f8'
p8
I0
I1
tp9
Rp10
(I3
S'<'
p11
NNNI-1
I-1
I0
tp12
bI00
S'Af\xee<v6\xe3?\x9a\x13}\x9b \xd2\xe0?'
p13
tp14
b(lp15
(lp16
cnumpy.core.multiarray
scalar
p17
(g10
S'\x1bd\xb46\xc1c\xe2\xbf'
p18
tp19
Rp20
ag17
(g10
S'N\x98H\xd8Vh\xfc?'
p21
tp22
Rp23
aa(lp24
g17
(g10
S'\x1d\xd7\xb0\xd6\xb2\xd0\xe0?'
p25
tp26
Rp27
ag17
(g10
S'\x17PI`\x8e\xd3\xe0?'
p28
tp29
Rp30
aatp31
.