(cnumpy.core.multiarray
_reconstruct
p0
(cnumpy
ndarray
p1
(I0
tp2
S'b'
p3
tp4
Rp5
(I1
(I2
tp6
cnumpy
dtype
p7
(S'f8'
p8
I0
I1
tp9
Rp10
(I3
S'<'
p11
NNNI-1
I-1
I0
tp12
bI00
S'\xb7\xcff\x8b\x18C\xe9?\x02\xce\xce\xdf`|\xe0?'
p13
tp14
b(lp15
(lp16
cnumpy.core.multiarray
scalar
p17
(g10
S'o\x9b\x89\x86^\x08\xec\xbf'
p18
tp19
Rp20
ag17
(g10
S'\xb7\xceU\xe7\xa3\xa3\x03@'
p21
tp22
Rp23
aa(lp24
g17
(g10
S'\x02:a7\x1d{\xe0?'
p25
tp26
Rp27
ag17
(g10
S'\x02b<\x88\xa4}\xe0?'
p28
tp29
Rp30
aatp31
.