(cnumpy.core.multiarray
_reconstruct
p0
(cnumpy
ndarray
p1
(I0
tp2
S'b'
p3
tp4
Rp5
(I1
(I2
tp6
cnumpy
dtype
p7
(S'f8'
p8
I0
I1
tp9
Rp10
(I3
S'<'
p11
NNNI-1
I-1
I0
tp12
bI00
S'@h\xcbf\r\x1d\xe3?ELp\xe0\x01\xd4\xe0?'
p13
tp14
b(lp15
(lp16
cnumpy.core.multiarray
scalar
p17
(g10
S'F&\xe7z\x90\x01\xe0\xbf'
p18
tp19
Rp20
ag17
(g10
S'c\xfb>\xa4\xd5\x1d\xfb?'
p21
tp22
Rp23
aa(lp24
g17
(g10
S'\x9d\xa5\xd99\xa2\xd2\xe0?'
p25
tp26
Rp27
ag17
(g10
S'\xed\xf2\x06\x87a\xd5\xe0?'
p28
tp29
Rp30
aatp31
.