(cnumpy.core.multiarray
_reconstruct
p0
(cnumpy
ndarray
p1
(I0
tp2
S'b'
p3
tp4
Rp5
(I1
(I2
tp6
cnumpy
dtype
p7
(S'f8'
p8
I0
I1
tp9
Rp10
(I3
S'<'
p11
NNNI-1
I-1
I0
tp12
bI00
S'A\xb2E%\x91\xcc\x15@\xdb\xe6\xc4\xa2\x15\x99\xe0?'
p13
tp14
b(lp15
(lp16
cnumpy.core.multiarray
scalar
p17
(g10
S'~<n\x89\x02\xc0l\xc0'
p18
tp19
Rp20
ag17
(g10
S'\xa2\x97\xc2\x9b\xcb\x1cn@'
p21
tp22
Rp23
aa(lp24
g17
(g10
S'oF\xb2\xdc\xc3\x97\xe0?'
p25
tp26
Rp27
ag17
(g10
S'G\x87\xd7hg\x9a\xe0?'
p28
tp29
Rp30
aatp31
.