(cnumpy.core.multiarray
_reconstruct
p0
(cnumpy
ndarray
p1
(I0
tp2
S'b'
p3
tp4
Rp5
(I1
(I2
tp6
cnumpy
dtype
p7
(S'f8'
p8
I0
I1
tp9
Rp10
(I3
S'<'
p11
NNNI-1
I-1
I0
tp12
bI00
S'-t\xa6\xf7\xfd\xa3\x96?\xf1\xf7.\xad\xe3\xe4\xe0?'
p13
tp14
b(lp15
(lp16
cnumpy.core.multiarray
scalar
p17
(g10
S'\xe2\x89\x95\xc9%\xa9{?'
p18
tp19
Rp20
ag17
(g10
S'\xf1\xc2s>\xd9.\xa3?'
p21
tp22
Rp23
aa(lp24
g17
(g10
S'\x15\xf3\xaf-\x8f\xe3\xe0?'
p25
tp26
Rp27
ag17
(g10
S'\xcd\xfc\xad,8\xe6\xe0?'
p28
tp29
Rp30
aatp31
.