(cnumpy.core.multiarray
_reconstruct
p0
(cnumpy
ndarray
p1
(I0
tp2
S'b'
p3
tp4
Rp5
(I1
(I2
tp6
cnumpy
dtype
p7
(S'f8'
p8
I0
I1
tp9
Rp10
(I3
S'<'
p11
NNNI-1
I-1
I0
tp12
bI00
S'\xee\xd2T\x8c\xf5\xef-@.RW9\x9f\x85\xe0?'
p13
tp14
b(lp15
(lp16
cnumpy.core.multiarray
scalar
p17
(g10
S'\xee\xd2T\x8c\xf5\xef-@'
p18
tp19
Rp20
ag17
(g10
S'\xee\xd2T\x8c\xf5\xef-@'
p21
tp22
Rp23
aa(lp24
g17
(g10
S'\x8f\xb5\xeaaV\x84\xe0?'
p25
tp26
Rp27
ag17
(g10
S'\xcd\xee\xc3\x10\xe8\x86\xe0?'
p28
tp29
Rp30
aatp31
.