(cnumpy.core.multiarray
_reconstruct
p0
(cnumpy
ndarray
p1
(I0
tp2
S'b'
p3
tp4
Rp5
(I1
(I2
tp6
cnumpy
dtype
p7
(S'f8'
p8
I0
I1
tp9
Rp10
(I3
S'<'
p11
NNNI-1
I-1
I0
tp12
bI00
S'#\xd9^>\xc2M\x12@9\x19\x93\xc6d(\xe1?'
p13
tp14
b(lp15
(lp16
cnumpy.core.multiarray
scalar
p17
(g10
S'\x01\xf580$\xf7a\xc0'
p18
tp19
Rp20
ag17
(g10
S'\x93\xe2\x1eT\x00\x1cc@'
p21
tp22
Rp23
aa(lp24
g17
(g10
S'\x0f{ei\xfc&\xe1?'
p25
tp26
Rp27
ag17
(g10
S'c\xb7\xc0#\xcd)\xe1?'
p28
tp29
Rp30
aatp31
.