(cnumpy.core.multiarray
_reconstruct
p0
(cnumpy
ndarray
p1
(I0
tp2
S'b'
p3
tp4
Rp5
(I1
(I2
tp6
cnumpy
dtype
p7
(S'f8'
p8
I0
I1
tp9
Rp10
(I3
S'<'
p11
NNNI-1
I-1
I0
tp12
bI00
S'\t\xe3/\x86\xc3\xe4\xbf?\xae\xf5k\x9e\x07\x8d\xe0?'
p13
tp14
b(lp15
(lp16
cnumpy.core.multiarray
scalar
p17
(g10
S'@4R\xe9\xb7Q\xa7?'
p18
tp19
Rp20
ag17
(g10
S'\xf9U\xdb\x8bU\x10\xca?'
p21
tp22
Rp23
aa(lp24
g17
(g10
S'J\xbd\xed3\xc2\x8b\xe0?'
p25
tp26
Rp27
ag17
(g10
S'\x12.\xea\x08M\x8e\xe0?'
p28
tp29
Rp30
aatp31
.