(cnumpy.core.multiarray
_reconstruct
p0
(cnumpy
ndarray
p1
(I0
tp2
S'b'
p3
tp4
Rp5
(I1
(I2
tp6
cnumpy
dtype
p7
(S'f8'
p8
I0
I1
tp9
Rp10
(I3
S'<'
p11
NNNI-1
I-1
I0
tp12
bI00
S'\x1a5L\xdd"+\xfe?\x1d\xeb\x12t\xb8\xda\xe0?'
p13
tp14
b(lp15
(lp16
cnumpy.core.multiarray
scalar
p17
(g10
S'\x03/\xdd\x13\xb2w$\xc0'
p18
tp19
Rp20
ag17
(g10
S'I<0\xcbz\x02,@'
p21
tp22
Rp23
aa(lp24
g17
(g10
S'\x13\xfe\x9e6a\xd9\xe0?'
p25
tp26
Rp27
ag17
(g10
S"'\xd8\x86\xb1\x0f\xdc\xe0?"
p28
tp29
Rp30
aatp31
.