(cnumpy.core.multiarray
_reconstruct
p0
(cnumpy
ndarray
p1
(I0
tp2
S'b'
p3
tp4
Rp5
(I1
(I2
tp6
cnumpy
dtype
p7
(S'f8'
p8
I0
I1
tp9
Rp10
(I3
S'<'
p11
NNNI-1
I-1
I0
tp12
bI00
S'\x01k\x8f\x85\xcd\x1e\xc7?~\xd0\x87\xba\x9ax\xe0?'
p13
tp14
b(lp15
(lp16
cnumpy.core.multiarray
scalar
p17
(g10
S'\xacg*\xc2o\xf8\xa7?'
p18
tp19
Rp20
ag17
(g10
S'\x0c\x1eJ\x8d\xbf\x1f\xd4?'
p21
tp22
Rp23
aa(lp24
g17
(g10
S'\x16\x15\nOVw\xe0?'
p25
tp26
Rp27
ag17
(g10
S'\xe6\x8b\x05&\xdfy\xe0?'
p28
tp29
Rp30
aatp31
.