(cnumpy.core.multiarray
_reconstruct
p0
(cnumpy
ndarray
p1
(I0
tp2
S'b'
p3
tp4
Rp5
(I1
(I2
tp6
cnumpy
dtype
p7
(S'f8'
p8
I0
I1
tp9
Rp10
(I3
S'<'
p11
NNNI-1
I-1
I0
tp12
bI00
S'\x12\xf8L\xbaP\xf8\x04@\xf8\x92\x93\xfd\x00S\xe0?'
p13
tp14
b(lp15
(lp16
cnumpy.core.multiarray
scalar
p17
(g10
S'W\x06\xb1\xd2\xa3\x14\x02@'
p18
tp19
Rp20
ag17
(g10
S'\xcd\xe9\xe8\xa1\xfd\xdb\x07@'
p21
tp22
Rp23
aa(lp24
g17
(g10
S'P9\xee6\x98Q\xe0?'
p25
tp26
Rp27
ag17
(g10
S'\xa0\xec8\xc4iT\xe0?'
p28
tp29
Rp30
aatp31
.