(cnumpy.core.multiarray
_reconstruct
p0
(cnumpy
ndarray
p1
(I0
tp2
S'b'
p3
tp4
Rp5
(I1
(I2
tp6
cnumpy
dtype
p7
(S'f8'
p8
I0
I1
tp9
Rp10
(I3
S'<'
p11
NNNI-1
I-1
I0
tp12
bI00
S'VJ)&\xb3\x95\xea?;\xe0\xebn\xd5~\xe0?'
p13
tp14
b(lp15
(lp16
cnumpy.core.multiarray
scalar
p17
(g10
S'\xa1\x92\xe1\xd6\xd7\t\xf4\xbf'
p18
tp19
Rp20
ag17
(g10
S'|n\x85~\xc5O\x07@'
p21
tp22
Rp23
aa(lp24
g17
(g10
S'\x1b\xe4`\xee\x8f}\xe0?'
p25
tp26
Rp27
ag17
(g10
S'[\xdcv\xef\x1a\x80\xe0?'
p28
tp29
Rp30
aatp31
.