(cnumpy.core.multiarray
_reconstruct
p0
(cnumpy
ndarray
p1
(I0
tp2
S'b'
p3
tp4
Rp5
(I1
(I2
tp6
cnumpy
dtype
p7
(S'f8'
p8
I0
I1
tp9
Rp10
(I3
S'<'
p11
NNNI-1
I-1
I0
tp12
bI00
S'^\x18Hp46\x10@mU\xb4\x15\xfa\xa3\xe0?'
p13
tp14
b(lp15
(lp16
cnumpy.core.multiarray
scalar
p17
(g10
S'\x1e\xa3\xad\xfcR\xd1U\xc0'
p18
tp19
Rp20
ag17
(g10
S'*\xa6\xb6\x8a\x19\xd8W@'
p21
tp22
Rp23
aa(lp24
g17
(g10
S'\x8f\xc8\x009\xae\xa2\xe0?'
p25
tp26
Rp27
ag17
(g10
S'K\xe2g\xf2E\xa5\xe0?'
p28
tp29
Rp30
aatp31
.