(cnumpy.core.multiarray
_reconstruct
p0
(cnumpy
ndarray
p1
(I0
tp2
S'b'
p3
tp4
Rp5
(I1
(I2
tp6
cnumpy
dtype
p7
(S'f8'
p8
I0
I1
tp9
Rp10
(I3
S'<'
p11
NNNI-1
I-1
I0
tp12
bI00
S'\xf0\xb0\x06\xb6\x9e\x1b\x10@\x03\xa1\xc5\xba\xb1`\xe0?'
p13
tp14
b(lp15
(lp16
cnumpy.core.multiarray
scalar
p17
(g10
S'm\x99Qf\x9e\xf6Y\xc0'
p18
tp19
Rp20
ag17
(g10
S'\x8bo\x12=\x12\xfa[@'
p21
tp22
Rp23
aa(lp24
g17
(g10
S'<\xfd\xa68]_\xe0?'
p25
tp26
Rp27
ag17
(g10
S'\xcaD\xe4<\x06b\xe0?'
p28
tp29
Rp30
aatp31
.