(cnumpy.core.multiarray
_reconstruct
p0
(cnumpy
ndarray
p1
(I0
tp2
S'b'
p3
tp4
Rp5
(I1
(I2
tp6
cnumpy
dtype
p7
(S'f8'
p8
I0
I1
tp9
Rp10
(I3
S'<'
p11
NNNI-1
I-1
I0
tp12
bI00
S'k\x854DF$\x10@\xd9\xbe\xb1\x82\xfde\xe0?'
p13
tp14
b(lp15
(lp16
cnumpy.core.multiarray
scalar
p17
(g10
S'\xb0\xe5P\x9e\x99S\r@'
p18
tp19
Rp20
ag17
(g10
S'\xfe\x97@\xb9\xbf\x9e\x11@'
p21
tp22
Rp23
aa(lp24
g17
(g10
S'\t<\x89\xb6\xabd\xe0?'
p25
tp26
Rp27
ag17
(g10
S'\xa9A\xdaNOg\xe0?'
p28
tp29
Rp30
aatp31
.