(cnumpy.core.multiarray
_reconstruct
p0
(cnumpy
ndarray
p1
(I0
tp2
S'b'
p3
tp4
Rp5
(I1
(I2
tp6
cnumpy
dtype
p7
(S'f8'
p8
I0
I1
tp9
Rp10
(I3
S'<'
p11
NNNI-1
I-1
I0
tp12
bI00
S'\x82\x12\xadSL\xd5$@\x8f/\xcd\xaa\xd1\xf5\xe0?'
p13
tp14
b(lp15
(lp16
cnumpy.core.multiarray
scalar
p17
(g10
S'"\xe2]\x8a\xe6D\xb2\xc0'
p18
tp19
Rp20
ag17
(g10
S'4\x8f\xb1\xd6\xbbY\xb2@'
p21
tp22
Rp23
aa(lp24
g17
(g10
S'\x03A7\x9b}\xf4\xe0?'
p25
tp26
Rp27
ag17
(g10
S'\x1b\x1ec\xba%\xf7\xe0?'
p28
tp29
Rp30
aatp31
.