(cnumpy.core.multiarray
_reconstruct
p0
(cnumpy
ndarray
p1
(I0
tp2
S'b'
p3
tp4
Rp5
(I1
(I2
tp6
cnumpy
dtype
p7
(S'f8'
p8
I0
I1
tp9
Rp10
(I3
S'<'
p11
NNNI-1
I-1
I0
tp12
bI00
S'\xe1~\x1dY\x01(\xe3?(\xa7\x14\xf4L_\xe0?'
p13
tp14
b(lp15
(lp16
cnumpy.core.multiarray
scalar
p17
(g10
S'\xfcK\x1a^\x99\x95\xd8\xbf'
p18
tp19
Rp20
ag17
(g10
S'\xe0\x11\xa4\xb0gM\xf9?'
p21
tp22
Rp23
aa(lp24
g17
(g10
S'w\xf4\x17\xeb\t^\xe0?'
p25
tp26
Rp27
ag17
(g10
S'\xd9Y\x11\xfd\x8f`\xe0?'
p28
tp29
Rp30
aatp31
.