(cnumpy.core.multiarray
_reconstruct
p0
(cnumpy
ndarray
p1
(I0
tp2
S'b'
p3
tp4
Rp5
(I1
(I2
tp6
cnumpy
dtype
p7
(S'f8'
p8
I0
I1
tp9
Rp10
(I3
S'<'
p11
NNNI-1
I-1
I0
tp12
bI00
S'\xc2\xb0\xaf\xe2{6&@\xa8\x19#\xbd\xd2u\xe0?'
p13
tp14
b(lp15
(lp16
cnumpy.core.multiarray
scalar
p17
(g10
S'L\xa4F\x89i\xcf\xbf\xc0'
p18
tp19
Rp20
ag17
(g10
S'\xfcS)\x05\xa0\xe5\xbf@'
p21
tp22
Rp23
aa(lp24
g17
(g10
S'\x04a\x0f\xd9|t\xe0?'
p25
tp26
Rp27
ag17
(g10
S'L\xd26\xa1(w\xe0?'
p28
tp29
Rp30
aatp31
.