(cnumpy.core.multiarray
_reconstruct
p0
(cnumpy
ndarray
p1
(I0
tp2
S'b'
p3
tp4
Rp5
(I1
(I2
tp6
cnumpy
dtype
p7
(S'f8'
p8
I0
I1
tp9
Rp10
(I3
S'<'
p11
NNNI-1
I-1
I0
tp12
bI00
S'\x00\x00\x00(Ay\xc1;,\\\xc3R\xe0\x95\xe0?'
p13
tp14
b(lp15
(lp16
cnumpy.core.multiarray
scalar
p17
(g10
S'\n\xdbT\t\x92\x9c~\xbf'
p18
tp19
Rp20
ag17
(g10
S'\n\xdbT\t\x92\x9c~?'
p21
tp22
Rp23
aa(lp24
g17
(g10
S'%\xd5\xf9\x96\x92\x94\xe0?'
p25
tp26
Rp27
ag17
(g10
S'3\xe3\x8c\x0e.\x97\xe0?'
p28
tp29
Rp30
aatp31
.