(cnumpy.core.multiarray
_reconstruct
p0
(cnumpy
ndarray
p1
(I0
tp2
S'b'
p3
tp4
Rp5
(I1
(I2
tp6
cnumpy
dtype
p7
(S'f8'
p8
I0
I1
tp9
Rp10
(I3
S'<'
p11
NNNI-1
I-1
I0
tp12
bI00
S'u\xffK\xbd\x94\x91\x15@qT\xc3\x10\xba\x14\xe1?'
p13
tp14
b(lp15
(lp16
cnumpy.core.multiarray
scalar
p17
(g10
S'\xabNI\xb0\x8f>o\xc0'
p18
tp19
Rp20
ag17
(g10
S'Q\x07\x0f~\xd4Kp@'
p21
tp22
Rp23
aa(lp24
g17
(g10
S'\xab\xc1\xaeVJ\x13\xe1?'
p25
tp26
Rp27
ag17
(g10
S'7\xe7\xd7\xca)\x16\xe1?'
p28
tp29
Rp30
aatp31
.