(cnumpy.core.multiarray
_reconstruct
p0
(cnumpy
ndarray
p1
(I0
tp2
S'b'
p3
tp4
Rp5
(I1
(I2
tp6
cnumpy
dtype
p7
(S'f8'
p8
I0
I1
tp9
Rp10
(I3
S'<'
p11
NNNI-1
I-1
I0
tp12
bI00
S'[\xa3\x86\x12\x0c\x08\xf1?y\xc3\xf0Bp\xa9\xe0?'
p13
tp14
b(lp15
(lp16
cnumpy.core.multiarray
scalar
p17
(g10
S'\xfa&\xb6SJ\x9a\x02\xc0'
p18
tp19
Rp20
ag17
(g10
S'+e\x1e3+\xd1\x11@'
p21
tp22
Rp23
aa(lp24
g17
(g10
S'\xe1|\x83V\n\xa8\xe0?'
p25
tp26
Rp27
ag17
(g10
S'\x11\n^/\xd6\xaa\xe0?'
p28
tp29
Rp30
aatp31
.