(cnumpy.core.multiarray
_reconstruct
p0
(cnumpy
ndarray
p1
(I0
tp2
S'b'
p3
tp4
Rp5
(I1
(I2
tp6
cnumpy
dtype
p7
(S'f8'
p8
I0
I1
tp9
Rp10
(I3
S'<'
p11
NNNI-1
I-1
I0
tp12
bI00
S'\x1a\x137\xdc\xe7u\xf8?\x97\xd5z\xbd\x9c\x85\xe0?'
p13
tp14
b(lp15
(lp16
cnumpy.core.multiarray
scalar
p17
(g10
S'\x8a\xb7\x92\xe3\xe8\x08 \xc0'
p18
tp19
Rp20
ag17
(g10
S'P|\xa0\xdab&&@'
p21
tp22
Rp23
aa(lp24
g17
(g10
S"x'\x9c\x92S\x84\xe0?"
p25
tp26
Rp27
ag17
(g10
S'\xb6\x83Y\xe8\xe5\x86\xe0?'
p28
tp29
Rp30
aatp31
.