(cnumpy.core.multiarray
_reconstruct
p0
(cnumpy
ndarray
p1
(I0
tp2
S'b'
p3
tp4
Rp5
(I1
(I2
tp6
cnumpy
dtype
p7
(S'f8'
p8
I0
I1
tp9
Rp10
(I3
S'<'
p11
NNNI-1
I-1
I0
tp12
bI00
S'\xba%\x1eL\xfe\xfe\x13@p\x82"x\x99h\xe0?'
p13
tp14
b(lp15
(lp16
cnumpy.core.multiarray
scalar
p17
(g10
S'\x06\x1e\x857\xcb\xd3f\xc0'
p18
tp19
Rp20
ag17
(g10
S'b\x00G\x1c\xbb\x13h@'
p21
tp22
Rp23
aa(lp24
g17
(g10
S'V\xdb7=/g\xe0?'
p25
tp26
Rp27
ag17
(g10
S'\x8a)\r\xb3\x03j\xe0?'
p28
tp29
Rp30
aatp31
.