(cnumpy.core.multiarray
_reconstruct
p0
(cnumpy
ndarray
p1
(I0
tp2
S'b'
p3
tp4
Rp5
(I1
(I2
tp6
cnumpy
dtype
p7
(S'f8'
p8
I0
I1
tp9
Rp10
(I3
S'<'
p11
NNNI-1
I-1
I0
tp12
bI00
S'*\x96\x8d\xaa8\xd6W?\xb2\xb7\x9f\xaa+w\xe0?'
p13
tp14
b(lp15
(lp16
cnumpy.core.multiarray
scalar
p17
(g10
S'\x9e\xa6\x15ns\x9ey\xbf'
p18
tp19
Rp20
ag17
(g10
S'\xda8\xae\xe1\xc7\xc4\x82?'
p21
tp22
Rp23
aa(lp24
g17
(g10
S'\x99`\xf6\xb1\xd6u\xe0?'
p25
tp26
Rp27
ag17
(g10
S'\xcb\x0eI\xa3\x80x\xe0?'
p28
tp29
Rp30
aatp31
.