(cnumpy.core.multiarray
_reconstruct
p0
(cnumpy
ndarray
p1
(I0
tp2
S'b'
p3
tp4
Rp5
(I1
(I2
tp6
cnumpy
dtype
p7
(S'f8'
p8
I0
I1
tp9
Rp10
(I3
S'<'
p11
NNNI-1
I-1
I0
tp12
bI00
S'\xf9\xa3L#f\xd3\xb9?r\xc5\x83\x80,s\xe0?'
p13
tp14
b(lp15
(lp16
cnumpy.core.multiarray
scalar
p17
(g10
S'F\x84\xda\x927B\xa0?'
p18
tp19
Rp20
ag17
(g10
S'\xe8\x02\x96>\xd8\xc2\xc5?'
p21
tp22
Rp23
aa(lp24
g17
(g10
S'x\xde\xd1@\xe3q\xe0?'
p25
tp26
Rp27
ag17
(g10
S'l\xac5\xc0ut\xe0?'
p28
tp29
Rp30
aatp31
.