(cnumpy.core.multiarray
_reconstruct
p0
(cnumpy
ndarray
p1
(I0
tp2
S'b'
p3
tp4
Rp5
(I1
(I2
tp6
cnumpy
dtype
p7
(S'f8'
p8
I0
I1
tp9
Rp10
(I3
S'<'
p11
NNNI-1
I-1
I0
tp12
bI00
S'\xcaHuz\xe1\xf7\x04@\x90\xa8\x1f\x9a\x81\x9e\xe0?'
p13
tp14
b(lp15
(lp16
cnumpy.core.multiarray
scalar
p17
(g10
S'\xc1c\x18\xc9\x13E9\xc0'
p18
tp19
Rp20
ag17
(g10
S"\xf3\xb5\xb5'\x0c\x83>@"
p21
tp22
Rp23
aa(lp24
g17
(g10
S'\xf4K\xaf4(\x9d\xe0?'
p25
tp26
Rp27
ag17
(g10
S',\x05\x90\xff\xda\x9f\xe0?'
p28
tp29
Rp30
aatp31
.