(cnumpy.core.multiarray
_reconstruct
p0
(cnumpy
ndarray
p1
(I0
tp2
S'b'
p3
tp4
Rp5
(I1
(I2
tp6
cnumpy
dtype
p7
(S'f8'
p8
I0
I1
tp9
Rp10
(I3
S'<'
p11
NNNI-1
I-1
I0
tp12
bI00
S'Y\xe1au\xbe,\xdc?\xca3\xea\xa6\x99\x98\xe0?'
p13
tp14
b(lp15
(lp16
cnumpy.core.multiarray
scalar
p17
(g10
S'\xae,]\xb4\x94\x84\xc7\xbf'
p18
tp19
Rp20
ag17
(g10
S'B\x96<\xd1\xf1\x06\xf1?'
p21
tp22
Rp23
aa(lp24
g17
(g10
S'J\x00:\xa2>\x97\xe0?'
p25
tp26
Rp27
ag17
(g10
S'Jg\x9a\xab\xf4\x99\xe0?'
p28
tp29
Rp30
aatp31
.