(cnumpy.core.multiarray
_reconstruct
p0
(cnumpy
ndarray
p1
(I0
tp2
S'b'
p3
tp4
Rp5
(I1
(I2
tp6
cnumpy
dtype
p7
(S'f8'
p8
I0
I1
tp9
Rp10
(I3
S'<'
p11
NNNI-1
I-1
I0
tp12
bI00
S'~\x15\xc1:\x07\xf8\x04@\x9a\xf2\xfcb\x9f\x85\xe0?'
p13
tp14
b(lp15
(lp16
cnumpy.core.multiarray
scalar
p17
(g10
S'7\xd2\x85v\x90\x8a\x04@'
p18
tp19
Rp20
ag17
(g10
S'\xc5X\xfc\xfe}e\x05@'
p21
tp22
Rp23
aa(lp24
g17
(g10
S'\x10y`}V\x84\xe0?'
p25
tp26
Rp27
ag17
(g10
S'$l\x99H\xe8\x86\xe0?'
p28
tp29
Rp30
aatp31
.