(cnumpy.core.multiarray
_reconstruct
p0
(cnumpy
ndarray
p1
(I0
tp2
S'b'
p3
tp4
Rp5
(I1
(I2
tp6
cnumpy
dtype
p7
(S'f8'
p8
I0
I1
tp9
Rp10
(I3
S'<'
p11
NNNI-1
I-1
I0
tp12
bI00
S'\xc5\x06\xd1\x15\xdf\xac\xa6?P\x9a\t*\x08\xa6\xe0?'
p13
tp14
b(lp15
(lp16
cnumpy.core.multiarray
scalar
p17
(g10
S'\xdcx`\xe6\xe07\x94?'
p18
tp19
Rp20
ag17
(g10
S'\x8e\xe88\xdc\xe6\x9e\xb1?'
p21
tp22
Rp23
aa(lp24
g17
(g10
S'Qr\xf8\x1c\xbf\xa4\xe0?'
p25
tp26
Rp27
ag17
(g10
S'O\xc2\x1a7Q\xa7\xe0?'
p28
tp29
Rp30
aatp31
.