(cnumpy.core.multiarray
_reconstruct
p0
(cnumpy
ndarray
p1
(I0
tp2
S'b'
p3
tp4
Rp5
(I1
(I2
tp6
cnumpy
dtype
p7
(S'f8'
p8
I0
I1
tp9
Rp10
(I3
S'<'
p11
NNNI-1
I-1
I0
tp12
bI00
S'\x87\xd0Q1\x9c\x14 @\xe6J[\r\x80\xe3\xe0?'
p13
tp14
b(lp15
(lp16
cnumpy.core.multiarray
scalar
p17
(g10
S'X\xc0\xc4\xf4p\x11\x92\xc0'
p18
tp19
Rp20
ag17
(g10
S'\x9a\x07\x8ae\xc3Q\x92@'
p21
tp22
Rp23
aa(lp24
g17
(g10
S"'JS\xdd\x0e\xe2\xe0?"
p25
tp26
Rp27
ag17
(g10
S'\xa5Kc=\xf1\xe4\xe0?'
p28
tp29
Rp30
aatp31
.