(cnumpy.core.multiarray
_reconstruct
p0
(cnumpy
ndarray
p1
(I0
tp2
S'b'
p3
tp4
Rp5
(I1
(I2
tp6
cnumpy
dtype
p7
(S'f8'
p8
I0
I1
tp9
Rp10
(I3
S'<'
p11
NNNI-1
I-1
I0
tp12
bI00
S'\x07I\xf2\xc43_\xe9?PO/\x98\xcd\xa9\xe0?'
p13
tp14
b(lp15
(lp16
cnumpy.core.multiarray
scalar
p17
(g10
S'>\xb1s1\xb4E\xf0\xbf'
p18
tp19
Rp20
ag17
(g10
S'#\xfd2\xfbs\xd2\x04@'
p21
tp22
Rp23
aa(lp24
g17
(g10
S'<\xd7gQz\xa8\xe0?'
p25
tp26
Rp27
ag17
(g10
S'd\xc7\xf6\xde \xab\xe0?'
p28
tp29
Rp30
aatp31
.