(cnumpy.core.multiarray
_reconstruct
p0
(cnumpy
ndarray
p1
(I0
tp2
S'b'
p3
tp4
Rp5
(I1
(I2
tp6
cnumpy
dtype
p7
(S'f8'
p8
I0
I1
tp9
Rp10
(I3
S'<'
p11
NNNI-1
I-1
I0
tp12
bI00
S'P\xc29\xe9/\r\x96?\x8e\xf0{\xb9\x8a\x82\xe0?'
p13
tp14
b(lp15
(lp16
cnumpy.core.multiarray
scalar
p17
(g10
S'@$U\x87\x98\x01<?'
p18
tp19
Rp20
ag17
(g10
S'\x08\x18+\xb8,\xd5\xa5?'
p21
tp22
Rp23
aa(lp24
g17
(g10
S'\x009\xceVD\x81\xe0?'
p25
tp26
Rp27
ag17
(g10
S'\x1c\xa8)\x1c\xd1\x83\xe0?'
p28
tp29
Rp30
aatp31
.