(cnumpy.core.multiarray
_reconstruct
p0
(cnumpy
ndarray
p1
(I0
tp2
S'b'
p3
tp4
Rp5
(I1
(I2
tp6
cnumpy
dtype
p7
(S'f8'
p8
I0
I1
tp9
Rp10
(I3
S'<'
p11
NNNI-1
I-1
I0
tp12
bI00
S'\xe4\xdb\xa8\xb6\xc9\xa4\xb7?Y\x13qF\xe5\x8e\xe0?'
p13
tp14
b(lp15
(lp16
cnumpy.core.multiarray
scalar
p17
(g10
S'\xe4S\xf0\xd21\x86\xa1?'
p18
tp19
Rp20
ag17
(g10
S'\xeb\xc6\xecA=C\xc3?'
p21
tp22
Rp23
aa(lp24
g17
(g10
S'q\xcc\xfe\xbd\x96\x8d\xe0?'
p25
tp26
Rp27
ag17
(g10
S'AZ\xe3\xce3\x90\xe0?'
p28
tp29
Rp30
aatp31
.