(cnumpy.core.multiarray
_reconstruct
p0
(cnumpy
ndarray
p1
(I0
tp2
S'b'
p3
tp4
Rp5
(I1
(I2
tp6
cnumpy
dtype
p7
(S'f8'
p8
I0
I1
tp9
Rp10
(I3
S'<'
p11
NNNI-1
I-1
I0
tp12
bI00
S'\xca\xda\xbd\xfa\x1e\x9d\xd4?I\x11\xc1N\x03\x88\xe0?'
p13
tp14
b(lp15
(lp16
cnumpy.core.multiarray
scalar
p17
(g10
S'x\xc9\xbe\xca]\xc0\xaa\xbf'
p18
tp19
Rp20
ag17
(g10
S'b\xc7i\xd7$I\xe6?'
p21
tp22
Rp23
aa(lp24
g17
(g10
S'X\xc2\xd4\x1f\x9c\x86\xe0?'
p25
tp26
Rp27
ag17
(g10
S':`\xad}j\x89\xe0?'
p28
tp29
Rp30
aatp31
.