(cnumpy.core.multiarray
_reconstruct
p0
(cnumpy
ndarray
p1
(I0
tp2
S'b'
p3
tp4
Rp5
(I1
(I2
tp6
cnumpy
dtype
p7
(S'f8'
p8
I0
I1
tp9
Rp10
(I3
S'<'
p11
NNNI-1
I-1
I0
tp12
bI00
S'\xd6|N;\\\xd1\xf3?4\xa9@\xbd\x99\xfd\xe0?'
p13
tp14
b(lp15
(lp16
cnumpy.core.multiarray
scalar
p17
(g10
S'}D\xa4\xdf\xf6\xad\r\xc0'
p18
tp19
Rp20
ag17
(g10
S'\xaa`y\x8d\xa9\xbf\x18@'
p21
tp22
Rp23
aa(lp24
g17
(g10
S's\xb2\xa2&+\xfc\xe0?'
p25
tp26
Rp27
ag17
(g10
S'\xf5\x9f\xdeS\x08\xff\xe0?'
p28
tp29
Rp30
aatp31
.