(cnumpy.core.multiarray
_reconstruct
p0
(cnumpy
ndarray
p1
(I0
tp2
S'b'
p3
tp4
Rp5
(I1
(I2
tp6
cnumpy
dtype
p7
(S'f8'
p8
I0
I1
tp9
Rp10
(I3
S'<'
p11
NNNI-1
I-1
I0
tp12
bI00
S'\xa5\xa5#\x86\xc3\xbf\xe1?\xea\xf0\xe7^\xb6\xc6\xe0?'
p13
tp14
b(lp15
(lp16
cnumpy.core.multiarray
scalar
p17
(g10
S'&X\xeaD\x17F\xdb\xbf'
p18
tp19
Rp20
ag17
(g10
S'\xae;^WI\x91\xf8?'
p21
tp22
Rp23
aa(lp24
g17
(g10
S'F\x0b\x94\xe0_\xc5\xe0?'
p25
tp26
Rp27
ag17
(g10
S'\x8e\xd6;\xdd\x0c\xc8\xe0?'
p28
tp29
Rp30
aatp31
.