(cnumpy.core.multiarray
_reconstruct
p0
(cnumpy
ndarray
p1
(I0
tp2
S'b'
p3
tp4
Rp5
(I1
(I2
tp6
cnumpy
dtype
p7
(S'f8'
p8
I0
I1
tp9
Rp10
(I3
S'<'
p11
NNNI-1
I-1
I0
tp12
bI00
S'W-\xc5\xb9:q\x10@\x1c\xe2J\xcf\xca\n\xe1?'
p13
tp14
b(lp15
(lp16
cnumpy.core.multiarray
scalar
p17
(g10
S'\xcd\xce8F\x0f\xfdW\xc0'
p18
tp19
Rp20
ag17
(g10
S'wtq\x9d6\x0bZ@'
p21
tp22
Rp23
aa(lp24
g17
(g10
S'\x7f\x0e\x8aFv\t\xe1?'
p25
tp26
Rp27
ag17
(g10
S'\xb9\xb5\x0bX\x1f\x0c\xe1?'
p28
tp29
Rp30
aatp31
.