(cnumpy.core.multiarray
_reconstruct
p0
(cnumpy
ndarray
p1
(I0
tp2
S'b'
p3
tp4
Rp5
(I1
(I2
tp6
cnumpy
dtype
p7
(S'f8'
p8
I0
I1
tp9
Rp10
(I3
S'<'
p11
NNNI-1
I-1
I0
tp12
bI00
S'u+\xdb\x9e\xb4K\x8d?\xef\x1e8\x1f\xc4\xb3\xe0?'
p13
tp14
b(lp15
(lp16
cnumpy.core.multiarray
scalar
p17
(g10
S'\x02\xf6\xf4D\xf4\x82v\xbf'
p18
tp19
Rp20
ag17
(g10
S'{4\x0c\xd88v\xa1?'
p21
tp22
Rp23
aa(lp24
g17
(g10
S'/P\x12\x81P\xb2\xe0?'
p25
tp26
Rp27
ag17
(g10
S'\xaf\xed]\xbd7\xb5\xe0?'
p28
tp29
Rp30
aatp31
.