(cnumpy.core.multiarray
_reconstruct
p0
(cnumpy
ndarray
p1
(I0
tp2
S'b'
p3
tp4
Rp5
(I1
(I2
tp6
cnumpy
dtype
p7
(S'f8'
p8
I0
I1
tp9
Rp10
(I3
S'<'
p11
NNNI-1
I-1
I0
tp12
bI00
S'\xfeT\x11*\xe5\xc0\x06@c\xbc\xc4\t\xd4\x80\xe0?'
p13
tp14
b(lp15
(lp16
cnumpy.core.multiarray
scalar
p17
(g10
S'\xee\xa4\xc8J\x07*>\xc0'
p18
tp19
Rp20
ag17
(g10
S'\x17}\xa6J \xedA@'
p21
tp22
Rp23
aa(lp24
g17
(g10
S'\x9b\xa1\xc9}\x8e\x7f\xe0?'
p25
tp26
Rp27
ag17
(g10
S'+\xd7\xbf\x95\x19\x82\xe0?'
p28
tp29
Rp30
aatp31
.