(cnumpy.core.multiarray
_reconstruct
p0
(cnumpy
ndarray
p1
(I0
tp2
S'b'
p3
tp4
Rp5
(I1
(I2
tp6
cnumpy
dtype
p7
(S'f8'
p8
I0
I1
tp9
Rp10
(I3
S'<'
p11
NNNI-1
I-1
I0
tp12
bI00
S'\xd9u\xd1Cz\x17\x14@\xcf\xc4\x94\x1e\xfa\xa2\xe0?'
p13
tp14
b(lp15
(lp16
cnumpy.core.multiarray
scalar
p17
(g10
S'A\xf0M\xdd-\xd9d\xc0'
p18
tp19
Rp20
ag17
(g10
S'\x9f\x07\x8b\x81\xa5\x1af@'
p21
tp22
Rp23
aa(lp24
g17
(g10
S'\xeaU\xf8H\xb8\xa1\xe0?'
p25
tp26
Rp27
ag17
(g10
S'\xb431\xf4;\xa4\xe0?'
p28
tp29
Rp30
aatp31
.