(cnumpy.core.multiarray
_reconstruct
p0
(cnumpy
ndarray
p1
(I0
tp2
S'b'
p3
tp4
Rp5
(I1
(I2
tp6
cnumpy
dtype
p7
(S'f8'
p8
I0
I1
tp9
Rp10
(I3
S'<'
p11
NNNI-1
I-1
I0
tp12
bI00
S'\x87\xa9\xf8\xdf\x02\x87A?\xd9\x9b}2\xd1\xe8\xe0?'
p13
tp14
b(lp15
(lp16
cnumpy.core.multiarray
scalar
p17
(g10
S'xR\x7f\xb9\x8e\xce\x87\xbf'
p18
tp19
Rp20
ag17
(g10
S'\xa8g~\x15o\xff\x89?'
p21
tp22
Rp23
aa(lp24
g17
(g10
S'\x88\x121\x91h\xe7\xe0?'
p25
tp26
Rp27
ag17
(g10
S'*%\xca\xd39\xea\xe0?'
p28
tp29
Rp30
aatp31
.