(cnumpy.core.multiarray
_reconstruct
p0
(cnumpy
ndarray
p1
(I0
tp2
S'b'
p3
tp4
Rp5
(I1
(I2
tp6
cnumpy
dtype
p7
(S'f8'
p8
I0
I1
tp9
Rp10
(I3
S'<'
p11
NNNI-1
I-1
I0
tp12
bI00
S'03\x01\xea\xd3\xca\xf6?\xd0C\r6\xc0\x1e\xe1?'
p13
tp14
b(lp15
(lp16
cnumpy.core.multiarray
scalar
p17
(g10
S'\x91\xf3n\xbb\xe1Y\x16\xc0'
p18
tp19
Rp20
ag17
(g10
S'\x94\xc67\xd8\xa5\xdf @'
p21
tp22
Rp23
aa(lp24
g17
(g10
S'B<$\x99b\x1d\xe1?'
p25
tp26
Rp27
ag17
(g10
S'^K\xf6\xd2\x1d \xe1?'
p28
tp29
Rp30
aatp31
.