(cnumpy.core.multiarray
_reconstruct
p0
(cnumpy
ndarray
p1
(I0
tp2
S'b'
p3
tp4
Rp5
(I1
(I2
tp6
cnumpy
dtype
p7
(S'f8'
p8
I0
I1
tp9
Rp10
(I3
S'<'
p11
NNNI-1
I-1
I0
tp12
bI00
S'\x0b\xa2\xe0\xef\x05t\xcc?u-Y\xc5t\x85\xe0?'
p13
tp14
b(lp15
(lp16
cnumpy.core.multiarray
scalar
p17
(g10
S'\xfc\xce\xcb\xee\xe0(\xab\xbf'
p18
tp19
Rp20
ag17
(g10
S'\xea\x1b\xba\r"\xd9\xdf?'
p21
tp22
Rp23
aa(lp24
g17
(g10
S'\r\xad\x8c\x18)\x84\xe0?'
p25
tp26
Rp27
ag17
(g10
S'\xdd\xad%r\xc0\x86\xe0?'
p28
tp29
Rp30
aatp31
.