(cnumpy.core.multiarray
_reconstruct
p0
(cnumpy
ndarray
p1
(I0
tp2
S'b'
p3
tp4
Rp5
(I1
(I2
tp6
cnumpy
dtype
p7
(S'f8'
p8
I0
I1
tp9
Rp10
(I3
S'<'
p11
NNNI-1
I-1
I0
tp12
bI00
S'\xcd=\x1b\x15\xe5\n\xf1?\x82\xff\xaf\xa5g\xf5\xe0?'
p13
tp14
b(lp15
(lp16
cnumpy.core.multiarray
scalar
p17
(g10
S'\xd8,>FxJ\x05\xc0'
p18
tp19
Rp20
ag17
(g10
S'S\xb5\xac\xad\xae*\x13@'
p21
tp22
Rp23
aa(lp24
g17
(g10
S'\x94:G\xba\xf3\xf3\xe0?'
p25
tp26
Rp27
ag17
(g10
S'p\xc4\x18\x91\xdb\xf6\xe0?'
p28
tp29
Rp30
aatp31
.