(cnumpy.core.multiarray
_reconstruct
p0
(cnumpy
ndarray
p1
(I0
tp2
S'b'
p3
tp4
Rp5
(I1
(I2
tp6
cnumpy
dtype
p7
(S'f8'
p8
I0
I1
tp9
Rp10
(I3
S'<'
p11
NNNI-1
I-1
I0
tp12
bI00
S"\xf1\xe6'w\xce\x9b\x1f@H=\xb4D\xba\xe6\xe0?"
p13
tp14
b(lp15
(lp16
cnumpy.core.multiarray
scalar
p17
(g10
S'#B\xc5*\x08b\x91\xc0'
p18
tp19
Rp20
ag17
(g10
S'\xf1\x91\xb3\xc7?\xa1\x91@'
p21
tp22
Rp23
aa(lp24
g17
(g10
S'\xe5\xf7;\xb6:\xe5\xe0?'
p25
tp26
Rp27
ag17
(g10
S'\xab\x82,\xd39\xe8\xe0?'
p28
tp29
Rp30
aatp31
.