(cnumpy.core.multiarray
_reconstruct
p0
(cnumpy
ndarray
p1
(I0
tp2
S'b'
p3
tp4
Rp5
(I1
(I2
tp6
cnumpy
dtype
p7
(S'f8'
p8
I0
I1
tp9
Rp10
(I3
S'<'
p11
NNNI-1
I-1
I0
tp12
bI00
S'\xfeR3\xf8en\xea?\x81\xf6\x17\x1as\xae\xe0?'
p13
tp14
b(lp15
(lp16
cnumpy.core.multiarray
scalar
p17
(g10
S'g\xf3\\\xfd\xa8\xc0\xf4\xbf'
p18
tp19
Rp20
ag17
(g10
S'2#\xc8z\x87\x97\x07@'
p21
tp22
Rp23
aa(lp24
g17
(g10
S'\xb8\xcc\x18\xcc\r\xad\xe0?'
p25
tp26
Rp27
ag17
(g10
S'J \x17h\xd8\xaf\xe0?'
p28
tp29
Rp30
aatp31
.