(cnumpy.core.multiarray
_reconstruct
p0
(cnumpy
ndarray
p1
(I0
tp2
S'b'
p3
tp4
Rp5
(I1
(I2
tp6
cnumpy
dtype
p7
(S'f8'
p8
I0
I1
tp9
Rp10
(I3
S'<'
p11
NNNI-1
I-1
I0
tp12
bI00
S'I8q\xc8\xb4\x8b\xb3?.\xa5\x1ePw\x85\xe0?'
p13
tp14
b(lp15
(lp16
cnumpy.core.multiarray
scalar
p17
(g10
S'jM\x01>qw\x9b?'
p18
tp19
Rp20
ag17
(g10
S'\x9c\x0e\xb1\xa0\xc6\x1c\xc0?'
p21
tp22
Rp23
aa(lp24
g17
(g10
S'[B\x99\x1a.\x84\xe0?'
p25
tp26
Rp27
ag17
(g10
S'\x01\x08\xa4\x85\xc0\x86\xe0?'
p28
tp29
Rp30
aatp31
.