(cnumpy.core.multiarray
_reconstruct
p0
(cnumpy
ndarray
p1
(I0
tp2
S'b'
p3
tp4
Rp5
(I1
(I2
tp6
cnumpy
dtype
p7
(S'f8'
p8
I0
I1
tp9
Rp10
(I3
S'<'
p11
NNNI-1
I-1
I0
tp12
bI00
S'\x00\xe8\x81~2\xe3\xf6=\xac\xd3\xebj\xb0r\xe0?'
p13
tp14
b(lp15
(lp16
cnumpy.core.multiarray
scalar
p17
(g10
S'\x80\x886`\xcd\x8e}\xbf'
p18
tp19
Rp20
ag17
(g10
S'~\xed\xfc\x8d\xcd\x8e}?'
p21
tp22
Rp23
aa(lp24
g17
(g10
S'1\x8d\x99Lkq\xe0?'
p25
tp26
Rp27
ag17
(g10
S"'\x1a>\x89\xf5s\xe0?"
p28
tp29
Rp30
aatp31
.