(cnumpy.core.multiarray
_reconstruct
p0
(cnumpy
ndarray
p1
(I0
tp2
S'b'
p3
tp4
Rp5
(I1
(I2
tp6
cnumpy
dtype
p7
(S'f8'
p8
I0
I1
tp9
Rp10
(I3
S'<'
p11
NNNI-1
I-1
I0
tp12
bI00
S'\xa2d\xc7|\xdae\xe6?\x86\xfa\xfa,3^\xe0?'
p13
tp14
b(lp15
(lp16
cnumpy.core.multiarray
scalar
p17
(g10
S'2\xfa7\x0eq\x83\xe4\xbf'
p18
tp19
Rp20
ag17
(g10
S'\xde\xb0\xf1\x81\xc9S\x00@'
p21
tp22
Rp23
aa(lp24
g17
(g10
S'\xfbt\x1f\xb5\xe8\\\xe0?'
p25
tp26
Rp27
ag17
(g10
S'\x11\x80\xd6\xa4}_\xe0?'
p28
tp29
Rp30
aatp31
.