(cnumpy.core.multiarray
_reconstruct
p0
(cnumpy
ndarray
p1
(I0
tp2
S'b'
p3
tp4
Rp5
(I1
(I2
tp6
cnumpy
dtype
p7
(S'f8'
p8
I0
I1
tp9
Rp10
(I3
S'<'
p11
NNNI-1
I-1
I0
tp12
bI00
S'\xf0\xc6\x896\xc3\x8d\xf4?E`*\xbd\r\xd7\xe0?'
p13
tp14
b(lp15
(lp16
cnumpy.core.multiarray
scalar
p17
(g10
S'X\xa5\xbd\xb3\x8a\x99\x0f\xc0'
p18
tp19
Rp20
ag17
(g10
S'$\xb6#\xf5\xa6\x13\x1a@'
p21
tp22
Rp23
aa(lp24
g17
(g10
S'\xd9{\xff\x08\xa2\xd5\xe0?'
p25
tp26
Rp27
ag17
(g10
S'\xb1DUqy\xd8\xe0?'
p28
tp29
Rp30
aatp31
.