(cnumpy.core.multiarray
_reconstruct
p0
(cnumpy
ndarray
p1
(I0
tp2
S'b'
p3
tp4
Rp5
(I1
(I2
tp6
cnumpy
dtype
p7
(S'f8'
p8
I0
I1
tp9
Rp10
(I3
S'<'
p11
NNNI-1
I-1
I0
tp12
bI00
S'\x16F\xf0,\xd3\xa6\xd1?\xad\x0fN3\xfc\x85\xe0?'
p13
tp14
b(lp15
(lp16
cnumpy.core.multiarray
scalar
p17
(g10
S'\x80\xb9F`Ptm\xbf'
p18
tp19
Rp20
ag17
(g10
S'\xd0\x8cP}G\xc4\xe1?'
p21
tp22
Rp23
aa(lp24
g17
(g10
S'\xbf\xe9\xdf\x8d\xb2\x84\xe0?'
p25
tp26
Rp27
ag17
(g10
S'\x9b5\xbc\xd8E\x87\xe0?'
p28
tp29
Rp30
aatp31
.