(cnumpy.core.multiarray
_reconstruct
p0
(cnumpy
ndarray
p1
(I0
tp2
S'b'
p3
tp4
Rp5
(I1
(I2
tp6
cnumpy
dtype
p7
(S'f8'
p8
I0
I1
tp9
Rp10
(I3
S'<'
p11
NNNI-1
I-1
I0
tp12
bI00
S'T\x84\xe0\x13\x1b\x94\xc7?\x9d\x8d\x91\x118\xef\xe0?'
p13
tp14
b(lp15
(lp16
cnumpy.core.multiarray
scalar
p17
(g10
S'HsxL\x93&\x9d?'
p18
tp19
Rp20
ag17
(g10
S' \xfd\x18\xdf\xb1\xc1\xd5?'
p21
tp22
Rp23
aa(lp24
g17
(g10
S'Yv\x1bz\xdb\xed\xe0?'
p25
tp26
Rp27
ag17
(g10
S'\xe1\xa4\x07\xa9\x94\xf0\xe0?'
p28
tp29
Rp30
aatp31
.