(cnumpy.core.multiarray
_reconstruct
p0
(cnumpy
ndarray
p1
(I0
tp2
S'b'
p3
tp4
Rp5
(I1
(I2
tp6
cnumpy
dtype
p7
(S'f8'
p8
I0
I1
tp9
Rp10
(I3
S'<'
p11
NNNI-1
I-1
I0
tp12
bI00
S'\xa8cI`\xdc\x94\x03@\x9a\x82r\xa2\x0b\x94\xe0?'
p13
tp14
b(lp15
(lp16
cnumpy.core.multiarray
scalar
p17
(g10
S'\x96d\xbfv\x8a\xb8:\xc0'
p18
tp19
Rp20
ag17
(g10
S'\x80\xbd\xd1\x8e\xc1\x9d?@'
p21
tp22
Rp23
aa(lp24
g17
(g10
S'\xd3\x16\xbeo\xbe\x92\xe0?'
p25
tp26
Rp27
ag17
(g10
S'a\xee&\xd5X\x95\xe0?'
p28
tp29
Rp30
aatp31
.