(cnumpy.core.multiarray
_reconstruct
p0
(cnumpy
ndarray
p1
(I0
tp2
S'b'
p3
tp4
Rp5
(I1
(I2
tp6
cnumpy
dtype
p7
(S'f8'
p8
I0
I1
tp9
Rp10
(I3
S'<'
p11
NNNI-1
I-1
I0
tp12
bI00
S'\x0e\xd4y\xe2\x96j\xc4?\xc7\xef}\x7f5s\xe0?'
p13
tp14
b(lp15
(lp16
cnumpy.core.multiarray
scalar
p17
(g10
S'\xb4@\xfa\xb0`\xf2\xa0?'
p18
tp19
Rp20
ag17
(g10
S'\xf8\x8bZ\xccJL\xd2?'
p21
tp22
Rp23
aa(lp24
g17
(g10
S'L\xce\x86\x97\xd7q\xe0?'
p25
tp26
Rp27
ag17
(g10
S'B\x11ug\x93t\xe0?'
p28
tp29
Rp30
aatp31
.